
blinky.o:     file format elf32-littleriscv


Disassembly of section .text:

00010074 <main>:
   10074:	f9010113          	add	sp,sp,-112
   10078:	06112623          	sw	ra,108(sp)
   1007c:	06812423          	sw	s0,104(sp)
   10080:	07010413          	add	s0,sp,112
   10084:	fc042c23          	sw	zero,-40(s0)
   10088:	fe042623          	sw	zero,-20(s0)
   1008c:	fe042423          	sw	zero,-24(s0)
   10090:	fe042223          	sw	zero,-28(s0)
   10094:	00100793          	li	a5,1
   10098:	fcf42a23          	sw	a5,-44(s0)
   1009c:	000107b7          	lui	a5,0x10
   100a0:	27878793          	add	a5,a5,632 # 10278 <readButton+0x2c>
   100a4:	0007a883          	lw	a7,0(a5)
   100a8:	0047a803          	lw	a6,4(a5)
   100ac:	0087a503          	lw	a0,8(a5)
   100b0:	00c7a583          	lw	a1,12(a5)
   100b4:	0107a603          	lw	a2,16(a5)
   100b8:	0147a683          	lw	a3,20(a5)
   100bc:	0187a703          	lw	a4,24(a5)
   100c0:	01c7a783          	lw	a5,28(a5)
   100c4:	fb142a23          	sw	a7,-76(s0)
   100c8:	fb042c23          	sw	a6,-72(s0)
   100cc:	faa42e23          	sw	a0,-68(s0)
   100d0:	fcb42023          	sw	a1,-64(s0)
   100d4:	fcc42223          	sw	a2,-60(s0)
   100d8:	fcd42423          	sw	a3,-56(s0)
   100dc:	fce42623          	sw	a4,-52(s0)
   100e0:	fcf42823          	sw	a5,-48(s0)
   100e4:	000107b7          	lui	a5,0x10
   100e8:	29878793          	add	a5,a5,664 # 10298 <readButton+0x4c>
   100ec:	0007a883          	lw	a7,0(a5)
   100f0:	0047a803          	lw	a6,4(a5)
   100f4:	0087a503          	lw	a0,8(a5)
   100f8:	00c7a583          	lw	a1,12(a5)
   100fc:	0107a603          	lw	a2,16(a5)
   10100:	0147a683          	lw	a3,20(a5)
   10104:	0187a703          	lw	a4,24(a5)
   10108:	01c7a783          	lw	a5,28(a5)
   1010c:	f9142a23          	sw	a7,-108(s0)
   10110:	f9042c23          	sw	a6,-104(s0)
   10114:	f8a42e23          	sw	a0,-100(s0)
   10118:	fab42023          	sw	a1,-96(s0)
   1011c:	fac42223          	sw	a2,-92(s0)
   10120:	fad42423          	sw	a3,-88(s0)
   10124:	fae42623          	sw	a4,-84(s0)
   10128:	faf42823          	sw	a5,-80(s0)
   1012c:	fb440793          	add	a5,s0,-76
   10130:	fcf42e23          	sw	a5,-36(s0)
   10134:	118000ef          	jal	1024c <readButton>
   10138:	fca42c23          	sw	a0,-40(s0)
   1013c:	00100793          	li	a5,1
   10140:	fd842703          	lw	a4,-40(s0)
   10144:	04f71663          	bne	a4,a5,10190 <main+0x11c>
   10148:	00000713          	li	a4,0
   1014c:	fec42783          	lw	a5,-20(s0)
   10150:	04e79063          	bne	a5,a4,10190 <main+0x11c>
   10154:	fe442783          	lw	a5,-28(s0)
   10158:	00178713          	add	a4,a5,1
   1015c:	41f75793          	sra	a5,a4,0x1f
   10160:	01f7d793          	srl	a5,a5,0x1f
   10164:	00f70733          	add	a4,a4,a5
   10168:	00177713          	and	a4,a4,1
   1016c:	40f707b3          	sub	a5,a4,a5
   10170:	fef42223          	sw	a5,-28(s0)
   10174:	fe442783          	lw	a5,-28(s0)
   10178:	00079663          	bnez	a5,10184 <main+0x110>
   1017c:	fb440793          	add	a5,s0,-76
   10180:	0080006f          	j	10188 <main+0x114>
   10184:	f9440793          	add	a5,s0,-108
   10188:	fcf42e23          	sw	a5,-36(s0)
   1018c:	fe042423          	sw	zero,-24(s0)
   10190:	fd842783          	lw	a5,-40(s0)
   10194:	fef42623          	sw	a5,-20(s0)
   10198:	fe842783          	lw	a5,-24(s0)
   1019c:	00279793          	sll	a5,a5,0x2
   101a0:	fdc42703          	lw	a4,-36(s0)
   101a4:	00f707b3          	add	a5,a4,a5
   101a8:	0007a783          	lw	a5,0(a5)
   101ac:	00078513          	mv	a0,a5
   101b0:	064000ef          	jal	10214 <setLEDs>
   101b4:	fe842783          	lw	a5,-24(s0)
   101b8:	00178793          	add	a5,a5,1
   101bc:	0037f793          	and	a5,a5,3
   101c0:	fef42423          	sw	a5,-24(s0)
   101c4:	fe042023          	sw	zero,-32(s0)
   101c8:	0140006f          	j	101dc <main+0x168>
   101cc:	00000013          	nop
   101d0:	fe042783          	lw	a5,-32(s0)
   101d4:	00178793          	add	a5,a5,1
   101d8:	fef42023          	sw	a5,-32(s0)
   101dc:	fd442683          	lw	a3,-44(s0)
   101e0:	00068713          	mv	a4,a3
   101e4:	00571793          	sll	a5,a4,0x5
   101e8:	00078713          	mv	a4,a5
   101ec:	40d70733          	sub	a4,a4,a3
   101f0:	00671793          	sll	a5,a4,0x6
   101f4:	40e787b3          	sub	a5,a5,a4
   101f8:	00379793          	sll	a5,a5,0x3
   101fc:	00d787b3          	add	a5,a5,a3
   10200:	00679793          	sll	a5,a5,0x6
   10204:	00078713          	mv	a4,a5
   10208:	fe042783          	lw	a5,-32(s0)
   1020c:	fce7c0e3          	blt	a5,a4,101cc <main+0x158>
   10210:	f25ff06f          	j	10134 <main+0xc0>

00010214 <setLEDs>:
   10214:	fd010113          	add	sp,sp,-48
   10218:	02812623          	sw	s0,44(sp)
   1021c:	03010413          	add	s0,sp,48
   10220:	fca42e23          	sw	a0,-36(s0)
   10224:	ffff07b7          	lui	a5,0xffff0
   10228:	fef42623          	sw	a5,-20(s0)
   1022c:	fdc42783          	lw	a5,-36(s0)
   10230:	fec42703          	lw	a4,-20(s0)
   10234:	00ef7f33          	and	t5,t5,a4
   10238:	00ff6f33          	or	t5,t5,a5
   1023c:	00000013          	nop
   10240:	02c12403          	lw	s0,44(sp)
   10244:	03010113          	add	sp,sp,48
   10248:	00008067          	ret

0001024c <readButton>:
   1024c:	fe010113          	add	sp,sp,-32
   10250:	00812e23          	sw	s0,28(sp)
   10254:	02010413          	add	s0,sp,32
   10258:	01ff5513          	srl	a0,t5,0x1f
   1025c:	00157793          	and	a5,a0,1
   10260:	fef42623          	sw	a5,-20(s0)
   10264:	fec42783          	lw	a5,-20(s0)
   10268:	00078513          	mv	a0,a5
   1026c:	01c12403          	lw	s0,28(sp)
   10270:	02010113          	add	sp,sp,32
   10274:	00008067          	ret
