
count32:     file format elf32-littleriscv


Disassembly of section .text:

00010094 <exit>:
   10094:	ff010113          	add	sp,sp,-16
   10098:	00000593          	li	a1,0
   1009c:	00812423          	sw	s0,8(sp)
   100a0:	00112623          	sw	ra,12(sp)
   100a4:	00050413          	mv	s0,a0
   100a8:	3c1000ef          	jal	10c68 <__call_exitprocs>
   100ac:	f181a783          	lw	a5,-232(gp) # 237d8 <__stdio_exit_handler>
   100b0:	00078463          	beqz	a5,100b8 <exit+0x24>
   100b4:	000780e7          	jalr	a5
   100b8:	00040513          	mv	a0,s0
   100bc:	3410b0ef          	jal	1bbfc <_exit>

000100c0 <register_fini>:
   100c0:	00000793          	li	a5,0
   100c4:	00078863          	beqz	a5,100d4 <register_fini+0x14>
   100c8:	00006517          	auipc	a0,0x6
   100cc:	73850513          	add	a0,a0,1848 # 16800 <__libc_fini_array>
   100d0:	4d10006f          	j	10da0 <atexit>
   100d4:	00008067          	ret

000100d8 <_start>:
   100d8:	00013197          	auipc	gp,0x13
   100dc:	7e818193          	add	gp,gp,2024 # 238c0 <__global_pointer$>
   100e0:	f1818513          	add	a0,gp,-232 # 237d8 <__stdio_exit_handler>
   100e4:	26018613          	add	a2,gp,608 # 23b20 <__BSS_END__>
   100e8:	40a60633          	sub	a2,a2,a0
   100ec:	00000593          	li	a1,0
   100f0:	29d000ef          	jal	10b8c <memset>
   100f4:	00001517          	auipc	a0,0x1
   100f8:	cac50513          	add	a0,a0,-852 # 10da0 <atexit>
   100fc:	00050863          	beqz	a0,1010c <_start+0x34>
   10100:	00006517          	auipc	a0,0x6
   10104:	70050513          	add	a0,a0,1792 # 16800 <__libc_fini_array>
   10108:	499000ef          	jal	10da0 <atexit>
   1010c:	1ed000ef          	jal	10af8 <__libc_init_array>
   10110:	00012503          	lw	a0,0(sp)
   10114:	00410593          	add	a1,sp,4
   10118:	00000613          	li	a2,0
   1011c:	100000ef          	jal	1021c <main>
   10120:	f75ff06f          	j	10094 <exit>

00010124 <__do_global_dtors_aux>:
   10124:	ff010113          	add	sp,sp,-16
   10128:	00812423          	sw	s0,8(sp)
   1012c:	f4018413          	add	s0,gp,-192 # 23800 <completed.1>
   10130:	00044783          	lbu	a5,0(s0)
   10134:	00112623          	sw	ra,12(sp)
   10138:	02079263          	bnez	a5,1015c <__do_global_dtors_aux+0x38>
   1013c:	00000793          	li	a5,0
   10140:	00078a63          	beqz	a5,10154 <__do_global_dtors_aux+0x30>
   10144:	00013517          	auipc	a0,0x13
   10148:	ebc50513          	add	a0,a0,-324 # 23000 <__EH_FRAME_BEGIN__>
   1014c:	00000097          	auipc	ra,0x0
   10150:	000000e7          	jalr	zero # 0 <exit-0x10094>
   10154:	00100793          	li	a5,1
   10158:	00f40023          	sb	a5,0(s0)
   1015c:	00c12083          	lw	ra,12(sp)
   10160:	00812403          	lw	s0,8(sp)
   10164:	01010113          	add	sp,sp,16
   10168:	00008067          	ret

0001016c <frame_dummy>:
   1016c:	00000793          	li	a5,0
   10170:	00078c63          	beqz	a5,10188 <frame_dummy+0x1c>
   10174:	f4418593          	add	a1,gp,-188 # 23804 <object.0>
   10178:	00013517          	auipc	a0,0x13
   1017c:	e8850513          	add	a0,a0,-376 # 23000 <__EH_FRAME_BEGIN__>
   10180:	00000317          	auipc	t1,0x0
   10184:	00000067          	jr	zero # 0 <exit-0x10094>
   10188:	00008067          	ret

0001018c <delay>:
   1018c:	fd010113          	add	sp,sp,-48
   10190:	02112623          	sw	ra,44(sp)
   10194:	02812423          	sw	s0,40(sp)
   10198:	03010413          	add	s0,sp,48
   1019c:	fca42e23          	sw	a0,-36(s0)
   101a0:	fdc42783          	lw	a5,-36(s0)
   101a4:	fef42623          	sw	a5,-20(s0)
   101a8:	6dc000ef          	jal	10884 <clock>
   101ac:	fea42423          	sw	a0,-24(s0)
   101b0:	00000013          	nop
   101b4:	6d0000ef          	jal	10884 <clock>
   101b8:	00050693          	mv	a3,a0
   101bc:	fec42703          	lw	a4,-20(s0)
   101c0:	fe842783          	lw	a5,-24(s0)
   101c4:	00f707b3          	add	a5,a4,a5
   101c8:	fef6e6e3          	bltu	a3,a5,101b4 <delay+0x28>
   101cc:	00000013          	nop
   101d0:	00000013          	nop
   101d4:	02c12083          	lw	ra,44(sp)
   101d8:	02812403          	lw	s0,40(sp)
   101dc:	03010113          	add	sp,sp,48
   101e0:	00008067          	ret

000101e4 <display>:
   101e4:	fe010113          	add	sp,sp,-32
   101e8:	00112e23          	sw	ra,28(sp)
   101ec:	00812c23          	sw	s0,24(sp)
   101f0:	02010413          	add	s0,sp,32
   101f4:	fea42623          	sw	a0,-20(s0)
   101f8:	fec42583          	lw	a1,-20(s0)
   101fc:	000227b7          	lui	a5,0x22
   10200:	dd078513          	add	a0,a5,-560 # 21dd0 <__clzsi2+0x50>
   10204:	4c8000ef          	jal	106cc <printf>
   10208:	00000013          	nop
   1020c:	01c12083          	lw	ra,28(sp)
   10210:	01812403          	lw	s0,24(sp)
   10214:	02010113          	add	sp,sp,32
   10218:	00008067          	ret

0001021c <main>:
   1021c:	fe010113          	add	sp,sp,-32
   10220:	00112e23          	sw	ra,28(sp)
   10224:	00812c23          	sw	s0,24(sp)
   10228:	02010413          	add	s0,sp,32
   1022c:	000227b7          	lui	a5,0x22
   10230:	de478513          	add	a0,a5,-540 # 21de4 <__clzsi2+0x64>
   10234:	498000ef          	jal	106cc <printf>
   10238:	fe042623          	sw	zero,-20(s0)
   1023c:	fec42503          	lw	a0,-20(s0)
   10240:	fa5ff0ef          	jal	101e4 <display>
   10244:	fec42783          	lw	a5,-20(s0)
   10248:	00178793          	add	a5,a5,1
   1024c:	fef42623          	sw	a5,-20(s0)
   10250:	fec42703          	lw	a4,-20(s0)
   10254:	01000793          	li	a5,16
   10258:	00f71463          	bne	a4,a5,10260 <main+0x44>
   1025c:	fe042623          	sw	zero,-20(s0)
   10260:	0007a7b7          	lui	a5,0x7a
   10264:	12078513          	add	a0,a5,288 # 7a120 <__BSS_END__+0x56600>
   10268:	f25ff0ef          	jal	1018c <delay>
   1026c:	fd1ff06f          	j	1023c <main+0x20>

00010270 <__fp_lock>:
   10270:	00000513          	li	a0,0
   10274:	00008067          	ret

00010278 <stdio_exit_handler>:
   10278:	00013617          	auipc	a2,0x13
   1027c:	e4860613          	add	a2,a2,-440 # 230c0 <__sglue>
   10280:	00005597          	auipc	a1,0x5
   10284:	67458593          	add	a1,a1,1652 # 158f4 <_fclose_r>
   10288:	00013517          	auipc	a0,0x13
   1028c:	e4850513          	add	a0,a0,-440 # 230d0 <_impure_data>
   10290:	3480006f          	j	105d8 <_fwalk_sglue>

00010294 <cleanup_stdio>:
   10294:	00452583          	lw	a1,4(a0)
   10298:	ff010113          	add	sp,sp,-16
   1029c:	00812423          	sw	s0,8(sp)
   102a0:	00112623          	sw	ra,12(sp)
   102a4:	f5c18793          	add	a5,gp,-164 # 2381c <__sf>
   102a8:	00050413          	mv	s0,a0
   102ac:	00f58463          	beq	a1,a5,102b4 <cleanup_stdio+0x20>
   102b0:	644050ef          	jal	158f4 <_fclose_r>
   102b4:	00842583          	lw	a1,8(s0)
   102b8:	fc418793          	add	a5,gp,-60 # 23884 <__sf+0x68>
   102bc:	00f58663          	beq	a1,a5,102c8 <cleanup_stdio+0x34>
   102c0:	00040513          	mv	a0,s0
   102c4:	630050ef          	jal	158f4 <_fclose_r>
   102c8:	00c42583          	lw	a1,12(s0)
   102cc:	02c18793          	add	a5,gp,44 # 238ec <__global_pointer$+0x2c>
   102d0:	00f58c63          	beq	a1,a5,102e8 <cleanup_stdio+0x54>
   102d4:	00040513          	mv	a0,s0
   102d8:	00812403          	lw	s0,8(sp)
   102dc:	00c12083          	lw	ra,12(sp)
   102e0:	01010113          	add	sp,sp,16
   102e4:	6100506f          	j	158f4 <_fclose_r>
   102e8:	00c12083          	lw	ra,12(sp)
   102ec:	00812403          	lw	s0,8(sp)
   102f0:	01010113          	add	sp,sp,16
   102f4:	00008067          	ret

000102f8 <__fp_unlock>:
   102f8:	00000513          	li	a0,0
   102fc:	00008067          	ret

00010300 <global_stdio_init.part.0>:
   10300:	fe010113          	add	sp,sp,-32
   10304:	00000797          	auipc	a5,0x0
   10308:	f7478793          	add	a5,a5,-140 # 10278 <stdio_exit_handler>
   1030c:	00112e23          	sw	ra,28(sp)
   10310:	00812c23          	sw	s0,24(sp)
   10314:	00912a23          	sw	s1,20(sp)
   10318:	f5c18413          	add	s0,gp,-164 # 2381c <__sf>
   1031c:	01212823          	sw	s2,16(sp)
   10320:	01312623          	sw	s3,12(sp)
   10324:	01412423          	sw	s4,8(sp)
   10328:	f0f1ac23          	sw	a5,-232(gp) # 237d8 <__stdio_exit_handler>
   1032c:	00800613          	li	a2,8
   10330:	00400793          	li	a5,4
   10334:	00000593          	li	a1,0
   10338:	fb818513          	add	a0,gp,-72 # 23878 <__sf+0x5c>
   1033c:	00f42623          	sw	a5,12(s0)
   10340:	00042023          	sw	zero,0(s0)
   10344:	00042223          	sw	zero,4(s0)
   10348:	00042423          	sw	zero,8(s0)
   1034c:	06042223          	sw	zero,100(s0)
   10350:	00042823          	sw	zero,16(s0)
   10354:	00042a23          	sw	zero,20(s0)
   10358:	00042c23          	sw	zero,24(s0)
   1035c:	031000ef          	jal	10b8c <memset>
   10360:	000107b7          	lui	a5,0x10
   10364:	00000a17          	auipc	s4,0x0
   10368:	3b4a0a13          	add	s4,s4,948 # 10718 <__sread>
   1036c:	00000997          	auipc	s3,0x0
   10370:	41098993          	add	s3,s3,1040 # 1077c <__swrite>
   10374:	00000917          	auipc	s2,0x0
   10378:	49090913          	add	s2,s2,1168 # 10804 <__sseek>
   1037c:	00000497          	auipc	s1,0x0
   10380:	50048493          	add	s1,s1,1280 # 1087c <__sclose>
   10384:	00978793          	add	a5,a5,9 # 10009 <exit-0x8b>
   10388:	00800613          	li	a2,8
   1038c:	00000593          	li	a1,0
   10390:	02018513          	add	a0,gp,32 # 238e0 <__global_pointer$+0x20>
   10394:	03442023          	sw	s4,32(s0)
   10398:	03342223          	sw	s3,36(s0)
   1039c:	03242423          	sw	s2,40(s0)
   103a0:	02942623          	sw	s1,44(s0)
   103a4:	06f42a23          	sw	a5,116(s0)
   103a8:	00842e23          	sw	s0,28(s0)
   103ac:	06042423          	sw	zero,104(s0)
   103b0:	06042623          	sw	zero,108(s0)
   103b4:	06042823          	sw	zero,112(s0)
   103b8:	0c042623          	sw	zero,204(s0)
   103bc:	06042c23          	sw	zero,120(s0)
   103c0:	06042e23          	sw	zero,124(s0)
   103c4:	08042023          	sw	zero,128(s0)
   103c8:	7c4000ef          	jal	10b8c <memset>
   103cc:	000207b7          	lui	a5,0x20
   103d0:	01278793          	add	a5,a5,18 # 20012 <__multf3+0x10de>
   103d4:	fc418713          	add	a4,gp,-60 # 23884 <__sf+0x68>
   103d8:	00800613          	li	a2,8
   103dc:	00000593          	li	a1,0
   103e0:	08818513          	add	a0,gp,136 # 23948 <__global_pointer$+0x88>
   103e4:	09442423          	sw	s4,136(s0)
   103e8:	09342623          	sw	s3,140(s0)
   103ec:	09242823          	sw	s2,144(s0)
   103f0:	08942a23          	sw	s1,148(s0)
   103f4:	0cf42e23          	sw	a5,220(s0)
   103f8:	08e42223          	sw	a4,132(s0)
   103fc:	0c042823          	sw	zero,208(s0)
   10400:	0c042a23          	sw	zero,212(s0)
   10404:	0c042c23          	sw	zero,216(s0)
   10408:	12042a23          	sw	zero,308(s0)
   1040c:	0e042023          	sw	zero,224(s0)
   10410:	0e042223          	sw	zero,228(s0)
   10414:	0e042423          	sw	zero,232(s0)
   10418:	774000ef          	jal	10b8c <memset>
   1041c:	02c18793          	add	a5,gp,44 # 238ec <__global_pointer$+0x2c>
   10420:	0f442823          	sw	s4,240(s0)
   10424:	0f342a23          	sw	s3,244(s0)
   10428:	0f242c23          	sw	s2,248(s0)
   1042c:	0e942e23          	sw	s1,252(s0)
   10430:	01c12083          	lw	ra,28(sp)
   10434:	0ef42623          	sw	a5,236(s0)
   10438:	01812403          	lw	s0,24(sp)
   1043c:	01412483          	lw	s1,20(sp)
   10440:	01012903          	lw	s2,16(sp)
   10444:	00c12983          	lw	s3,12(sp)
   10448:	00812a03          	lw	s4,8(sp)
   1044c:	02010113          	add	sp,sp,32
   10450:	00008067          	ret

00010454 <__sfp>:
   10454:	fe010113          	add	sp,sp,-32
   10458:	01312623          	sw	s3,12(sp)
   1045c:	00112e23          	sw	ra,28(sp)
   10460:	00812c23          	sw	s0,24(sp)
   10464:	00912a23          	sw	s1,20(sp)
   10468:	01212823          	sw	s2,16(sp)
   1046c:	f181a783          	lw	a5,-232(gp) # 237d8 <__stdio_exit_handler>
   10470:	00050993          	mv	s3,a0
   10474:	0e078863          	beqz	a5,10564 <__sfp+0x110>
   10478:	00013917          	auipc	s2,0x13
   1047c:	c4890913          	add	s2,s2,-952 # 230c0 <__sglue>
   10480:	fff00493          	li	s1,-1
   10484:	00492783          	lw	a5,4(s2)
   10488:	00892403          	lw	s0,8(s2)
   1048c:	fff78793          	add	a5,a5,-1
   10490:	0007d863          	bgez	a5,104a0 <__sfp+0x4c>
   10494:	0800006f          	j	10514 <__sfp+0xc0>
   10498:	06840413          	add	s0,s0,104
   1049c:	06978c63          	beq	a5,s1,10514 <__sfp+0xc0>
   104a0:	00c41703          	lh	a4,12(s0)
   104a4:	fff78793          	add	a5,a5,-1
   104a8:	fe0718e3          	bnez	a4,10498 <__sfp+0x44>
   104ac:	ffff07b7          	lui	a5,0xffff0
   104b0:	00178793          	add	a5,a5,1 # ffff0001 <__BSS_END__+0xfffcc4e1>
   104b4:	00f42623          	sw	a5,12(s0)
   104b8:	06042223          	sw	zero,100(s0)
   104bc:	00042023          	sw	zero,0(s0)
   104c0:	00042423          	sw	zero,8(s0)
   104c4:	00042223          	sw	zero,4(s0)
   104c8:	00042823          	sw	zero,16(s0)
   104cc:	00042a23          	sw	zero,20(s0)
   104d0:	00042c23          	sw	zero,24(s0)
   104d4:	00800613          	li	a2,8
   104d8:	00000593          	li	a1,0
   104dc:	05c40513          	add	a0,s0,92
   104e0:	6ac000ef          	jal	10b8c <memset>
   104e4:	02042823          	sw	zero,48(s0)
   104e8:	02042a23          	sw	zero,52(s0)
   104ec:	04042223          	sw	zero,68(s0)
   104f0:	04042423          	sw	zero,72(s0)
   104f4:	01c12083          	lw	ra,28(sp)
   104f8:	00040513          	mv	a0,s0
   104fc:	01812403          	lw	s0,24(sp)
   10500:	01412483          	lw	s1,20(sp)
   10504:	01012903          	lw	s2,16(sp)
   10508:	00c12983          	lw	s3,12(sp)
   1050c:	02010113          	add	sp,sp,32
   10510:	00008067          	ret
   10514:	00092403          	lw	s0,0(s2)
   10518:	00040663          	beqz	s0,10524 <__sfp+0xd0>
   1051c:	00040913          	mv	s2,s0
   10520:	f65ff06f          	j	10484 <__sfp+0x30>
   10524:	1ac00593          	li	a1,428
   10528:	00098513          	mv	a0,s3
   1052c:	4c5000ef          	jal	111f0 <_malloc_r>
   10530:	00050413          	mv	s0,a0
   10534:	02050c63          	beqz	a0,1056c <__sfp+0x118>
   10538:	00c50513          	add	a0,a0,12
   1053c:	00400793          	li	a5,4
   10540:	00042023          	sw	zero,0(s0)
   10544:	00f42223          	sw	a5,4(s0)
   10548:	00a42423          	sw	a0,8(s0)
   1054c:	1a000613          	li	a2,416
   10550:	00000593          	li	a1,0
   10554:	638000ef          	jal	10b8c <memset>
   10558:	00892023          	sw	s0,0(s2)
   1055c:	00040913          	mv	s2,s0
   10560:	f25ff06f          	j	10484 <__sfp+0x30>
   10564:	d9dff0ef          	jal	10300 <global_stdio_init.part.0>
   10568:	f11ff06f          	j	10478 <__sfp+0x24>
   1056c:	00092023          	sw	zero,0(s2)
   10570:	00c00793          	li	a5,12
   10574:	00f9a023          	sw	a5,0(s3)
   10578:	f7dff06f          	j	104f4 <__sfp+0xa0>

0001057c <__sinit>:
   1057c:	03452783          	lw	a5,52(a0)
   10580:	00078463          	beqz	a5,10588 <__sinit+0xc>
   10584:	00008067          	ret
   10588:	00000797          	auipc	a5,0x0
   1058c:	d0c78793          	add	a5,a5,-756 # 10294 <cleanup_stdio>
   10590:	02f52a23          	sw	a5,52(a0)
   10594:	f181a783          	lw	a5,-232(gp) # 237d8 <__stdio_exit_handler>
   10598:	fe0796e3          	bnez	a5,10584 <__sinit+0x8>
   1059c:	d65ff06f          	j	10300 <global_stdio_init.part.0>

000105a0 <__sfp_lock_acquire>:
   105a0:	00008067          	ret

000105a4 <__sfp_lock_release>:
   105a4:	00008067          	ret

000105a8 <__fp_lock_all>:
   105a8:	00013617          	auipc	a2,0x13
   105ac:	b1860613          	add	a2,a2,-1256 # 230c0 <__sglue>
   105b0:	00000597          	auipc	a1,0x0
   105b4:	cc058593          	add	a1,a1,-832 # 10270 <__fp_lock>
   105b8:	00000513          	li	a0,0
   105bc:	01c0006f          	j	105d8 <_fwalk_sglue>

000105c0 <__fp_unlock_all>:
   105c0:	00013617          	auipc	a2,0x13
   105c4:	b0060613          	add	a2,a2,-1280 # 230c0 <__sglue>
   105c8:	00000597          	auipc	a1,0x0
   105cc:	d3058593          	add	a1,a1,-720 # 102f8 <__fp_unlock>
   105d0:	00000513          	li	a0,0
   105d4:	0040006f          	j	105d8 <_fwalk_sglue>

000105d8 <_fwalk_sglue>:
   105d8:	fd010113          	add	sp,sp,-48
   105dc:	03212023          	sw	s2,32(sp)
   105e0:	01312e23          	sw	s3,28(sp)
   105e4:	01412c23          	sw	s4,24(sp)
   105e8:	01512a23          	sw	s5,20(sp)
   105ec:	01612823          	sw	s6,16(sp)
   105f0:	01712623          	sw	s7,12(sp)
   105f4:	02112623          	sw	ra,44(sp)
   105f8:	02812423          	sw	s0,40(sp)
   105fc:	02912223          	sw	s1,36(sp)
   10600:	00050b13          	mv	s6,a0
   10604:	00058b93          	mv	s7,a1
   10608:	00060a93          	mv	s5,a2
   1060c:	00000a13          	li	s4,0
   10610:	00100993          	li	s3,1
   10614:	fff00913          	li	s2,-1
   10618:	004aa483          	lw	s1,4(s5)
   1061c:	008aa403          	lw	s0,8(s5)
   10620:	fff48493          	add	s1,s1,-1
   10624:	0204c863          	bltz	s1,10654 <_fwalk_sglue+0x7c>
   10628:	00c45783          	lhu	a5,12(s0)
   1062c:	00f9fe63          	bgeu	s3,a5,10648 <_fwalk_sglue+0x70>
   10630:	00e41783          	lh	a5,14(s0)
   10634:	00040593          	mv	a1,s0
   10638:	000b0513          	mv	a0,s6
   1063c:	01278663          	beq	a5,s2,10648 <_fwalk_sglue+0x70>
   10640:	000b80e7          	jalr	s7
   10644:	00aa6a33          	or	s4,s4,a0
   10648:	fff48493          	add	s1,s1,-1
   1064c:	06840413          	add	s0,s0,104
   10650:	fd249ce3          	bne	s1,s2,10628 <_fwalk_sglue+0x50>
   10654:	000aaa83          	lw	s5,0(s5)
   10658:	fc0a90e3          	bnez	s5,10618 <_fwalk_sglue+0x40>
   1065c:	02c12083          	lw	ra,44(sp)
   10660:	02812403          	lw	s0,40(sp)
   10664:	02412483          	lw	s1,36(sp)
   10668:	02012903          	lw	s2,32(sp)
   1066c:	01c12983          	lw	s3,28(sp)
   10670:	01412a83          	lw	s5,20(sp)
   10674:	01012b03          	lw	s6,16(sp)
   10678:	00c12b83          	lw	s7,12(sp)
   1067c:	000a0513          	mv	a0,s4
   10680:	01812a03          	lw	s4,24(sp)
   10684:	03010113          	add	sp,sp,48
   10688:	00008067          	ret

0001068c <_printf_r>:
   1068c:	fc010113          	add	sp,sp,-64
   10690:	02c12423          	sw	a2,40(sp)
   10694:	02d12623          	sw	a3,44(sp)
   10698:	02e12823          	sw	a4,48(sp)
   1069c:	02f12a23          	sw	a5,52(sp)
   106a0:	03012c23          	sw	a6,56(sp)
   106a4:	03112e23          	sw	a7,60(sp)
   106a8:	00058613          	mv	a2,a1
   106ac:	00852583          	lw	a1,8(a0)
   106b0:	02810693          	add	a3,sp,40
   106b4:	00112e23          	sw	ra,28(sp)
   106b8:	00d12623          	sw	a3,12(sp)
   106bc:	304010ef          	jal	119c0 <_vfprintf_r>
   106c0:	01c12083          	lw	ra,28(sp)
   106c4:	04010113          	add	sp,sp,64
   106c8:	00008067          	ret

000106cc <printf>:
   106cc:	fc010113          	add	sp,sp,-64
   106d0:	02c12423          	sw	a2,40(sp)
   106d4:	02d12623          	sw	a3,44(sp)
   106d8:	f0c1a303          	lw	t1,-244(gp) # 237cc <_impure_ptr>
   106dc:	02b12223          	sw	a1,36(sp)
   106e0:	02e12823          	sw	a4,48(sp)
   106e4:	02f12a23          	sw	a5,52(sp)
   106e8:	03012c23          	sw	a6,56(sp)
   106ec:	03112e23          	sw	a7,60(sp)
   106f0:	00832583          	lw	a1,8(t1) # 10188 <frame_dummy+0x1c>
   106f4:	02410693          	add	a3,sp,36
   106f8:	00050613          	mv	a2,a0
   106fc:	00030513          	mv	a0,t1
   10700:	00112e23          	sw	ra,28(sp)
   10704:	00d12623          	sw	a3,12(sp)
   10708:	2b8010ef          	jal	119c0 <_vfprintf_r>
   1070c:	01c12083          	lw	ra,28(sp)
   10710:	04010113          	add	sp,sp,64
   10714:	00008067          	ret

00010718 <__sread>:
   10718:	ff010113          	add	sp,sp,-16
   1071c:	00812423          	sw	s0,8(sp)
   10720:	00058413          	mv	s0,a1
   10724:	00e59583          	lh	a1,14(a1)
   10728:	00112623          	sw	ra,12(sp)
   1072c:	30c000ef          	jal	10a38 <_read_r>
   10730:	02054063          	bltz	a0,10750 <__sread+0x38>
   10734:	05042783          	lw	a5,80(s0)
   10738:	00c12083          	lw	ra,12(sp)
   1073c:	00a787b3          	add	a5,a5,a0
   10740:	04f42823          	sw	a5,80(s0)
   10744:	00812403          	lw	s0,8(sp)
   10748:	01010113          	add	sp,sp,16
   1074c:	00008067          	ret
   10750:	00c45783          	lhu	a5,12(s0)
   10754:	fffff737          	lui	a4,0xfffff
   10758:	fff70713          	add	a4,a4,-1 # ffffefff <__BSS_END__+0xfffdb4df>
   1075c:	00e7f7b3          	and	a5,a5,a4
   10760:	00c12083          	lw	ra,12(sp)
   10764:	00f41623          	sh	a5,12(s0)
   10768:	00812403          	lw	s0,8(sp)
   1076c:	01010113          	add	sp,sp,16
   10770:	00008067          	ret

00010774 <__seofread>:
   10774:	00000513          	li	a0,0
   10778:	00008067          	ret

0001077c <__swrite>:
   1077c:	00c59783          	lh	a5,12(a1)
   10780:	fe010113          	add	sp,sp,-32
   10784:	00812c23          	sw	s0,24(sp)
   10788:	00912a23          	sw	s1,20(sp)
   1078c:	01212823          	sw	s2,16(sp)
   10790:	01312623          	sw	s3,12(sp)
   10794:	00112e23          	sw	ra,28(sp)
   10798:	1007f713          	and	a4,a5,256
   1079c:	00058413          	mv	s0,a1
   107a0:	00050493          	mv	s1,a0
   107a4:	00060913          	mv	s2,a2
   107a8:	00068993          	mv	s3,a3
   107ac:	04071063          	bnez	a4,107ec <__swrite+0x70>
   107b0:	fffff737          	lui	a4,0xfffff
   107b4:	fff70713          	add	a4,a4,-1 # ffffefff <__BSS_END__+0xfffdb4df>
   107b8:	00e7f7b3          	and	a5,a5,a4
   107bc:	00e41583          	lh	a1,14(s0)
   107c0:	00f41623          	sh	a5,12(s0)
   107c4:	01812403          	lw	s0,24(sp)
   107c8:	01c12083          	lw	ra,28(sp)
   107cc:	00098693          	mv	a3,s3
   107d0:	00090613          	mv	a2,s2
   107d4:	00c12983          	lw	s3,12(sp)
   107d8:	01012903          	lw	s2,16(sp)
   107dc:	00048513          	mv	a0,s1
   107e0:	01412483          	lw	s1,20(sp)
   107e4:	02010113          	add	sp,sp,32
   107e8:	2b40006f          	j	10a9c <_write_r>
   107ec:	00e59583          	lh	a1,14(a1)
   107f0:	00200693          	li	a3,2
   107f4:	00000613          	li	a2,0
   107f8:	1e4000ef          	jal	109dc <_lseek_r>
   107fc:	00c41783          	lh	a5,12(s0)
   10800:	fb1ff06f          	j	107b0 <__swrite+0x34>

00010804 <__sseek>:
   10804:	ff010113          	add	sp,sp,-16
   10808:	00812423          	sw	s0,8(sp)
   1080c:	00058413          	mv	s0,a1
   10810:	00e59583          	lh	a1,14(a1)
   10814:	00112623          	sw	ra,12(sp)
   10818:	1c4000ef          	jal	109dc <_lseek_r>
   1081c:	fff00793          	li	a5,-1
   10820:	02f50863          	beq	a0,a5,10850 <__sseek+0x4c>
   10824:	00c45783          	lhu	a5,12(s0)
   10828:	00001737          	lui	a4,0x1
   1082c:	00c12083          	lw	ra,12(sp)
   10830:	00e7e7b3          	or	a5,a5,a4
   10834:	01079793          	sll	a5,a5,0x10
   10838:	4107d793          	sra	a5,a5,0x10
   1083c:	04a42823          	sw	a0,80(s0)
   10840:	00f41623          	sh	a5,12(s0)
   10844:	00812403          	lw	s0,8(sp)
   10848:	01010113          	add	sp,sp,16
   1084c:	00008067          	ret
   10850:	00c45783          	lhu	a5,12(s0)
   10854:	fffff737          	lui	a4,0xfffff
   10858:	fff70713          	add	a4,a4,-1 # ffffefff <__BSS_END__+0xfffdb4df>
   1085c:	00e7f7b3          	and	a5,a5,a4
   10860:	01079793          	sll	a5,a5,0x10
   10864:	4107d793          	sra	a5,a5,0x10
   10868:	00c12083          	lw	ra,12(sp)
   1086c:	00f41623          	sh	a5,12(s0)
   10870:	00812403          	lw	s0,8(sp)
   10874:	01010113          	add	sp,sp,16
   10878:	00008067          	ret

0001087c <__sclose>:
   1087c:	00e59583          	lh	a1,14(a1)
   10880:	0480006f          	j	108c8 <_close_r>

00010884 <clock>:
   10884:	fe010113          	add	sp,sp,-32
   10888:	00010593          	mv	a1,sp
   1088c:	f0c1a503          	lw	a0,-244(gp) # 237cc <_impure_ptr>
   10890:	00112e23          	sw	ra,28(sp)
   10894:	200000ef          	jal	10a94 <_times_r>
   10898:	fff00793          	li	a5,-1
   1089c:	02f50063          	beq	a0,a5,108bc <clock+0x38>
   108a0:	00412783          	lw	a5,4(sp)
   108a4:	00012503          	lw	a0,0(sp)
   108a8:	00f50533          	add	a0,a0,a5
   108ac:	00812783          	lw	a5,8(sp)
   108b0:	00f50533          	add	a0,a0,a5
   108b4:	00c12783          	lw	a5,12(sp)
   108b8:	00f50533          	add	a0,a0,a5
   108bc:	01c12083          	lw	ra,28(sp)
   108c0:	02010113          	add	sp,sp,32
   108c4:	00008067          	ret

000108c8 <_close_r>:
   108c8:	ff010113          	add	sp,sp,-16
   108cc:	00812423          	sw	s0,8(sp)
   108d0:	00050413          	mv	s0,a0
   108d4:	00058513          	mv	a0,a1
   108d8:	f001ae23          	sw	zero,-228(gp) # 237dc <errno>
   108dc:	00112623          	sw	ra,12(sp)
   108e0:	2d80b0ef          	jal	1bbb8 <_close>
   108e4:	fff00793          	li	a5,-1
   108e8:	00f50a63          	beq	a0,a5,108fc <_close_r+0x34>
   108ec:	00c12083          	lw	ra,12(sp)
   108f0:	00812403          	lw	s0,8(sp)
   108f4:	01010113          	add	sp,sp,16
   108f8:	00008067          	ret
   108fc:	f1c1a783          	lw	a5,-228(gp) # 237dc <errno>
   10900:	fe0786e3          	beqz	a5,108ec <_close_r+0x24>
   10904:	00c12083          	lw	ra,12(sp)
   10908:	00f42023          	sw	a5,0(s0)
   1090c:	00812403          	lw	s0,8(sp)
   10910:	01010113          	add	sp,sp,16
   10914:	00008067          	ret

00010918 <_reclaim_reent>:
   10918:	f0c1a783          	lw	a5,-244(gp) # 237cc <_impure_ptr>
   1091c:	0aa78e63          	beq	a5,a0,109d8 <_reclaim_reent+0xc0>
   10920:	04452583          	lw	a1,68(a0)
   10924:	fe010113          	add	sp,sp,-32
   10928:	00912a23          	sw	s1,20(sp)
   1092c:	00112e23          	sw	ra,28(sp)
   10930:	00050493          	mv	s1,a0
   10934:	04058c63          	beqz	a1,1098c <_reclaim_reent+0x74>
   10938:	01212823          	sw	s2,16(sp)
   1093c:	01312623          	sw	s3,12(sp)
   10940:	00812c23          	sw	s0,24(sp)
   10944:	00000913          	li	s2,0
   10948:	08000993          	li	s3,128
   1094c:	012587b3          	add	a5,a1,s2
   10950:	0007a403          	lw	s0,0(a5)
   10954:	00040e63          	beqz	s0,10970 <_reclaim_reent+0x58>
   10958:	00040593          	mv	a1,s0
   1095c:	00042403          	lw	s0,0(s0)
   10960:	00048513          	mv	a0,s1
   10964:	588000ef          	jal	10eec <_free_r>
   10968:	fe0418e3          	bnez	s0,10958 <_reclaim_reent+0x40>
   1096c:	0444a583          	lw	a1,68(s1)
   10970:	00490913          	add	s2,s2,4
   10974:	fd391ce3          	bne	s2,s3,1094c <_reclaim_reent+0x34>
   10978:	00048513          	mv	a0,s1
   1097c:	570000ef          	jal	10eec <_free_r>
   10980:	01812403          	lw	s0,24(sp)
   10984:	01012903          	lw	s2,16(sp)
   10988:	00c12983          	lw	s3,12(sp)
   1098c:	0384a583          	lw	a1,56(s1)
   10990:	00058663          	beqz	a1,1099c <_reclaim_reent+0x84>
   10994:	00048513          	mv	a0,s1
   10998:	554000ef          	jal	10eec <_free_r>
   1099c:	04c4a583          	lw	a1,76(s1)
   109a0:	00058663          	beqz	a1,109ac <_reclaim_reent+0x94>
   109a4:	00048513          	mv	a0,s1
   109a8:	544000ef          	jal	10eec <_free_r>
   109ac:	0344a783          	lw	a5,52(s1)
   109b0:	00078c63          	beqz	a5,109c8 <_reclaim_reent+0xb0>
   109b4:	01c12083          	lw	ra,28(sp)
   109b8:	00048513          	mv	a0,s1
   109bc:	01412483          	lw	s1,20(sp)
   109c0:	02010113          	add	sp,sp,32
   109c4:	00078067          	jr	a5
   109c8:	01c12083          	lw	ra,28(sp)
   109cc:	01412483          	lw	s1,20(sp)
   109d0:	02010113          	add	sp,sp,32
   109d4:	00008067          	ret
   109d8:	00008067          	ret

000109dc <_lseek_r>:
   109dc:	ff010113          	add	sp,sp,-16
   109e0:	00058713          	mv	a4,a1
   109e4:	00812423          	sw	s0,8(sp)
   109e8:	00060593          	mv	a1,a2
   109ec:	00050413          	mv	s0,a0
   109f0:	00068613          	mv	a2,a3
   109f4:	00070513          	mv	a0,a4
   109f8:	f001ae23          	sw	zero,-228(gp) # 237dc <errno>
   109fc:	00112623          	sw	ra,12(sp)
   10a00:	2f80b0ef          	jal	1bcf8 <_lseek>
   10a04:	fff00793          	li	a5,-1
   10a08:	00f50a63          	beq	a0,a5,10a1c <_lseek_r+0x40>
   10a0c:	00c12083          	lw	ra,12(sp)
   10a10:	00812403          	lw	s0,8(sp)
   10a14:	01010113          	add	sp,sp,16
   10a18:	00008067          	ret
   10a1c:	f1c1a783          	lw	a5,-228(gp) # 237dc <errno>
   10a20:	fe0786e3          	beqz	a5,10a0c <_lseek_r+0x30>
   10a24:	00c12083          	lw	ra,12(sp)
   10a28:	00f42023          	sw	a5,0(s0)
   10a2c:	00812403          	lw	s0,8(sp)
   10a30:	01010113          	add	sp,sp,16
   10a34:	00008067          	ret

00010a38 <_read_r>:
   10a38:	ff010113          	add	sp,sp,-16
   10a3c:	00058713          	mv	a4,a1
   10a40:	00812423          	sw	s0,8(sp)
   10a44:	00060593          	mv	a1,a2
   10a48:	00050413          	mv	s0,a0
   10a4c:	00068613          	mv	a2,a3
   10a50:	00070513          	mv	a0,a4
   10a54:	f001ae23          	sw	zero,-228(gp) # 237dc <errno>
   10a58:	00112623          	sw	ra,12(sp)
   10a5c:	2e00b0ef          	jal	1bd3c <_read>
   10a60:	fff00793          	li	a5,-1
   10a64:	00f50a63          	beq	a0,a5,10a78 <_read_r+0x40>
   10a68:	00c12083          	lw	ra,12(sp)
   10a6c:	00812403          	lw	s0,8(sp)
   10a70:	01010113          	add	sp,sp,16
   10a74:	00008067          	ret
   10a78:	f1c1a783          	lw	a5,-228(gp) # 237dc <errno>
   10a7c:	fe0786e3          	beqz	a5,10a68 <_read_r+0x30>
   10a80:	00c12083          	lw	ra,12(sp)
   10a84:	00f42023          	sw	a5,0(s0)
   10a88:	00812403          	lw	s0,8(sp)
   10a8c:	01010113          	add	sp,sp,16
   10a90:	00008067          	ret

00010a94 <_times_r>:
   10a94:	00058513          	mv	a0,a1
   10a98:	3640b06f          	j	1bdfc <_times>

00010a9c <_write_r>:
   10a9c:	ff010113          	add	sp,sp,-16
   10aa0:	00058713          	mv	a4,a1
   10aa4:	00812423          	sw	s0,8(sp)
   10aa8:	00060593          	mv	a1,a2
   10aac:	00050413          	mv	s0,a0
   10ab0:	00068613          	mv	a2,a3
   10ab4:	00070513          	mv	a0,a4
   10ab8:	f001ae23          	sw	zero,-228(gp) # 237dc <errno>
   10abc:	00112623          	sw	ra,12(sp)
   10ac0:	4080b0ef          	jal	1bec8 <_write>
   10ac4:	fff00793          	li	a5,-1
   10ac8:	00f50a63          	beq	a0,a5,10adc <_write_r+0x40>
   10acc:	00c12083          	lw	ra,12(sp)
   10ad0:	00812403          	lw	s0,8(sp)
   10ad4:	01010113          	add	sp,sp,16
   10ad8:	00008067          	ret
   10adc:	f1c1a783          	lw	a5,-228(gp) # 237dc <errno>
   10ae0:	fe0786e3          	beqz	a5,10acc <_write_r+0x30>
   10ae4:	00c12083          	lw	ra,12(sp)
   10ae8:	00f42023          	sw	a5,0(s0)
   10aec:	00812403          	lw	s0,8(sp)
   10af0:	01010113          	add	sp,sp,16
   10af4:	00008067          	ret

00010af8 <__libc_init_array>:
   10af8:	ff010113          	add	sp,sp,-16
   10afc:	00812423          	sw	s0,8(sp)
   10b00:	01212023          	sw	s2,0(sp)
   10b04:	00012797          	auipc	a5,0x12
   10b08:	5b078793          	add	a5,a5,1456 # 230b4 <__init_array_start>
   10b0c:	00012417          	auipc	s0,0x12
   10b10:	5a840413          	add	s0,s0,1448 # 230b4 <__init_array_start>
   10b14:	00112623          	sw	ra,12(sp)
   10b18:	00912223          	sw	s1,4(sp)
   10b1c:	40878933          	sub	s2,a5,s0
   10b20:	02878063          	beq	a5,s0,10b40 <__libc_init_array+0x48>
   10b24:	40295913          	sra	s2,s2,0x2
   10b28:	00000493          	li	s1,0
   10b2c:	00042783          	lw	a5,0(s0)
   10b30:	00148493          	add	s1,s1,1
   10b34:	00440413          	add	s0,s0,4
   10b38:	000780e7          	jalr	a5
   10b3c:	ff24e8e3          	bltu	s1,s2,10b2c <__libc_init_array+0x34>
   10b40:	00012797          	auipc	a5,0x12
   10b44:	57c78793          	add	a5,a5,1404 # 230bc <__do_global_dtors_aux_fini_array_entry>
   10b48:	00012417          	auipc	s0,0x12
   10b4c:	56c40413          	add	s0,s0,1388 # 230b4 <__init_array_start>
   10b50:	40878933          	sub	s2,a5,s0
   10b54:	40295913          	sra	s2,s2,0x2
   10b58:	00878e63          	beq	a5,s0,10b74 <__libc_init_array+0x7c>
   10b5c:	00000493          	li	s1,0
   10b60:	00042783          	lw	a5,0(s0)
   10b64:	00148493          	add	s1,s1,1
   10b68:	00440413          	add	s0,s0,4
   10b6c:	000780e7          	jalr	a5
   10b70:	ff24e8e3          	bltu	s1,s2,10b60 <__libc_init_array+0x68>
   10b74:	00c12083          	lw	ra,12(sp)
   10b78:	00812403          	lw	s0,8(sp)
   10b7c:	00412483          	lw	s1,4(sp)
   10b80:	00012903          	lw	s2,0(sp)
   10b84:	01010113          	add	sp,sp,16
   10b88:	00008067          	ret

00010b8c <memset>:
   10b8c:	00f00313          	li	t1,15
   10b90:	00050713          	mv	a4,a0
   10b94:	02c37e63          	bgeu	t1,a2,10bd0 <memset+0x44>
   10b98:	00f77793          	and	a5,a4,15
   10b9c:	0a079063          	bnez	a5,10c3c <memset+0xb0>
   10ba0:	08059263          	bnez	a1,10c24 <memset+0x98>
   10ba4:	ff067693          	and	a3,a2,-16
   10ba8:	00f67613          	and	a2,a2,15
   10bac:	00e686b3          	add	a3,a3,a4
   10bb0:	00b72023          	sw	a1,0(a4)
   10bb4:	00b72223          	sw	a1,4(a4)
   10bb8:	00b72423          	sw	a1,8(a4)
   10bbc:	00b72623          	sw	a1,12(a4)
   10bc0:	01070713          	add	a4,a4,16
   10bc4:	fed766e3          	bltu	a4,a3,10bb0 <memset+0x24>
   10bc8:	00061463          	bnez	a2,10bd0 <memset+0x44>
   10bcc:	00008067          	ret
   10bd0:	40c306b3          	sub	a3,t1,a2
   10bd4:	00269693          	sll	a3,a3,0x2
   10bd8:	00000297          	auipc	t0,0x0
   10bdc:	005686b3          	add	a3,a3,t0
   10be0:	00c68067          	jr	12(a3)
   10be4:	00b70723          	sb	a1,14(a4)
   10be8:	00b706a3          	sb	a1,13(a4)
   10bec:	00b70623          	sb	a1,12(a4)
   10bf0:	00b705a3          	sb	a1,11(a4)
   10bf4:	00b70523          	sb	a1,10(a4)
   10bf8:	00b704a3          	sb	a1,9(a4)
   10bfc:	00b70423          	sb	a1,8(a4)
   10c00:	00b703a3          	sb	a1,7(a4)
   10c04:	00b70323          	sb	a1,6(a4)
   10c08:	00b702a3          	sb	a1,5(a4)
   10c0c:	00b70223          	sb	a1,4(a4)
   10c10:	00b701a3          	sb	a1,3(a4)
   10c14:	00b70123          	sb	a1,2(a4)
   10c18:	00b700a3          	sb	a1,1(a4)
   10c1c:	00b70023          	sb	a1,0(a4)
   10c20:	00008067          	ret
   10c24:	0ff5f593          	zext.b	a1,a1
   10c28:	00859693          	sll	a3,a1,0x8
   10c2c:	00d5e5b3          	or	a1,a1,a3
   10c30:	01059693          	sll	a3,a1,0x10
   10c34:	00d5e5b3          	or	a1,a1,a3
   10c38:	f6dff06f          	j	10ba4 <memset+0x18>
   10c3c:	00279693          	sll	a3,a5,0x2
   10c40:	00000297          	auipc	t0,0x0
   10c44:	005686b3          	add	a3,a3,t0
   10c48:	00008293          	mv	t0,ra
   10c4c:	fa0680e7          	jalr	-96(a3)
   10c50:	00028093          	mv	ra,t0
   10c54:	ff078793          	add	a5,a5,-16
   10c58:	40f70733          	sub	a4,a4,a5
   10c5c:	00f60633          	add	a2,a2,a5
   10c60:	f6c378e3          	bgeu	t1,a2,10bd0 <memset+0x44>
   10c64:	f3dff06f          	j	10ba0 <memset+0x14>

00010c68 <__call_exitprocs>:
   10c68:	fd010113          	add	sp,sp,-48
   10c6c:	01412c23          	sw	s4,24(sp)
   10c70:	f2018a13          	add	s4,gp,-224 # 237e0 <__atexit>
   10c74:	03212023          	sw	s2,32(sp)
   10c78:	000a2903          	lw	s2,0(s4)
   10c7c:	02112623          	sw	ra,44(sp)
   10c80:	0a090863          	beqz	s2,10d30 <__call_exitprocs+0xc8>
   10c84:	01312e23          	sw	s3,28(sp)
   10c88:	01512a23          	sw	s5,20(sp)
   10c8c:	01612823          	sw	s6,16(sp)
   10c90:	01712623          	sw	s7,12(sp)
   10c94:	02812423          	sw	s0,40(sp)
   10c98:	02912223          	sw	s1,36(sp)
   10c9c:	01812423          	sw	s8,8(sp)
   10ca0:	00050b13          	mv	s6,a0
   10ca4:	00058b93          	mv	s7,a1
   10ca8:	fff00993          	li	s3,-1
   10cac:	00100a93          	li	s5,1
   10cb0:	00492483          	lw	s1,4(s2)
   10cb4:	fff48413          	add	s0,s1,-1
   10cb8:	04044e63          	bltz	s0,10d14 <__call_exitprocs+0xac>
   10cbc:	00249493          	sll	s1,s1,0x2
   10cc0:	009904b3          	add	s1,s2,s1
   10cc4:	080b9063          	bnez	s7,10d44 <__call_exitprocs+0xdc>
   10cc8:	00492783          	lw	a5,4(s2)
   10ccc:	0044a683          	lw	a3,4(s1)
   10cd0:	fff78793          	add	a5,a5,-1
   10cd4:	0a878c63          	beq	a5,s0,10d8c <__call_exitprocs+0x124>
   10cd8:	0004a223          	sw	zero,4(s1)
   10cdc:	02068663          	beqz	a3,10d08 <__call_exitprocs+0xa0>
   10ce0:	18892783          	lw	a5,392(s2)
   10ce4:	008a9733          	sll	a4,s5,s0
   10ce8:	00492c03          	lw	s8,4(s2)
   10cec:	00f777b3          	and	a5,a4,a5
   10cf0:	06079663          	bnez	a5,10d5c <__call_exitprocs+0xf4>
   10cf4:	000680e7          	jalr	a3
   10cf8:	00492703          	lw	a4,4(s2)
   10cfc:	000a2783          	lw	a5,0(s4)
   10d00:	09871063          	bne	a4,s8,10d80 <__call_exitprocs+0x118>
   10d04:	07279e63          	bne	a5,s2,10d80 <__call_exitprocs+0x118>
   10d08:	fff40413          	add	s0,s0,-1
   10d0c:	ffc48493          	add	s1,s1,-4
   10d10:	fb341ae3          	bne	s0,s3,10cc4 <__call_exitprocs+0x5c>
   10d14:	02812403          	lw	s0,40(sp)
   10d18:	02412483          	lw	s1,36(sp)
   10d1c:	01c12983          	lw	s3,28(sp)
   10d20:	01412a83          	lw	s5,20(sp)
   10d24:	01012b03          	lw	s6,16(sp)
   10d28:	00c12b83          	lw	s7,12(sp)
   10d2c:	00812c03          	lw	s8,8(sp)
   10d30:	02c12083          	lw	ra,44(sp)
   10d34:	02012903          	lw	s2,32(sp)
   10d38:	01812a03          	lw	s4,24(sp)
   10d3c:	03010113          	add	sp,sp,48
   10d40:	00008067          	ret
   10d44:	1044a783          	lw	a5,260(s1)
   10d48:	f97780e3          	beq	a5,s7,10cc8 <__call_exitprocs+0x60>
   10d4c:	fff40413          	add	s0,s0,-1
   10d50:	ffc48493          	add	s1,s1,-4
   10d54:	ff3418e3          	bne	s0,s3,10d44 <__call_exitprocs+0xdc>
   10d58:	fbdff06f          	j	10d14 <__call_exitprocs+0xac>
   10d5c:	18c92783          	lw	a5,396(s2)
   10d60:	0844a583          	lw	a1,132(s1)
   10d64:	00f77733          	and	a4,a4,a5
   10d68:	02071663          	bnez	a4,10d94 <__call_exitprocs+0x12c>
   10d6c:	000b0513          	mv	a0,s6
   10d70:	000680e7          	jalr	a3
   10d74:	00492703          	lw	a4,4(s2)
   10d78:	000a2783          	lw	a5,0(s4)
   10d7c:	f98704e3          	beq	a4,s8,10d04 <__call_exitprocs+0x9c>
   10d80:	f8078ae3          	beqz	a5,10d14 <__call_exitprocs+0xac>
   10d84:	00078913          	mv	s2,a5
   10d88:	f29ff06f          	j	10cb0 <__call_exitprocs+0x48>
   10d8c:	00892223          	sw	s0,4(s2)
   10d90:	f4dff06f          	j	10cdc <__call_exitprocs+0x74>
   10d94:	00058513          	mv	a0,a1
   10d98:	000680e7          	jalr	a3
   10d9c:	f5dff06f          	j	10cf8 <__call_exitprocs+0x90>

00010da0 <atexit>:
   10da0:	00050593          	mv	a1,a0
   10da4:	00000693          	li	a3,0
   10da8:	00000613          	li	a2,0
   10dac:	00000513          	li	a0,0
   10db0:	0fc0606f          	j	16eac <__register_exitproc>

00010db4 <_malloc_trim_r>:
   10db4:	fe010113          	add	sp,sp,-32
   10db8:	00812c23          	sw	s0,24(sp)
   10dbc:	00912a23          	sw	s1,20(sp)
   10dc0:	01212823          	sw	s2,16(sp)
   10dc4:	01312623          	sw	s3,12(sp)
   10dc8:	01412423          	sw	s4,8(sp)
   10dcc:	00058993          	mv	s3,a1
   10dd0:	00112e23          	sw	ra,28(sp)
   10dd4:	00050913          	mv	s2,a0
   10dd8:	00012a17          	auipc	s4,0x12
   10ddc:	418a0a13          	add	s4,s4,1048 # 231f0 <__malloc_av_>
   10de0:	3d9000ef          	jal	119b8 <__malloc_lock>
   10de4:	008a2703          	lw	a4,8(s4)
   10de8:	000017b7          	lui	a5,0x1
   10dec:	fef78793          	add	a5,a5,-17 # fef <exit-0xf0a5>
   10df0:	00472483          	lw	s1,4(a4)
   10df4:	00001737          	lui	a4,0x1
   10df8:	ffc4f493          	and	s1,s1,-4
   10dfc:	00f48433          	add	s0,s1,a5
   10e00:	41340433          	sub	s0,s0,s3
   10e04:	00c45413          	srl	s0,s0,0xc
   10e08:	fff40413          	add	s0,s0,-1
   10e0c:	00c41413          	sll	s0,s0,0xc
   10e10:	00e44e63          	blt	s0,a4,10e2c <_malloc_trim_r+0x78>
   10e14:	00000593          	li	a1,0
   10e18:	00090513          	mv	a0,s2
   10e1c:	195050ef          	jal	167b0 <_sbrk_r>
   10e20:	008a2783          	lw	a5,8(s4)
   10e24:	009787b3          	add	a5,a5,s1
   10e28:	02f50863          	beq	a0,a5,10e58 <_malloc_trim_r+0xa4>
   10e2c:	00090513          	mv	a0,s2
   10e30:	38d000ef          	jal	119bc <__malloc_unlock>
   10e34:	01c12083          	lw	ra,28(sp)
   10e38:	01812403          	lw	s0,24(sp)
   10e3c:	01412483          	lw	s1,20(sp)
   10e40:	01012903          	lw	s2,16(sp)
   10e44:	00c12983          	lw	s3,12(sp)
   10e48:	00812a03          	lw	s4,8(sp)
   10e4c:	00000513          	li	a0,0
   10e50:	02010113          	add	sp,sp,32
   10e54:	00008067          	ret
   10e58:	408005b3          	neg	a1,s0
   10e5c:	00090513          	mv	a0,s2
   10e60:	151050ef          	jal	167b0 <_sbrk_r>
   10e64:	fff00793          	li	a5,-1
   10e68:	04f50863          	beq	a0,a5,10eb8 <_malloc_trim_r+0x104>
   10e6c:	09418713          	add	a4,gp,148 # 23954 <__malloc_current_mallinfo>
   10e70:	00072783          	lw	a5,0(a4) # 1000 <exit-0xf094>
   10e74:	008a2683          	lw	a3,8(s4)
   10e78:	408484b3          	sub	s1,s1,s0
   10e7c:	0014e493          	or	s1,s1,1
   10e80:	408787b3          	sub	a5,a5,s0
   10e84:	00090513          	mv	a0,s2
   10e88:	0096a223          	sw	s1,4(a3)
   10e8c:	00f72023          	sw	a5,0(a4)
   10e90:	32d000ef          	jal	119bc <__malloc_unlock>
   10e94:	01c12083          	lw	ra,28(sp)
   10e98:	01812403          	lw	s0,24(sp)
   10e9c:	01412483          	lw	s1,20(sp)
   10ea0:	01012903          	lw	s2,16(sp)
   10ea4:	00c12983          	lw	s3,12(sp)
   10ea8:	00812a03          	lw	s4,8(sp)
   10eac:	00100513          	li	a0,1
   10eb0:	02010113          	add	sp,sp,32
   10eb4:	00008067          	ret
   10eb8:	00000593          	li	a1,0
   10ebc:	00090513          	mv	a0,s2
   10ec0:	0f1050ef          	jal	167b0 <_sbrk_r>
   10ec4:	008a2703          	lw	a4,8(s4)
   10ec8:	00f00693          	li	a3,15
   10ecc:	40e507b3          	sub	a5,a0,a4
   10ed0:	f4f6dee3          	bge	a3,a5,10e2c <_malloc_trim_r+0x78>
   10ed4:	f101a683          	lw	a3,-240(gp) # 237d0 <__malloc_sbrk_base>
   10ed8:	40d50533          	sub	a0,a0,a3
   10edc:	0017e793          	or	a5,a5,1
   10ee0:	08a1aa23          	sw	a0,148(gp) # 23954 <__malloc_current_mallinfo>
   10ee4:	00f72223          	sw	a5,4(a4)
   10ee8:	f45ff06f          	j	10e2c <_malloc_trim_r+0x78>

00010eec <_free_r>:
   10eec:	18058263          	beqz	a1,11070 <_free_r+0x184>
   10ef0:	ff010113          	add	sp,sp,-16
   10ef4:	00812423          	sw	s0,8(sp)
   10ef8:	00912223          	sw	s1,4(sp)
   10efc:	00058413          	mv	s0,a1
   10f00:	00050493          	mv	s1,a0
   10f04:	00112623          	sw	ra,12(sp)
   10f08:	2b1000ef          	jal	119b8 <__malloc_lock>
   10f0c:	ffc42583          	lw	a1,-4(s0)
   10f10:	ff840713          	add	a4,s0,-8
   10f14:	00012517          	auipc	a0,0x12
   10f18:	2dc50513          	add	a0,a0,732 # 231f0 <__malloc_av_>
   10f1c:	ffe5f793          	and	a5,a1,-2
   10f20:	00f70633          	add	a2,a4,a5
   10f24:	00462683          	lw	a3,4(a2)
   10f28:	00852803          	lw	a6,8(a0)
   10f2c:	ffc6f693          	and	a3,a3,-4
   10f30:	1ac80263          	beq	a6,a2,110d4 <_free_r+0x1e8>
   10f34:	00d62223          	sw	a3,4(a2)
   10f38:	0015f593          	and	a1,a1,1
   10f3c:	00d60833          	add	a6,a2,a3
   10f40:	0a059063          	bnez	a1,10fe0 <_free_r+0xf4>
   10f44:	ff842303          	lw	t1,-8(s0)
   10f48:	00482583          	lw	a1,4(a6)
   10f4c:	00012897          	auipc	a7,0x12
   10f50:	2ac88893          	add	a7,a7,684 # 231f8 <__malloc_av_+0x8>
   10f54:	40670733          	sub	a4,a4,t1
   10f58:	00872803          	lw	a6,8(a4)
   10f5c:	006787b3          	add	a5,a5,t1
   10f60:	0015f593          	and	a1,a1,1
   10f64:	15180263          	beq	a6,a7,110a8 <_free_r+0x1bc>
   10f68:	00c72303          	lw	t1,12(a4)
   10f6c:	00682623          	sw	t1,12(a6)
   10f70:	01032423          	sw	a6,8(t1)
   10f74:	1a058663          	beqz	a1,11120 <_free_r+0x234>
   10f78:	0017e693          	or	a3,a5,1
   10f7c:	00d72223          	sw	a3,4(a4)
   10f80:	00f62023          	sw	a5,0(a2)
   10f84:	1ff00693          	li	a3,511
   10f88:	06f6ec63          	bltu	a3,a5,11000 <_free_r+0x114>
   10f8c:	ff87f693          	and	a3,a5,-8
   10f90:	00868693          	add	a3,a3,8
   10f94:	00452583          	lw	a1,4(a0)
   10f98:	00d506b3          	add	a3,a0,a3
   10f9c:	0006a603          	lw	a2,0(a3)
   10fa0:	0057d813          	srl	a6,a5,0x5
   10fa4:	00100793          	li	a5,1
   10fa8:	010797b3          	sll	a5,a5,a6
   10fac:	00b7e7b3          	or	a5,a5,a1
   10fb0:	ff868593          	add	a1,a3,-8
   10fb4:	00b72623          	sw	a1,12(a4)
   10fb8:	00c72423          	sw	a2,8(a4)
   10fbc:	00f52223          	sw	a5,4(a0)
   10fc0:	00e6a023          	sw	a4,0(a3)
   10fc4:	00e62623          	sw	a4,12(a2)
   10fc8:	00812403          	lw	s0,8(sp)
   10fcc:	00c12083          	lw	ra,12(sp)
   10fd0:	00048513          	mv	a0,s1
   10fd4:	00412483          	lw	s1,4(sp)
   10fd8:	01010113          	add	sp,sp,16
   10fdc:	1e10006f          	j	119bc <__malloc_unlock>
   10fe0:	00482583          	lw	a1,4(a6)
   10fe4:	0015f593          	and	a1,a1,1
   10fe8:	08058663          	beqz	a1,11074 <_free_r+0x188>
   10fec:	0017e693          	or	a3,a5,1
   10ff0:	fed42e23          	sw	a3,-4(s0)
   10ff4:	00f62023          	sw	a5,0(a2)
   10ff8:	1ff00693          	li	a3,511
   10ffc:	f8f6f8e3          	bgeu	a3,a5,10f8c <_free_r+0xa0>
   11000:	0097d693          	srl	a3,a5,0x9
   11004:	00400613          	li	a2,4
   11008:	12d66063          	bltu	a2,a3,11128 <_free_r+0x23c>
   1100c:	0067d693          	srl	a3,a5,0x6
   11010:	03968593          	add	a1,a3,57
   11014:	03868613          	add	a2,a3,56
   11018:	00359593          	sll	a1,a1,0x3
   1101c:	00b505b3          	add	a1,a0,a1
   11020:	0005a683          	lw	a3,0(a1)
   11024:	ff858593          	add	a1,a1,-8
   11028:	00d59863          	bne	a1,a3,11038 <_free_r+0x14c>
   1102c:	1540006f          	j	11180 <_free_r+0x294>
   11030:	0086a683          	lw	a3,8(a3)
   11034:	00d58863          	beq	a1,a3,11044 <_free_r+0x158>
   11038:	0046a603          	lw	a2,4(a3)
   1103c:	ffc67613          	and	a2,a2,-4
   11040:	fec7e8e3          	bltu	a5,a2,11030 <_free_r+0x144>
   11044:	00c6a583          	lw	a1,12(a3)
   11048:	00b72623          	sw	a1,12(a4)
   1104c:	00d72423          	sw	a3,8(a4)
   11050:	00812403          	lw	s0,8(sp)
   11054:	00c12083          	lw	ra,12(sp)
   11058:	00e5a423          	sw	a4,8(a1)
   1105c:	00048513          	mv	a0,s1
   11060:	00412483          	lw	s1,4(sp)
   11064:	00e6a623          	sw	a4,12(a3)
   11068:	01010113          	add	sp,sp,16
   1106c:	1510006f          	j	119bc <__malloc_unlock>
   11070:	00008067          	ret
   11074:	00d787b3          	add	a5,a5,a3
   11078:	00012897          	auipc	a7,0x12
   1107c:	18088893          	add	a7,a7,384 # 231f8 <__malloc_av_+0x8>
   11080:	00862683          	lw	a3,8(a2)
   11084:	0d168c63          	beq	a3,a7,1115c <_free_r+0x270>
   11088:	00c62803          	lw	a6,12(a2)
   1108c:	0017e593          	or	a1,a5,1
   11090:	00f70633          	add	a2,a4,a5
   11094:	0106a623          	sw	a6,12(a3)
   11098:	00d82423          	sw	a3,8(a6)
   1109c:	00b72223          	sw	a1,4(a4)
   110a0:	00f62023          	sw	a5,0(a2)
   110a4:	ee1ff06f          	j	10f84 <_free_r+0x98>
   110a8:	12059c63          	bnez	a1,111e0 <_free_r+0x2f4>
   110ac:	00862583          	lw	a1,8(a2)
   110b0:	00c62603          	lw	a2,12(a2)
   110b4:	00f686b3          	add	a3,a3,a5
   110b8:	0016e793          	or	a5,a3,1
   110bc:	00c5a623          	sw	a2,12(a1)
   110c0:	00b62423          	sw	a1,8(a2)
   110c4:	00f72223          	sw	a5,4(a4)
   110c8:	00d70733          	add	a4,a4,a3
   110cc:	00d72023          	sw	a3,0(a4)
   110d0:	ef9ff06f          	j	10fc8 <_free_r+0xdc>
   110d4:	0015f593          	and	a1,a1,1
   110d8:	00d786b3          	add	a3,a5,a3
   110dc:	02059063          	bnez	a1,110fc <_free_r+0x210>
   110e0:	ff842583          	lw	a1,-8(s0)
   110e4:	40b70733          	sub	a4,a4,a1
   110e8:	00c72783          	lw	a5,12(a4)
   110ec:	00872603          	lw	a2,8(a4)
   110f0:	00b686b3          	add	a3,a3,a1
   110f4:	00f62623          	sw	a5,12(a2)
   110f8:	00c7a423          	sw	a2,8(a5)
   110fc:	0016e793          	or	a5,a3,1
   11100:	00f72223          	sw	a5,4(a4)
   11104:	00e52423          	sw	a4,8(a0)
   11108:	f141a783          	lw	a5,-236(gp) # 237d4 <__malloc_trim_threshold>
   1110c:	eaf6eee3          	bltu	a3,a5,10fc8 <_free_r+0xdc>
   11110:	f2c1a583          	lw	a1,-212(gp) # 237ec <__malloc_top_pad>
   11114:	00048513          	mv	a0,s1
   11118:	c9dff0ef          	jal	10db4 <_malloc_trim_r>
   1111c:	eadff06f          	j	10fc8 <_free_r+0xdc>
   11120:	00d787b3          	add	a5,a5,a3
   11124:	f5dff06f          	j	11080 <_free_r+0x194>
   11128:	01400613          	li	a2,20
   1112c:	02d67063          	bgeu	a2,a3,1114c <_free_r+0x260>
   11130:	05400613          	li	a2,84
   11134:	06d66463          	bltu	a2,a3,1119c <_free_r+0x2b0>
   11138:	00c7d693          	srl	a3,a5,0xc
   1113c:	06f68593          	add	a1,a3,111
   11140:	06e68613          	add	a2,a3,110
   11144:	00359593          	sll	a1,a1,0x3
   11148:	ed5ff06f          	j	1101c <_free_r+0x130>
   1114c:	05c68593          	add	a1,a3,92
   11150:	05b68613          	add	a2,a3,91
   11154:	00359593          	sll	a1,a1,0x3
   11158:	ec5ff06f          	j	1101c <_free_r+0x130>
   1115c:	00e52a23          	sw	a4,20(a0)
   11160:	00e52823          	sw	a4,16(a0)
   11164:	0017e693          	or	a3,a5,1
   11168:	01172623          	sw	a7,12(a4)
   1116c:	01172423          	sw	a7,8(a4)
   11170:	00d72223          	sw	a3,4(a4)
   11174:	00f70733          	add	a4,a4,a5
   11178:	00f72023          	sw	a5,0(a4)
   1117c:	e4dff06f          	j	10fc8 <_free_r+0xdc>
   11180:	00452803          	lw	a6,4(a0)
   11184:	40265613          	sra	a2,a2,0x2
   11188:	00100793          	li	a5,1
   1118c:	00c797b3          	sll	a5,a5,a2
   11190:	0107e7b3          	or	a5,a5,a6
   11194:	00f52223          	sw	a5,4(a0)
   11198:	eb1ff06f          	j	11048 <_free_r+0x15c>
   1119c:	15400613          	li	a2,340
   111a0:	00d66c63          	bltu	a2,a3,111b8 <_free_r+0x2cc>
   111a4:	00f7d693          	srl	a3,a5,0xf
   111a8:	07868593          	add	a1,a3,120
   111ac:	07768613          	add	a2,a3,119
   111b0:	00359593          	sll	a1,a1,0x3
   111b4:	e69ff06f          	j	1101c <_free_r+0x130>
   111b8:	55400613          	li	a2,1364
   111bc:	00d66c63          	bltu	a2,a3,111d4 <_free_r+0x2e8>
   111c0:	0127d693          	srl	a3,a5,0x12
   111c4:	07d68593          	add	a1,a3,125
   111c8:	07c68613          	add	a2,a3,124
   111cc:	00359593          	sll	a1,a1,0x3
   111d0:	e4dff06f          	j	1101c <_free_r+0x130>
   111d4:	3f800593          	li	a1,1016
   111d8:	07e00613          	li	a2,126
   111dc:	e41ff06f          	j	1101c <_free_r+0x130>
   111e0:	0017e693          	or	a3,a5,1
   111e4:	00d72223          	sw	a3,4(a4)
   111e8:	00f62023          	sw	a5,0(a2)
   111ec:	dddff06f          	j	10fc8 <_free_r+0xdc>

000111f0 <_malloc_r>:
   111f0:	fd010113          	add	sp,sp,-48
   111f4:	03212023          	sw	s2,32(sp)
   111f8:	02112623          	sw	ra,44(sp)
   111fc:	02812423          	sw	s0,40(sp)
   11200:	02912223          	sw	s1,36(sp)
   11204:	01312e23          	sw	s3,28(sp)
   11208:	00b58793          	add	a5,a1,11
   1120c:	01600713          	li	a4,22
   11210:	00050913          	mv	s2,a0
   11214:	08f76263          	bltu	a4,a5,11298 <_malloc_r+0xa8>
   11218:	01000793          	li	a5,16
   1121c:	20b7e663          	bltu	a5,a1,11428 <_malloc_r+0x238>
   11220:	798000ef          	jal	119b8 <__malloc_lock>
   11224:	01800793          	li	a5,24
   11228:	00200593          	li	a1,2
   1122c:	01000493          	li	s1,16
   11230:	00012997          	auipc	s3,0x12
   11234:	fc098993          	add	s3,s3,-64 # 231f0 <__malloc_av_>
   11238:	00f987b3          	add	a5,s3,a5
   1123c:	0047a403          	lw	s0,4(a5)
   11240:	ff878713          	add	a4,a5,-8
   11244:	34e40a63          	beq	s0,a4,11598 <_malloc_r+0x3a8>
   11248:	00442783          	lw	a5,4(s0)
   1124c:	00c42683          	lw	a3,12(s0)
   11250:	00842603          	lw	a2,8(s0)
   11254:	ffc7f793          	and	a5,a5,-4
   11258:	00f407b3          	add	a5,s0,a5
   1125c:	0047a703          	lw	a4,4(a5)
   11260:	00d62623          	sw	a3,12(a2)
   11264:	00c6a423          	sw	a2,8(a3)
   11268:	00176713          	or	a4,a4,1
   1126c:	00090513          	mv	a0,s2
   11270:	00e7a223          	sw	a4,4(a5)
   11274:	748000ef          	jal	119bc <__malloc_unlock>
   11278:	00840513          	add	a0,s0,8
   1127c:	02c12083          	lw	ra,44(sp)
   11280:	02812403          	lw	s0,40(sp)
   11284:	02412483          	lw	s1,36(sp)
   11288:	02012903          	lw	s2,32(sp)
   1128c:	01c12983          	lw	s3,28(sp)
   11290:	03010113          	add	sp,sp,48
   11294:	00008067          	ret
   11298:	ff87f493          	and	s1,a5,-8
   1129c:	1807c663          	bltz	a5,11428 <_malloc_r+0x238>
   112a0:	18b4e463          	bltu	s1,a1,11428 <_malloc_r+0x238>
   112a4:	714000ef          	jal	119b8 <__malloc_lock>
   112a8:	1f700793          	li	a5,503
   112ac:	4097f063          	bgeu	a5,s1,116ac <_malloc_r+0x4bc>
   112b0:	0094d793          	srl	a5,s1,0x9
   112b4:	18078263          	beqz	a5,11438 <_malloc_r+0x248>
   112b8:	00400713          	li	a4,4
   112bc:	34f76663          	bltu	a4,a5,11608 <_malloc_r+0x418>
   112c0:	0064d793          	srl	a5,s1,0x6
   112c4:	03978593          	add	a1,a5,57
   112c8:	03878813          	add	a6,a5,56
   112cc:	00359613          	sll	a2,a1,0x3
   112d0:	00012997          	auipc	s3,0x12
   112d4:	f2098993          	add	s3,s3,-224 # 231f0 <__malloc_av_>
   112d8:	00c98633          	add	a2,s3,a2
   112dc:	00462403          	lw	s0,4(a2)
   112e0:	ff860613          	add	a2,a2,-8
   112e4:	02860863          	beq	a2,s0,11314 <_malloc_r+0x124>
   112e8:	00f00513          	li	a0,15
   112ec:	0140006f          	j	11300 <_malloc_r+0x110>
   112f0:	00c42683          	lw	a3,12(s0)
   112f4:	28075e63          	bgez	a4,11590 <_malloc_r+0x3a0>
   112f8:	00d60e63          	beq	a2,a3,11314 <_malloc_r+0x124>
   112fc:	00068413          	mv	s0,a3
   11300:	00442783          	lw	a5,4(s0)
   11304:	ffc7f793          	and	a5,a5,-4
   11308:	40978733          	sub	a4,a5,s1
   1130c:	fee552e3          	bge	a0,a4,112f0 <_malloc_r+0x100>
   11310:	00080593          	mv	a1,a6
   11314:	0109a403          	lw	s0,16(s3)
   11318:	00012897          	auipc	a7,0x12
   1131c:	ee088893          	add	a7,a7,-288 # 231f8 <__malloc_av_+0x8>
   11320:	27140463          	beq	s0,a7,11588 <_malloc_r+0x398>
   11324:	00442783          	lw	a5,4(s0)
   11328:	00f00693          	li	a3,15
   1132c:	ffc7f793          	and	a5,a5,-4
   11330:	40978733          	sub	a4,a5,s1
   11334:	38e6c263          	blt	a3,a4,116b8 <_malloc_r+0x4c8>
   11338:	0119aa23          	sw	a7,20(s3)
   1133c:	0119a823          	sw	a7,16(s3)
   11340:	34075663          	bgez	a4,1168c <_malloc_r+0x49c>
   11344:	1ff00713          	li	a4,511
   11348:	0049a503          	lw	a0,4(s3)
   1134c:	24f76e63          	bltu	a4,a5,115a8 <_malloc_r+0x3b8>
   11350:	ff87f713          	and	a4,a5,-8
   11354:	00870713          	add	a4,a4,8
   11358:	00e98733          	add	a4,s3,a4
   1135c:	00072683          	lw	a3,0(a4)
   11360:	0057d613          	srl	a2,a5,0x5
   11364:	00100793          	li	a5,1
   11368:	00c797b3          	sll	a5,a5,a2
   1136c:	00f56533          	or	a0,a0,a5
   11370:	ff870793          	add	a5,a4,-8
   11374:	00f42623          	sw	a5,12(s0)
   11378:	00d42423          	sw	a3,8(s0)
   1137c:	00a9a223          	sw	a0,4(s3)
   11380:	00872023          	sw	s0,0(a4)
   11384:	0086a623          	sw	s0,12(a3)
   11388:	4025d793          	sra	a5,a1,0x2
   1138c:	00100613          	li	a2,1
   11390:	00f61633          	sll	a2,a2,a5
   11394:	0ac56a63          	bltu	a0,a2,11448 <_malloc_r+0x258>
   11398:	00a677b3          	and	a5,a2,a0
   1139c:	02079463          	bnez	a5,113c4 <_malloc_r+0x1d4>
   113a0:	00161613          	sll	a2,a2,0x1
   113a4:	ffc5f593          	and	a1,a1,-4
   113a8:	00a677b3          	and	a5,a2,a0
   113ac:	00458593          	add	a1,a1,4
   113b0:	00079a63          	bnez	a5,113c4 <_malloc_r+0x1d4>
   113b4:	00161613          	sll	a2,a2,0x1
   113b8:	00a677b3          	and	a5,a2,a0
   113bc:	00458593          	add	a1,a1,4
   113c0:	fe078ae3          	beqz	a5,113b4 <_malloc_r+0x1c4>
   113c4:	00f00813          	li	a6,15
   113c8:	00359313          	sll	t1,a1,0x3
   113cc:	00698333          	add	t1,s3,t1
   113d0:	00030513          	mv	a0,t1
   113d4:	00c52783          	lw	a5,12(a0)
   113d8:	00058e13          	mv	t3,a1
   113dc:	24f50863          	beq	a0,a5,1162c <_malloc_r+0x43c>
   113e0:	0047a703          	lw	a4,4(a5)
   113e4:	00078413          	mv	s0,a5
   113e8:	00c7a783          	lw	a5,12(a5)
   113ec:	ffc77713          	and	a4,a4,-4
   113f0:	409706b3          	sub	a3,a4,s1
   113f4:	24d84863          	blt	a6,a3,11644 <_malloc_r+0x454>
   113f8:	fe06c2e3          	bltz	a3,113dc <_malloc_r+0x1ec>
   113fc:	00e40733          	add	a4,s0,a4
   11400:	00472683          	lw	a3,4(a4)
   11404:	00842603          	lw	a2,8(s0)
   11408:	00090513          	mv	a0,s2
   1140c:	0016e693          	or	a3,a3,1
   11410:	00d72223          	sw	a3,4(a4)
   11414:	00f62623          	sw	a5,12(a2)
   11418:	00c7a423          	sw	a2,8(a5)
   1141c:	5a0000ef          	jal	119bc <__malloc_unlock>
   11420:	00840513          	add	a0,s0,8
   11424:	e59ff06f          	j	1127c <_malloc_r+0x8c>
   11428:	00c00793          	li	a5,12
   1142c:	00f92023          	sw	a5,0(s2)
   11430:	00000513          	li	a0,0
   11434:	e49ff06f          	j	1127c <_malloc_r+0x8c>
   11438:	20000613          	li	a2,512
   1143c:	04000593          	li	a1,64
   11440:	03f00813          	li	a6,63
   11444:	e8dff06f          	j	112d0 <_malloc_r+0xe0>
   11448:	0089a403          	lw	s0,8(s3)
   1144c:	01612823          	sw	s6,16(sp)
   11450:	00442783          	lw	a5,4(s0)
   11454:	ffc7fb13          	and	s6,a5,-4
   11458:	009b6863          	bltu	s6,s1,11468 <_malloc_r+0x278>
   1145c:	409b0733          	sub	a4,s6,s1
   11460:	00f00793          	li	a5,15
   11464:	0ee7c063          	blt	a5,a4,11544 <_malloc_r+0x354>
   11468:	01912223          	sw	s9,4(sp)
   1146c:	f1018c93          	add	s9,gp,-240 # 237d0 <__malloc_sbrk_base>
   11470:	000ca703          	lw	a4,0(s9)
   11474:	01412c23          	sw	s4,24(sp)
   11478:	01512a23          	sw	s5,20(sp)
   1147c:	01712623          	sw	s7,12(sp)
   11480:	f2c1aa83          	lw	s5,-212(gp) # 237ec <__malloc_top_pad>
   11484:	fff00793          	li	a5,-1
   11488:	01640a33          	add	s4,s0,s6
   1148c:	01548ab3          	add	s5,s1,s5
   11490:	3cf70a63          	beq	a4,a5,11864 <_malloc_r+0x674>
   11494:	000017b7          	lui	a5,0x1
   11498:	00f78793          	add	a5,a5,15 # 100f <exit-0xf085>
   1149c:	00fa8ab3          	add	s5,s5,a5
   114a0:	fffff7b7          	lui	a5,0xfffff
   114a4:	00fafab3          	and	s5,s5,a5
   114a8:	000a8593          	mv	a1,s5
   114ac:	00090513          	mv	a0,s2
   114b0:	300050ef          	jal	167b0 <_sbrk_r>
   114b4:	fff00793          	li	a5,-1
   114b8:	00050b93          	mv	s7,a0
   114bc:	44f50e63          	beq	a0,a5,11918 <_malloc_r+0x728>
   114c0:	01812423          	sw	s8,8(sp)
   114c4:	25456263          	bltu	a0,s4,11708 <_malloc_r+0x518>
   114c8:	09418c13          	add	s8,gp,148 # 23954 <__malloc_current_mallinfo>
   114cc:	000c2583          	lw	a1,0(s8)
   114d0:	00ba85b3          	add	a1,s5,a1
   114d4:	00bc2023          	sw	a1,0(s8)
   114d8:	00058713          	mv	a4,a1
   114dc:	2aaa1a63          	bne	s4,a0,11790 <_malloc_r+0x5a0>
   114e0:	01451793          	sll	a5,a0,0x14
   114e4:	2a079663          	bnez	a5,11790 <_malloc_r+0x5a0>
   114e8:	0089ab83          	lw	s7,8(s3)
   114ec:	015b07b3          	add	a5,s6,s5
   114f0:	0017e793          	or	a5,a5,1
   114f4:	00fba223          	sw	a5,4(s7)
   114f8:	f2818713          	add	a4,gp,-216 # 237e8 <__malloc_max_sbrked_mem>
   114fc:	00072683          	lw	a3,0(a4)
   11500:	00b6f463          	bgeu	a3,a1,11508 <_malloc_r+0x318>
   11504:	00b72023          	sw	a1,0(a4)
   11508:	f2418713          	add	a4,gp,-220 # 237e4 <__malloc_max_total_mem>
   1150c:	00072683          	lw	a3,0(a4)
   11510:	00b6f463          	bgeu	a3,a1,11518 <_malloc_r+0x328>
   11514:	00b72023          	sw	a1,0(a4)
   11518:	00812c03          	lw	s8,8(sp)
   1151c:	000b8413          	mv	s0,s7
   11520:	ffc7f793          	and	a5,a5,-4
   11524:	40978733          	sub	a4,a5,s1
   11528:	3897ea63          	bltu	a5,s1,118bc <_malloc_r+0x6cc>
   1152c:	00f00793          	li	a5,15
   11530:	38e7d663          	bge	a5,a4,118bc <_malloc_r+0x6cc>
   11534:	01812a03          	lw	s4,24(sp)
   11538:	01412a83          	lw	s5,20(sp)
   1153c:	00c12b83          	lw	s7,12(sp)
   11540:	00412c83          	lw	s9,4(sp)
   11544:	0014e793          	or	a5,s1,1
   11548:	00f42223          	sw	a5,4(s0)
   1154c:	009404b3          	add	s1,s0,s1
   11550:	0099a423          	sw	s1,8(s3)
   11554:	00176713          	or	a4,a4,1
   11558:	00090513          	mv	a0,s2
   1155c:	00e4a223          	sw	a4,4(s1)
   11560:	45c000ef          	jal	119bc <__malloc_unlock>
   11564:	02c12083          	lw	ra,44(sp)
   11568:	00840513          	add	a0,s0,8
   1156c:	02812403          	lw	s0,40(sp)
   11570:	01012b03          	lw	s6,16(sp)
   11574:	02412483          	lw	s1,36(sp)
   11578:	02012903          	lw	s2,32(sp)
   1157c:	01c12983          	lw	s3,28(sp)
   11580:	03010113          	add	sp,sp,48
   11584:	00008067          	ret
   11588:	0049a503          	lw	a0,4(s3)
   1158c:	dfdff06f          	j	11388 <_malloc_r+0x198>
   11590:	00842603          	lw	a2,8(s0)
   11594:	cc5ff06f          	j	11258 <_malloc_r+0x68>
   11598:	00c7a403          	lw	s0,12(a5) # fffff00c <__BSS_END__+0xfffdb4ec>
   1159c:	00258593          	add	a1,a1,2
   115a0:	d6878ae3          	beq	a5,s0,11314 <_malloc_r+0x124>
   115a4:	ca5ff06f          	j	11248 <_malloc_r+0x58>
   115a8:	0097d713          	srl	a4,a5,0x9
   115ac:	00400693          	li	a3,4
   115b0:	14e6f263          	bgeu	a3,a4,116f4 <_malloc_r+0x504>
   115b4:	01400693          	li	a3,20
   115b8:	32e6e463          	bltu	a3,a4,118e0 <_malloc_r+0x6f0>
   115bc:	05c70613          	add	a2,a4,92
   115c0:	05b70693          	add	a3,a4,91
   115c4:	00361613          	sll	a2,a2,0x3
   115c8:	00c98633          	add	a2,s3,a2
   115cc:	00062703          	lw	a4,0(a2)
   115d0:	ff860613          	add	a2,a2,-8
   115d4:	00e61863          	bne	a2,a4,115e4 <_malloc_r+0x3f4>
   115d8:	2940006f          	j	1186c <_malloc_r+0x67c>
   115dc:	00872703          	lw	a4,8(a4)
   115e0:	00e60863          	beq	a2,a4,115f0 <_malloc_r+0x400>
   115e4:	00472683          	lw	a3,4(a4)
   115e8:	ffc6f693          	and	a3,a3,-4
   115ec:	fed7e8e3          	bltu	a5,a3,115dc <_malloc_r+0x3ec>
   115f0:	00c72603          	lw	a2,12(a4)
   115f4:	00c42623          	sw	a2,12(s0)
   115f8:	00e42423          	sw	a4,8(s0)
   115fc:	00862423          	sw	s0,8(a2)
   11600:	00872623          	sw	s0,12(a4)
   11604:	d85ff06f          	j	11388 <_malloc_r+0x198>
   11608:	01400713          	li	a4,20
   1160c:	10f77863          	bgeu	a4,a5,1171c <_malloc_r+0x52c>
   11610:	05400713          	li	a4,84
   11614:	2ef76463          	bltu	a4,a5,118fc <_malloc_r+0x70c>
   11618:	00c4d793          	srl	a5,s1,0xc
   1161c:	06f78593          	add	a1,a5,111
   11620:	06e78813          	add	a6,a5,110
   11624:	00359613          	sll	a2,a1,0x3
   11628:	ca9ff06f          	j	112d0 <_malloc_r+0xe0>
   1162c:	001e0e13          	add	t3,t3,1
   11630:	003e7793          	and	a5,t3,3
   11634:	00850513          	add	a0,a0,8
   11638:	10078063          	beqz	a5,11738 <_malloc_r+0x548>
   1163c:	00c52783          	lw	a5,12(a0)
   11640:	d9dff06f          	j	113dc <_malloc_r+0x1ec>
   11644:	00842603          	lw	a2,8(s0)
   11648:	0014e593          	or	a1,s1,1
   1164c:	00b42223          	sw	a1,4(s0)
   11650:	00f62623          	sw	a5,12(a2)
   11654:	00c7a423          	sw	a2,8(a5)
   11658:	009404b3          	add	s1,s0,s1
   1165c:	0099aa23          	sw	s1,20(s3)
   11660:	0099a823          	sw	s1,16(s3)
   11664:	0016e793          	or	a5,a3,1
   11668:	0114a623          	sw	a7,12(s1)
   1166c:	0114a423          	sw	a7,8(s1)
   11670:	00f4a223          	sw	a5,4(s1)
   11674:	00e40733          	add	a4,s0,a4
   11678:	00090513          	mv	a0,s2
   1167c:	00d72023          	sw	a3,0(a4)
   11680:	33c000ef          	jal	119bc <__malloc_unlock>
   11684:	00840513          	add	a0,s0,8
   11688:	bf5ff06f          	j	1127c <_malloc_r+0x8c>
   1168c:	00f407b3          	add	a5,s0,a5
   11690:	0047a703          	lw	a4,4(a5)
   11694:	00090513          	mv	a0,s2
   11698:	00176713          	or	a4,a4,1
   1169c:	00e7a223          	sw	a4,4(a5)
   116a0:	31c000ef          	jal	119bc <__malloc_unlock>
   116a4:	00840513          	add	a0,s0,8
   116a8:	bd5ff06f          	j	1127c <_malloc_r+0x8c>
   116ac:	0034d593          	srl	a1,s1,0x3
   116b0:	00848793          	add	a5,s1,8
   116b4:	b7dff06f          	j	11230 <_malloc_r+0x40>
   116b8:	0014e693          	or	a3,s1,1
   116bc:	00d42223          	sw	a3,4(s0)
   116c0:	009404b3          	add	s1,s0,s1
   116c4:	0099aa23          	sw	s1,20(s3)
   116c8:	0099a823          	sw	s1,16(s3)
   116cc:	00176693          	or	a3,a4,1
   116d0:	0114a623          	sw	a7,12(s1)
   116d4:	0114a423          	sw	a7,8(s1)
   116d8:	00d4a223          	sw	a3,4(s1)
   116dc:	00f407b3          	add	a5,s0,a5
   116e0:	00090513          	mv	a0,s2
   116e4:	00e7a023          	sw	a4,0(a5)
   116e8:	2d4000ef          	jal	119bc <__malloc_unlock>
   116ec:	00840513          	add	a0,s0,8
   116f0:	b8dff06f          	j	1127c <_malloc_r+0x8c>
   116f4:	0067d713          	srl	a4,a5,0x6
   116f8:	03970613          	add	a2,a4,57
   116fc:	03870693          	add	a3,a4,56
   11700:	00361613          	sll	a2,a2,0x3
   11704:	ec5ff06f          	j	115c8 <_malloc_r+0x3d8>
   11708:	07340c63          	beq	s0,s3,11780 <_malloc_r+0x590>
   1170c:	0089a403          	lw	s0,8(s3)
   11710:	00812c03          	lw	s8,8(sp)
   11714:	00442783          	lw	a5,4(s0)
   11718:	e09ff06f          	j	11520 <_malloc_r+0x330>
   1171c:	05c78593          	add	a1,a5,92
   11720:	05b78813          	add	a6,a5,91
   11724:	00359613          	sll	a2,a1,0x3
   11728:	ba9ff06f          	j	112d0 <_malloc_r+0xe0>
   1172c:	00832783          	lw	a5,8(t1)
   11730:	fff58593          	add	a1,a1,-1
   11734:	26679e63          	bne	a5,t1,119b0 <_malloc_r+0x7c0>
   11738:	0035f793          	and	a5,a1,3
   1173c:	ff830313          	add	t1,t1,-8
   11740:	fe0796e3          	bnez	a5,1172c <_malloc_r+0x53c>
   11744:	0049a703          	lw	a4,4(s3)
   11748:	fff64793          	not	a5,a2
   1174c:	00e7f7b3          	and	a5,a5,a4
   11750:	00f9a223          	sw	a5,4(s3)
   11754:	00161613          	sll	a2,a2,0x1
   11758:	cec7e8e3          	bltu	a5,a2,11448 <_malloc_r+0x258>
   1175c:	ce0606e3          	beqz	a2,11448 <_malloc_r+0x258>
   11760:	00f67733          	and	a4,a2,a5
   11764:	00071a63          	bnez	a4,11778 <_malloc_r+0x588>
   11768:	00161613          	sll	a2,a2,0x1
   1176c:	00f67733          	and	a4,a2,a5
   11770:	004e0e13          	add	t3,t3,4
   11774:	fe070ae3          	beqz	a4,11768 <_malloc_r+0x578>
   11778:	000e0593          	mv	a1,t3
   1177c:	c4dff06f          	j	113c8 <_malloc_r+0x1d8>
   11780:	09418c13          	add	s8,gp,148 # 23954 <__malloc_current_mallinfo>
   11784:	000c2703          	lw	a4,0(s8)
   11788:	00ea8733          	add	a4,s5,a4
   1178c:	00ec2023          	sw	a4,0(s8)
   11790:	000ca683          	lw	a3,0(s9)
   11794:	fff00793          	li	a5,-1
   11798:	18f68663          	beq	a3,a5,11924 <_malloc_r+0x734>
   1179c:	414b87b3          	sub	a5,s7,s4
   117a0:	00e787b3          	add	a5,a5,a4
   117a4:	00fc2023          	sw	a5,0(s8)
   117a8:	007bfc93          	and	s9,s7,7
   117ac:	0c0c8c63          	beqz	s9,11884 <_malloc_r+0x694>
   117b0:	419b8bb3          	sub	s7,s7,s9
   117b4:	000017b7          	lui	a5,0x1
   117b8:	00878793          	add	a5,a5,8 # 1008 <exit-0xf08c>
   117bc:	008b8b93          	add	s7,s7,8
   117c0:	419785b3          	sub	a1,a5,s9
   117c4:	015b8ab3          	add	s5,s7,s5
   117c8:	415585b3          	sub	a1,a1,s5
   117cc:	01459593          	sll	a1,a1,0x14
   117d0:	0145da13          	srl	s4,a1,0x14
   117d4:	000a0593          	mv	a1,s4
   117d8:	00090513          	mv	a0,s2
   117dc:	7d5040ef          	jal	167b0 <_sbrk_r>
   117e0:	fff00793          	li	a5,-1
   117e4:	18f50063          	beq	a0,a5,11964 <_malloc_r+0x774>
   117e8:	41750533          	sub	a0,a0,s7
   117ec:	01450ab3          	add	s5,a0,s4
   117f0:	000c2703          	lw	a4,0(s8)
   117f4:	0179a423          	sw	s7,8(s3)
   117f8:	001ae793          	or	a5,s5,1
   117fc:	00ea05b3          	add	a1,s4,a4
   11800:	00bc2023          	sw	a1,0(s8)
   11804:	00fba223          	sw	a5,4(s7)
   11808:	cf3408e3          	beq	s0,s3,114f8 <_malloc_r+0x308>
   1180c:	00f00693          	li	a3,15
   11810:	0b66f063          	bgeu	a3,s6,118b0 <_malloc_r+0x6c0>
   11814:	00442703          	lw	a4,4(s0)
   11818:	ff4b0793          	add	a5,s6,-12
   1181c:	ff87f793          	and	a5,a5,-8
   11820:	00177713          	and	a4,a4,1
   11824:	00f76733          	or	a4,a4,a5
   11828:	00e42223          	sw	a4,4(s0)
   1182c:	00500613          	li	a2,5
   11830:	00f40733          	add	a4,s0,a5
   11834:	00c72223          	sw	a2,4(a4)
   11838:	00c72423          	sw	a2,8(a4)
   1183c:	00f6e663          	bltu	a3,a5,11848 <_malloc_r+0x658>
   11840:	004ba783          	lw	a5,4(s7)
   11844:	cb5ff06f          	j	114f8 <_malloc_r+0x308>
   11848:	00840593          	add	a1,s0,8
   1184c:	00090513          	mv	a0,s2
   11850:	e9cff0ef          	jal	10eec <_free_r>
   11854:	0089ab83          	lw	s7,8(s3)
   11858:	000c2583          	lw	a1,0(s8)
   1185c:	004ba783          	lw	a5,4(s7)
   11860:	c99ff06f          	j	114f8 <_malloc_r+0x308>
   11864:	010a8a93          	add	s5,s5,16
   11868:	c41ff06f          	j	114a8 <_malloc_r+0x2b8>
   1186c:	4026d693          	sra	a3,a3,0x2
   11870:	00100793          	li	a5,1
   11874:	00d797b3          	sll	a5,a5,a3
   11878:	00f56533          	or	a0,a0,a5
   1187c:	00a9a223          	sw	a0,4(s3)
   11880:	d75ff06f          	j	115f4 <_malloc_r+0x404>
   11884:	015b85b3          	add	a1,s7,s5
   11888:	40b005b3          	neg	a1,a1
   1188c:	01459593          	sll	a1,a1,0x14
   11890:	0145da13          	srl	s4,a1,0x14
   11894:	000a0593          	mv	a1,s4
   11898:	00090513          	mv	a0,s2
   1189c:	715040ef          	jal	167b0 <_sbrk_r>
   118a0:	fff00793          	li	a5,-1
   118a4:	f4f512e3          	bne	a0,a5,117e8 <_malloc_r+0x5f8>
   118a8:	00000a13          	li	s4,0
   118ac:	f45ff06f          	j	117f0 <_malloc_r+0x600>
   118b0:	00812c03          	lw	s8,8(sp)
   118b4:	00100793          	li	a5,1
   118b8:	00fba223          	sw	a5,4(s7)
   118bc:	00090513          	mv	a0,s2
   118c0:	0fc000ef          	jal	119bc <__malloc_unlock>
   118c4:	00000513          	li	a0,0
   118c8:	01812a03          	lw	s4,24(sp)
   118cc:	01412a83          	lw	s5,20(sp)
   118d0:	01012b03          	lw	s6,16(sp)
   118d4:	00c12b83          	lw	s7,12(sp)
   118d8:	00412c83          	lw	s9,4(sp)
   118dc:	9a1ff06f          	j	1127c <_malloc_r+0x8c>
   118e0:	05400693          	li	a3,84
   118e4:	04e6e463          	bltu	a3,a4,1192c <_malloc_r+0x73c>
   118e8:	00c7d713          	srl	a4,a5,0xc
   118ec:	06f70613          	add	a2,a4,111
   118f0:	06e70693          	add	a3,a4,110
   118f4:	00361613          	sll	a2,a2,0x3
   118f8:	cd1ff06f          	j	115c8 <_malloc_r+0x3d8>
   118fc:	15400713          	li	a4,340
   11900:	04f76463          	bltu	a4,a5,11948 <_malloc_r+0x758>
   11904:	00f4d793          	srl	a5,s1,0xf
   11908:	07878593          	add	a1,a5,120
   1190c:	07778813          	add	a6,a5,119
   11910:	00359613          	sll	a2,a1,0x3
   11914:	9bdff06f          	j	112d0 <_malloc_r+0xe0>
   11918:	0089a403          	lw	s0,8(s3)
   1191c:	00442783          	lw	a5,4(s0)
   11920:	c01ff06f          	j	11520 <_malloc_r+0x330>
   11924:	017ca023          	sw	s7,0(s9)
   11928:	e81ff06f          	j	117a8 <_malloc_r+0x5b8>
   1192c:	15400693          	li	a3,340
   11930:	04e6e463          	bltu	a3,a4,11978 <_malloc_r+0x788>
   11934:	00f7d713          	srl	a4,a5,0xf
   11938:	07870613          	add	a2,a4,120
   1193c:	07770693          	add	a3,a4,119
   11940:	00361613          	sll	a2,a2,0x3
   11944:	c85ff06f          	j	115c8 <_malloc_r+0x3d8>
   11948:	55400713          	li	a4,1364
   1194c:	04f76463          	bltu	a4,a5,11994 <_malloc_r+0x7a4>
   11950:	0124d793          	srl	a5,s1,0x12
   11954:	07d78593          	add	a1,a5,125
   11958:	07c78813          	add	a6,a5,124
   1195c:	00359613          	sll	a2,a1,0x3
   11960:	971ff06f          	j	112d0 <_malloc_r+0xe0>
   11964:	ff8c8c93          	add	s9,s9,-8
   11968:	019a8ab3          	add	s5,s5,s9
   1196c:	417a8ab3          	sub	s5,s5,s7
   11970:	00000a13          	li	s4,0
   11974:	e7dff06f          	j	117f0 <_malloc_r+0x600>
   11978:	55400693          	li	a3,1364
   1197c:	02e6e463          	bltu	a3,a4,119a4 <_malloc_r+0x7b4>
   11980:	0127d713          	srl	a4,a5,0x12
   11984:	07d70613          	add	a2,a4,125
   11988:	07c70693          	add	a3,a4,124
   1198c:	00361613          	sll	a2,a2,0x3
   11990:	c39ff06f          	j	115c8 <_malloc_r+0x3d8>
   11994:	3f800613          	li	a2,1016
   11998:	07f00593          	li	a1,127
   1199c:	07e00813          	li	a6,126
   119a0:	931ff06f          	j	112d0 <_malloc_r+0xe0>
   119a4:	3f800613          	li	a2,1016
   119a8:	07e00693          	li	a3,126
   119ac:	c1dff06f          	j	115c8 <_malloc_r+0x3d8>
   119b0:	0049a783          	lw	a5,4(s3)
   119b4:	da1ff06f          	j	11754 <_malloc_r+0x564>

000119b8 <__malloc_lock>:
   119b8:	00008067          	ret

000119bc <__malloc_unlock>:
   119bc:	00008067          	ret

000119c0 <_vfprintf_r>:
   119c0:	e3010113          	add	sp,sp,-464
   119c4:	1c112623          	sw	ra,460(sp)
   119c8:	1c812423          	sw	s0,456(sp)
   119cc:	1c912223          	sw	s1,452(sp)
   119d0:	1d212023          	sw	s2,448(sp)
   119d4:	00058493          	mv	s1,a1
   119d8:	00060913          	mv	s2,a2
   119dc:	00d12623          	sw	a3,12(sp)
   119e0:	00050413          	mv	s0,a0
   119e4:	02a12023          	sw	a0,32(sp)
   119e8:	5b9040ef          	jal	167a0 <_localeconv_r>
   119ec:	00052703          	lw	a4,0(a0)
   119f0:	00070513          	mv	a0,a4
   119f4:	02e12423          	sw	a4,40(sp)
   119f8:	114050ef          	jal	16b0c <strlen>
   119fc:	02a12223          	sw	a0,36(sp)
   11a00:	0c012823          	sw	zero,208(sp)
   11a04:	0c012a23          	sw	zero,212(sp)
   11a08:	0c012c23          	sw	zero,216(sp)
   11a0c:	0c012e23          	sw	zero,220(sp)
   11a10:	00040863          	beqz	s0,11a20 <_vfprintf_r+0x60>
   11a14:	03442703          	lw	a4,52(s0)
   11a18:	00071463          	bnez	a4,11a20 <_vfprintf_r+0x60>
   11a1c:	1210106f          	j	1333c <_vfprintf_r+0x197c>
   11a20:	00c49703          	lh	a4,12(s1)
   11a24:	01271693          	sll	a3,a4,0x12
   11a28:	0206c663          	bltz	a3,11a54 <_vfprintf_r+0x94>
   11a2c:	0644a683          	lw	a3,100(s1)
   11a30:	000025b7          	lui	a1,0x2
   11a34:	ffffe637          	lui	a2,0xffffe
   11a38:	00b76733          	or	a4,a4,a1
   11a3c:	fff60613          	add	a2,a2,-1 # ffffdfff <__BSS_END__+0xfffda4df>
   11a40:	01071713          	sll	a4,a4,0x10
   11a44:	41075713          	sra	a4,a4,0x10
   11a48:	00c6f6b3          	and	a3,a3,a2
   11a4c:	00e49623          	sh	a4,12(s1)
   11a50:	06d4a223          	sw	a3,100(s1)
   11a54:	00877693          	and	a3,a4,8
   11a58:	30068063          	beqz	a3,11d58 <_vfprintf_r+0x398>
   11a5c:	0104a683          	lw	a3,16(s1)
   11a60:	2e068c63          	beqz	a3,11d58 <_vfprintf_r+0x398>
   11a64:	01a77713          	and	a4,a4,26
   11a68:	00a00693          	li	a3,10
   11a6c:	30d70863          	beq	a4,a3,11d7c <_vfprintf_r+0x3bc>
   11a70:	1b312e23          	sw	s3,444(sp)
   11a74:	1b412c23          	sw	s4,440(sp)
   11a78:	1b712623          	sw	s7,428(sp)
   11a7c:	1ba12023          	sw	s10,416(sp)
   11a80:	1b512a23          	sw	s5,436(sp)
   11a84:	1b612823          	sw	s6,432(sp)
   11a88:	1b812423          	sw	s8,424(sp)
   11a8c:	1b912223          	sw	s9,420(sp)
   11a90:	19b12e23          	sw	s11,412(sp)
   11a94:	00090d13          	mv	s10,s2
   11a98:	000d4703          	lbu	a4,0(s10)
   11a9c:	0ec10993          	add	s3,sp,236
   11aa0:	0d312223          	sw	s3,196(sp)
   11aa4:	0c012623          	sw	zero,204(sp)
   11aa8:	0c012423          	sw	zero,200(sp)
   11aac:	00012a23          	sw	zero,20(sp)
   11ab0:	02012623          	sw	zero,44(sp)
   11ab4:	02012c23          	sw	zero,56(sp)
   11ab8:	02012a23          	sw	zero,52(sp)
   11abc:	02012e23          	sw	zero,60(sp)
   11ac0:	04012023          	sw	zero,64(sp)
   11ac4:	00012223          	sw	zero,4(sp)
   11ac8:	02012b83          	lw	s7,32(sp)
   11acc:	01000413          	li	s0,16
   11ad0:	00098a13          	mv	s4,s3
   11ad4:	22070463          	beqz	a4,11cfc <_vfprintf_r+0x33c>
   11ad8:	000d0a93          	mv	s5,s10
   11adc:	02500693          	li	a3,37
   11ae0:	3ed70c63          	beq	a4,a3,11ed8 <_vfprintf_r+0x518>
   11ae4:	001ac703          	lbu	a4,1(s5)
   11ae8:	001a8a93          	add	s5,s5,1
   11aec:	fe071ae3          	bnez	a4,11ae0 <_vfprintf_r+0x120>
   11af0:	41aa8933          	sub	s2,s5,s10
   11af4:	21aa8463          	beq	s5,s10,11cfc <_vfprintf_r+0x33c>
   11af8:	0cc12683          	lw	a3,204(sp)
   11afc:	0c812703          	lw	a4,200(sp)
   11b00:	01aa2023          	sw	s10,0(s4)
   11b04:	012686b3          	add	a3,a3,s2
   11b08:	00170713          	add	a4,a4,1
   11b0c:	012a2223          	sw	s2,4(s4)
   11b10:	0cd12623          	sw	a3,204(sp)
   11b14:	0ce12423          	sw	a4,200(sp)
   11b18:	00700693          	li	a3,7
   11b1c:	008a0a13          	add	s4,s4,8
   11b20:	3ce6c463          	blt	a3,a4,11ee8 <_vfprintf_r+0x528>
   11b24:	00412783          	lw	a5,4(sp)
   11b28:	000ac703          	lbu	a4,0(s5)
   11b2c:	012787b3          	add	a5,a5,s2
   11b30:	00f12223          	sw	a5,4(sp)
   11b34:	1c070463          	beqz	a4,11cfc <_vfprintf_r+0x33c>
   11b38:	001ac883          	lbu	a7,1(s5)
   11b3c:	0a0103a3          	sb	zero,167(sp)
   11b40:	001a8a93          	add	s5,s5,1
   11b44:	fff00b13          	li	s6,-1
   11b48:	00000c93          	li	s9,0
   11b4c:	00000d93          	li	s11,0
   11b50:	05a00913          	li	s2,90
   11b54:	001a8a93          	add	s5,s5,1
   11b58:	fe088793          	add	a5,a7,-32
   11b5c:	04f96a63          	bltu	s2,a5,11bb0 <_vfprintf_r+0x1f0>
   11b60:	00010717          	auipc	a4,0x10
   11b64:	3a870713          	add	a4,a4,936 # 21f08 <__clzsi2+0x188>
   11b68:	00279793          	sll	a5,a5,0x2
   11b6c:	00e787b3          	add	a5,a5,a4
   11b70:	0007a783          	lw	a5,0(a5)
   11b74:	00e787b3          	add	a5,a5,a4
   11b78:	00078067          	jr	a5
   11b7c:	00000c93          	li	s9,0
   11b80:	fd088793          	add	a5,a7,-48
   11b84:	00900693          	li	a3,9
   11b88:	000ac883          	lbu	a7,0(s5)
   11b8c:	002c9713          	sll	a4,s9,0x2
   11b90:	01970cb3          	add	s9,a4,s9
   11b94:	001c9c93          	sll	s9,s9,0x1
   11b98:	01978cb3          	add	s9,a5,s9
   11b9c:	fd088793          	add	a5,a7,-48
   11ba0:	001a8a93          	add	s5,s5,1
   11ba4:	fef6f2e3          	bgeu	a3,a5,11b88 <_vfprintf_r+0x1c8>
   11ba8:	fe088793          	add	a5,a7,-32
   11bac:	faf97ae3          	bgeu	s2,a5,11b60 <_vfprintf_r+0x1a0>
   11bb0:	14088663          	beqz	a7,11cfc <_vfprintf_r+0x33c>
   11bb4:	13110623          	sb	a7,300(sp)
   11bb8:	0a0103a3          	sb	zero,167(sp)
   11bbc:	00100c13          	li	s8,1
   11bc0:	00100913          	li	s2,1
   11bc4:	12c10d13          	add	s10,sp,300
   11bc8:	00012423          	sw	zero,8(sp)
   11bcc:	00000b13          	li	s6,0
   11bd0:	00012e23          	sw	zero,28(sp)
   11bd4:	00012c23          	sw	zero,24(sp)
   11bd8:	00012823          	sw	zero,16(sp)
   11bdc:	002df293          	and	t0,s11,2
   11be0:	00028463          	beqz	t0,11be8 <_vfprintf_r+0x228>
   11be4:	002c0c13          	add	s8,s8,2
   11be8:	084dff93          	and	t6,s11,132
   11bec:	0cc12603          	lw	a2,204(sp)
   11bf0:	000f9663          	bnez	t6,11bfc <_vfprintf_r+0x23c>
   11bf4:	418c8733          	sub	a4,s9,s8
   11bf8:	48e044e3          	bgtz	a4,12880 <_vfprintf_r+0xec0>
   11bfc:	0a714703          	lbu	a4,167(sp)
   11c00:	02070a63          	beqz	a4,11c34 <_vfprintf_r+0x274>
   11c04:	0c812703          	lw	a4,200(sp)
   11c08:	0a710593          	add	a1,sp,167
   11c0c:	00ba2023          	sw	a1,0(s4)
   11c10:	00160613          	add	a2,a2,1
   11c14:	00100593          	li	a1,1
   11c18:	00170713          	add	a4,a4,1
   11c1c:	00ba2223          	sw	a1,4(s4)
   11c20:	0cc12623          	sw	a2,204(sp)
   11c24:	0ce12423          	sw	a4,200(sp)
   11c28:	00700593          	li	a1,7
   11c2c:	008a0a13          	add	s4,s4,8
   11c30:	3ee5c863          	blt	a1,a4,12020 <_vfprintf_r+0x660>
   11c34:	02028a63          	beqz	t0,11c68 <_vfprintf_r+0x2a8>
   11c38:	0c812703          	lw	a4,200(sp)
   11c3c:	00200593          	li	a1,2
   11c40:	00260613          	add	a2,a2,2
   11c44:	00170713          	add	a4,a4,1
   11c48:	0a810793          	add	a5,sp,168
   11c4c:	00ba2223          	sw	a1,4(s4)
   11c50:	00fa2023          	sw	a5,0(s4)
   11c54:	0cc12623          	sw	a2,204(sp)
   11c58:	0ce12423          	sw	a4,200(sp)
   11c5c:	00700593          	li	a1,7
   11c60:	008a0a13          	add	s4,s4,8
   11c64:	52e5c4e3          	blt	a1,a4,1298c <_vfprintf_r+0xfcc>
   11c68:	08000713          	li	a4,128
   11c6c:	20ef82e3          	beq	t6,a4,12670 <_vfprintf_r+0xcb0>
   11c70:	412b0b33          	sub	s6,s6,s2
   11c74:	2f6048e3          	bgtz	s6,12764 <_vfprintf_r+0xda4>
   11c78:	100df713          	and	a4,s11,256
   11c7c:	04071ce3          	bnez	a4,124d4 <_vfprintf_r+0xb14>
   11c80:	0c812783          	lw	a5,200(sp)
   11c84:	01260633          	add	a2,a2,s2
   11c88:	01aa2023          	sw	s10,0(s4)
   11c8c:	00178793          	add	a5,a5,1
   11c90:	012a2223          	sw	s2,4(s4)
   11c94:	0cc12623          	sw	a2,204(sp)
   11c98:	0cf12423          	sw	a5,200(sp)
   11c9c:	00700713          	li	a4,7
   11ca0:	4cf74463          	blt	a4,a5,12168 <_vfprintf_r+0x7a8>
   11ca4:	008a0a13          	add	s4,s4,8
   11ca8:	004dfe13          	and	t3,s11,4
   11cac:	000e0663          	beqz	t3,11cb8 <_vfprintf_r+0x2f8>
   11cb0:	418c8933          	sub	s2,s9,s8
   11cb4:	512044e3          	bgtz	s2,129bc <_vfprintf_r+0xffc>
   11cb8:	000c8313          	mv	t1,s9
   11cbc:	018cd463          	bge	s9,s8,11cc4 <_vfprintf_r+0x304>
   11cc0:	000c0313          	mv	t1,s8
   11cc4:	00412783          	lw	a5,4(sp)
   11cc8:	006787b3          	add	a5,a5,t1
   11ccc:	00f12223          	sw	a5,4(sp)
   11cd0:	36061ee3          	bnez	a2,1284c <_vfprintf_r+0xe8c>
   11cd4:	00812783          	lw	a5,8(sp)
   11cd8:	0c012423          	sw	zero,200(sp)
   11cdc:	00078863          	beqz	a5,11cec <_vfprintf_r+0x32c>
   11ce0:	00812583          	lw	a1,8(sp)
   11ce4:	000b8513          	mv	a0,s7
   11ce8:	a04ff0ef          	jal	10eec <_free_r>
   11cec:	00098a13          	mv	s4,s3
   11cf0:	000a8d13          	mv	s10,s5
   11cf4:	000d4703          	lbu	a4,0(s10)
   11cf8:	de0710e3          	bnez	a4,11ad8 <_vfprintf_r+0x118>
   11cfc:	0cc12783          	lw	a5,204(sp)
   11d00:	00078463          	beqz	a5,11d08 <_vfprintf_r+0x348>
   11d04:	3690106f          	j	1386c <_vfprintf_r+0x1eac>
   11d08:	00c4d783          	lhu	a5,12(s1)
   11d0c:	1bc12983          	lw	s3,444(sp)
   11d10:	1b812a03          	lw	s4,440(sp)
   11d14:	0407f793          	and	a5,a5,64
   11d18:	1b412a83          	lw	s5,436(sp)
   11d1c:	1b012b03          	lw	s6,432(sp)
   11d20:	1ac12b83          	lw	s7,428(sp)
   11d24:	1a812c03          	lw	s8,424(sp)
   11d28:	1a412c83          	lw	s9,420(sp)
   11d2c:	1a012d03          	lw	s10,416(sp)
   11d30:	19c12d83          	lw	s11,412(sp)
   11d34:	00078463          	beqz	a5,11d3c <_vfprintf_r+0x37c>
   11d38:	2600206f          	j	13f98 <_vfprintf_r+0x25d8>
   11d3c:	1cc12083          	lw	ra,460(sp)
   11d40:	1c812403          	lw	s0,456(sp)
   11d44:	00412503          	lw	a0,4(sp)
   11d48:	1c412483          	lw	s1,452(sp)
   11d4c:	1c012903          	lw	s2,448(sp)
   11d50:	1d010113          	add	sp,sp,464
   11d54:	00008067          	ret
   11d58:	02012503          	lw	a0,32(sp)
   11d5c:	00048593          	mv	a1,s1
   11d60:	4ec040ef          	jal	1624c <__swsetup_r>
   11d64:	00050463          	beqz	a0,11d6c <_vfprintf_r+0x3ac>
   11d68:	2300206f          	j	13f98 <_vfprintf_r+0x25d8>
   11d6c:	00c49703          	lh	a4,12(s1)
   11d70:	00a00693          	li	a3,10
   11d74:	01a77713          	and	a4,a4,26
   11d78:	ced71ce3          	bne	a4,a3,11a70 <_vfprintf_r+0xb0>
   11d7c:	00e49703          	lh	a4,14(s1)
   11d80:	ce0748e3          	bltz	a4,11a70 <_vfprintf_r+0xb0>
   11d84:	00c12683          	lw	a3,12(sp)
   11d88:	02012503          	lw	a0,32(sp)
   11d8c:	00090613          	mv	a2,s2
   11d90:	00048593          	mv	a1,s1
   11d94:	4fc020ef          	jal	14290 <__sbprintf>
   11d98:	00a12223          	sw	a0,4(sp)
   11d9c:	fa1ff06f          	j	11d3c <_vfprintf_r+0x37c>
   11da0:	000b8513          	mv	a0,s7
   11da4:	1fd040ef          	jal	167a0 <_localeconv_r>
   11da8:	00452783          	lw	a5,4(a0)
   11dac:	00078513          	mv	a0,a5
   11db0:	04f12023          	sw	a5,64(sp)
   11db4:	559040ef          	jal	16b0c <strlen>
   11db8:	00050793          	mv	a5,a0
   11dbc:	000b8513          	mv	a0,s7
   11dc0:	00078c13          	mv	s8,a5
   11dc4:	02f12e23          	sw	a5,60(sp)
   11dc8:	1d9040ef          	jal	167a0 <_localeconv_r>
   11dcc:	00852703          	lw	a4,8(a0)
   11dd0:	02e12a23          	sw	a4,52(sp)
   11dd4:	760c18e3          	bnez	s8,12d44 <_vfprintf_r+0x1384>
   11dd8:	000ac883          	lbu	a7,0(s5)
   11ddc:	d79ff06f          	j	11b54 <_vfprintf_r+0x194>
   11de0:	000ac883          	lbu	a7,0(s5)
   11de4:	020ded93          	or	s11,s11,32
   11de8:	d6dff06f          	j	11b54 <_vfprintf_r+0x194>
   11dec:	010ded93          	or	s11,s11,16
   11df0:	020df793          	and	a5,s11,32
   11df4:	3c078263          	beqz	a5,121b8 <_vfprintf_r+0x7f8>
   11df8:	00c12783          	lw	a5,12(sp)
   11dfc:	00778c13          	add	s8,a5,7
   11e00:	ff8c7c13          	and	s8,s8,-8
   11e04:	004c2783          	lw	a5,4(s8)
   11e08:	000c2903          	lw	s2,0(s8)
   11e0c:	008c0713          	add	a4,s8,8
   11e10:	00e12623          	sw	a4,12(sp)
   11e14:	00078813          	mv	a6,a5
   11e18:	3c07ca63          	bltz	a5,121ec <_vfprintf_r+0x82c>
   11e1c:	000d8613          	mv	a2,s11
   11e20:	500b4263          	bltz	s6,12324 <_vfprintf_r+0x964>
   11e24:	010967b3          	or	a5,s2,a6
   11e28:	f7fdf613          	and	a2,s11,-129
   11e2c:	4e079c63          	bnez	a5,12324 <_vfprintf_r+0x964>
   11e30:	500b1063          	bnez	s6,12330 <_vfprintf_r+0x970>
   11e34:	00000913          	li	s2,0
   11e38:	00060d93          	mv	s11,a2
   11e3c:	19010d13          	add	s10,sp,400
   11e40:	0a714703          	lbu	a4,167(sp)
   11e44:	000b0c13          	mv	s8,s6
   11e48:	012b5463          	bge	s6,s2,11e50 <_vfprintf_r+0x490>
   11e4c:	00090c13          	mv	s8,s2
   11e50:	00012423          	sw	zero,8(sp)
   11e54:	00012e23          	sw	zero,28(sp)
   11e58:	00012c23          	sw	zero,24(sp)
   11e5c:	00012823          	sw	zero,16(sp)
   11e60:	d6070ee3          	beqz	a4,11bdc <_vfprintf_r+0x21c>
   11e64:	001c0c13          	add	s8,s8,1
   11e68:	d75ff06f          	j	11bdc <_vfprintf_r+0x21c>
   11e6c:	010ded93          	or	s11,s11,16
   11e70:	020df793          	and	a5,s11,32
   11e74:	30078a63          	beqz	a5,12188 <_vfprintf_r+0x7c8>
   11e78:	00c12783          	lw	a5,12(sp)
   11e7c:	00778c13          	add	s8,a5,7
   11e80:	ff8c7c13          	and	s8,s8,-8
   11e84:	000c2903          	lw	s2,0(s8)
   11e88:	004c2803          	lw	a6,4(s8)
   11e8c:	008c0793          	add	a5,s8,8
   11e90:	00f12623          	sw	a5,12(sp)
   11e94:	bffdf613          	and	a2,s11,-1025
   11e98:	00000793          	li	a5,0
   11e9c:	00000693          	li	a3,0
   11ea0:	0ad103a3          	sb	a3,167(sp)
   11ea4:	360b4663          	bltz	s6,12210 <_vfprintf_r+0x850>
   11ea8:	010966b3          	or	a3,s2,a6
   11eac:	f7f67d93          	and	s11,a2,-129
   11eb0:	1c0694e3          	bnez	a3,12878 <_vfprintf_r+0xeb8>
   11eb4:	760b1063          	bnez	s6,12614 <_vfprintf_r+0xc54>
   11eb8:	5e079ee3          	bnez	a5,12cb4 <_vfprintf_r+0x12f4>
   11ebc:	00167913          	and	s2,a2,1
   11ec0:	19010d13          	add	s10,sp,400
   11ec4:	f6090ee3          	beqz	s2,11e40 <_vfprintf_r+0x480>
   11ec8:	03000793          	li	a5,48
   11ecc:	18f107a3          	sb	a5,399(sp)
   11ed0:	18f10d13          	add	s10,sp,399
   11ed4:	f6dff06f          	j	11e40 <_vfprintf_r+0x480>
   11ed8:	41aa8933          	sub	s2,s5,s10
   11edc:	c1aa9ee3          	bne	s5,s10,11af8 <_vfprintf_r+0x138>
   11ee0:	000ac703          	lbu	a4,0(s5)
   11ee4:	c51ff06f          	j	11b34 <_vfprintf_r+0x174>
   11ee8:	0c410613          	add	a2,sp,196
   11eec:	00048593          	mv	a1,s1
   11ef0:	000b8513          	mv	a0,s7
   11ef4:	58c020ef          	jal	14480 <__sprint_r>
   11ef8:	e00518e3          	bnez	a0,11d08 <_vfprintf_r+0x348>
   11efc:	00098a13          	mv	s4,s3
   11f00:	c25ff06f          	j	11b24 <_vfprintf_r+0x164>
   11f04:	008df713          	and	a4,s11,8
   11f08:	60071ce3          	bnez	a4,12d20 <_vfprintf_r+0x1360>
   11f0c:	00c12783          	lw	a5,12(sp)
   11f10:	09010513          	add	a0,sp,144
   11f14:	01112423          	sw	a7,8(sp)
   11f18:	00778c13          	add	s8,a5,7
   11f1c:	ff8c7c13          	and	s8,s8,-8
   11f20:	000c2583          	lw	a1,0(s8)
   11f24:	004c2603          	lw	a2,4(s8)
   11f28:	008c0793          	add	a5,s8,8
   11f2c:	00f12623          	sw	a5,12(sp)
   11f30:	3710f0ef          	jal	21aa0 <__extenddftf2>
   11f34:	09012583          	lw	a1,144(sp)
   11f38:	09412603          	lw	a2,148(sp)
   11f3c:	09812683          	lw	a3,152(sp)
   11f40:	09c12703          	lw	a4,156(sp)
   11f44:	00812883          	lw	a7,8(sp)
   11f48:	0d010513          	add	a0,sp,208
   11f4c:	01112423          	sw	a7,8(sp)
   11f50:	0ce12e23          	sw	a4,220(sp)
   11f54:	0cb12823          	sw	a1,208(sp)
   11f58:	0cc12a23          	sw	a2,212(sp)
   11f5c:	0cd12c23          	sw	a3,216(sp)
   11f60:	2c4050ef          	jal	17224 <_ldcheck>
   11f64:	0aa12623          	sw	a0,172(sp)
   11f68:	00200713          	li	a4,2
   11f6c:	00812883          	lw	a7,8(sp)
   11f70:	00e51463          	bne	a0,a4,11f78 <_vfprintf_r+0x5b8>
   11f74:	40c0106f          	j	13380 <_vfprintf_r+0x19c0>
   11f78:	00100713          	li	a4,1
   11f7c:	00e51463          	bne	a0,a4,11f84 <_vfprintf_r+0x5c4>
   11f80:	5680106f          	j	134e8 <_vfprintf_r+0x1b28>
   11f84:	06100713          	li	a4,97
   11f88:	00e89463          	bne	a7,a4,11f90 <_vfprintf_r+0x5d0>
   11f8c:	7c90006f          	j	12f54 <_vfprintf_r+0x1594>
   11f90:	04100713          	li	a4,65
   11f94:	05800793          	li	a5,88
   11f98:	00e89463          	bne	a7,a4,11fa0 <_vfprintf_r+0x5e0>
   11f9c:	7bd0006f          	j	12f58 <_vfprintf_r+0x1598>
   11fa0:	fff00713          	li	a4,-1
   11fa4:	00eb1463          	bne	s6,a4,11fac <_vfprintf_r+0x5ec>
   11fa8:	1300206f          	j	140d8 <_vfprintf_r+0x2718>
   11fac:	fdf8f713          	and	a4,a7,-33
   11fb0:	04700693          	li	a3,71
   11fb4:	00012423          	sw	zero,8(sp)
   11fb8:	00d71663          	bne	a4,a3,11fc4 <_vfprintf_r+0x604>
   11fbc:	000b1463          	bnez	s6,11fc4 <_vfprintf_r+0x604>
   11fc0:	00100b13          	li	s6,1
   11fc4:	0dc12c03          	lw	s8,220(sp)
   11fc8:	100de793          	or	a5,s11,256
   11fcc:	04f12223          	sw	a5,68(sp)
   11fd0:	02012823          	sw	zero,48(sp)
   11fd4:	0d012f83          	lw	t6,208(sp)
   11fd8:	0d412f03          	lw	t5,212(sp)
   11fdc:	0d812e83          	lw	t4,216(sp)
   11fe0:	000c5a63          	bgez	s8,11ff4 <_vfprintf_r+0x634>
   11fe4:	80000737          	lui	a4,0x80000
   11fe8:	02d00793          	li	a5,45
   11fec:	01874c33          	xor	s8,a4,s8
   11ff0:	02f12823          	sw	a5,48(sp)
   11ff4:	fbf88713          	add	a4,a7,-65
   11ff8:	02500693          	li	a3,37
   11ffc:	00e6f463          	bgeu	a3,a4,12004 <_vfprintf_r+0x644>
   12000:	7a50006f          	j	12fa4 <_vfprintf_r+0x15e4>
   12004:	00010697          	auipc	a3,0x10
   12008:	07068693          	add	a3,a3,112 # 22074 <__clzsi2+0x2f4>
   1200c:	00271713          	sll	a4,a4,0x2
   12010:	00d70733          	add	a4,a4,a3
   12014:	00072703          	lw	a4,0(a4) # 80000000 <__BSS_END__+0x7ffdc4e0>
   12018:	00d70733          	add	a4,a4,a3
   1201c:	00070067          	jr	a4
   12020:	0c410613          	add	a2,sp,196
   12024:	00048593          	mv	a1,s1
   12028:	000b8513          	mv	a0,s7
   1202c:	05112423          	sw	a7,72(sp)
   12030:	05f12223          	sw	t6,68(sp)
   12034:	02512823          	sw	t0,48(sp)
   12038:	448020ef          	jal	14480 <__sprint_r>
   1203c:	020512e3          	bnez	a0,12860 <_vfprintf_r+0xea0>
   12040:	0cc12603          	lw	a2,204(sp)
   12044:	04812883          	lw	a7,72(sp)
   12048:	04412f83          	lw	t6,68(sp)
   1204c:	03012283          	lw	t0,48(sp)
   12050:	00098a13          	mv	s4,s3
   12054:	be1ff06f          	j	11c34 <_vfprintf_r+0x274>
   12058:	0c812903          	lw	s2,200(sp)
   1205c:	01412783          	lw	a5,20(sp)
   12060:	00100713          	li	a4,1
   12064:	01aa2023          	sw	s10,0(s4)
   12068:	00160613          	add	a2,a2,1
   1206c:	00190913          	add	s2,s2,1
   12070:	008a0b13          	add	s6,s4,8
   12074:	34f756e3          	bge	a4,a5,12bc0 <_vfprintf_r+0x1200>
   12078:	00100713          	li	a4,1
   1207c:	00ea2223          	sw	a4,4(s4)
   12080:	0cc12623          	sw	a2,204(sp)
   12084:	0d212423          	sw	s2,200(sp)
   12088:	00700713          	li	a4,7
   1208c:	01275463          	bge	a4,s2,12094 <_vfprintf_r+0x6d4>
   12090:	1080106f          	j	13198 <_vfprintf_r+0x17d8>
   12094:	02412783          	lw	a5,36(sp)
   12098:	02812703          	lw	a4,40(sp)
   1209c:	00190913          	add	s2,s2,1
   120a0:	00f60633          	add	a2,a2,a5
   120a4:	00eb2023          	sw	a4,0(s6)
   120a8:	00fb2223          	sw	a5,4(s6)
   120ac:	0cc12623          	sw	a2,204(sp)
   120b0:	0d212423          	sw	s2,200(sp)
   120b4:	00700713          	li	a4,7
   120b8:	008b0b13          	add	s6,s6,8
   120bc:	01275463          	bge	a4,s2,120c4 <_vfprintf_r+0x704>
   120c0:	0fc0106f          	j	131bc <_vfprintf_r+0x17fc>
   120c4:	0d012703          	lw	a4,208(sp)
   120c8:	01412783          	lw	a5,20(sp)
   120cc:	08010593          	add	a1,sp,128
   120d0:	08e12823          	sw	a4,144(sp)
   120d4:	0d412703          	lw	a4,212(sp)
   120d8:	09010513          	add	a0,sp,144
   120dc:	00c12823          	sw	a2,16(sp)
   120e0:	08e12a23          	sw	a4,148(sp)
   120e4:	0d812703          	lw	a4,216(sp)
   120e8:	08012023          	sw	zero,128(sp)
   120ec:	08012223          	sw	zero,132(sp)
   120f0:	08e12c23          	sw	a4,152(sp)
   120f4:	0dc12703          	lw	a4,220(sp)
   120f8:	08012423          	sw	zero,136(sp)
   120fc:	08012623          	sw	zero,140(sp)
   12100:	08e12e23          	sw	a4,156(sp)
   12104:	fff78a13          	add	s4,a5,-1
   12108:	3010c0ef          	jal	1ec08 <__eqtf2>
   1210c:	01012603          	lw	a2,16(sp)
   12110:	2e0508e3          	beqz	a0,12c00 <_vfprintf_r+0x1240>
   12114:	001d0793          	add	a5,s10,1
   12118:	00190913          	add	s2,s2,1
   1211c:	01460633          	add	a2,a2,s4
   12120:	00fb2023          	sw	a5,0(s6)
   12124:	014b2223          	sw	s4,4(s6)
   12128:	0cc12623          	sw	a2,204(sp)
   1212c:	0d212423          	sw	s2,200(sp)
   12130:	00700793          	li	a5,7
   12134:	008b0b13          	add	s6,s6,8
   12138:	2b27c2e3          	blt	a5,s2,12bdc <_vfprintf_r+0x121c>
   1213c:	03812683          	lw	a3,56(sp)
   12140:	0b410713          	add	a4,sp,180
   12144:	00190793          	add	a5,s2,1
   12148:	00c68633          	add	a2,a3,a2
   1214c:	00eb2023          	sw	a4,0(s6)
   12150:	00db2223          	sw	a3,4(s6)
   12154:	0cc12623          	sw	a2,204(sp)
   12158:	0cf12423          	sw	a5,200(sp)
   1215c:	00700713          	li	a4,7
   12160:	008b0a13          	add	s4,s6,8
   12164:	b4f752e3          	bge	a4,a5,11ca8 <_vfprintf_r+0x2e8>
   12168:	0c410613          	add	a2,sp,196
   1216c:	00048593          	mv	a1,s1
   12170:	000b8513          	mv	a0,s7
   12174:	30c020ef          	jal	14480 <__sprint_r>
   12178:	6e051463          	bnez	a0,12860 <_vfprintf_r+0xea0>
   1217c:	0cc12603          	lw	a2,204(sp)
   12180:	00098a13          	mv	s4,s3
   12184:	b25ff06f          	j	11ca8 <_vfprintf_r+0x2e8>
   12188:	00c12683          	lw	a3,12(sp)
   1218c:	010df793          	and	a5,s11,16
   12190:	0006a703          	lw	a4,0(a3)
   12194:	00468693          	add	a3,a3,4
   12198:	00d12623          	sw	a3,12(sp)
   1219c:	36079ce3          	bnez	a5,12d14 <_vfprintf_r+0x1354>
   121a0:	040df793          	and	a5,s11,64
   121a4:	360784e3          	beqz	a5,12d0c <_vfprintf_r+0x134c>
   121a8:	01071913          	sll	s2,a4,0x10
   121ac:	01095913          	srl	s2,s2,0x10
   121b0:	00000813          	li	a6,0
   121b4:	ce1ff06f          	j	11e94 <_vfprintf_r+0x4d4>
   121b8:	00c12683          	lw	a3,12(sp)
   121bc:	010df793          	and	a5,s11,16
   121c0:	0006a703          	lw	a4,0(a3)
   121c4:	00468693          	add	a3,a3,4
   121c8:	00d12623          	sw	a3,12(sp)
   121cc:	320798e3          	bnez	a5,12cfc <_vfprintf_r+0x133c>
   121d0:	040df793          	and	a5,s11,64
   121d4:	320780e3          	beqz	a5,12cf4 <_vfprintf_r+0x1334>
   121d8:	01071913          	sll	s2,a4,0x10
   121dc:	41095913          	sra	s2,s2,0x10
   121e0:	41f95813          	sra	a6,s2,0x1f
   121e4:	00080793          	mv	a5,a6
   121e8:	c207dae3          	bgez	a5,11e1c <_vfprintf_r+0x45c>
   121ec:	02d00693          	li	a3,45
   121f0:	012037b3          	snez	a5,s2
   121f4:	41000833          	neg	a6,a6
   121f8:	0ad103a3          	sb	a3,167(sp)
   121fc:	40f80833          	sub	a6,a6,a5
   12200:	41200933          	neg	s2,s2
   12204:	000d8613          	mv	a2,s11
   12208:	00100793          	li	a5,1
   1220c:	c80b5ee3          	bgez	s6,11ea8 <_vfprintf_r+0x4e8>
   12210:	00100693          	li	a3,1
   12214:	10d78863          	beq	a5,a3,12324 <_vfprintf_r+0x964>
   12218:	00200693          	li	a3,2
   1221c:	40d78863          	beq	a5,a3,1262c <_vfprintf_r+0xc6c>
   12220:	19010d13          	add	s10,sp,400
   12224:	01d81793          	sll	a5,a6,0x1d
   12228:	00797693          	and	a3,s2,7
   1222c:	00395913          	srl	s2,s2,0x3
   12230:	03068693          	add	a3,a3,48
   12234:	0127e933          	or	s2,a5,s2
   12238:	00385813          	srl	a6,a6,0x3
   1223c:	fedd0fa3          	sb	a3,-1(s10)
   12240:	010967b3          	or	a5,s2,a6
   12244:	000d0513          	mv	a0,s10
   12248:	fffd0d13          	add	s10,s10,-1
   1224c:	fc079ce3          	bnez	a5,12224 <_vfprintf_r+0x864>
   12250:	00167713          	and	a4,a2,1
   12254:	40070663          	beqz	a4,12660 <_vfprintf_r+0xca0>
   12258:	03000713          	li	a4,48
   1225c:	40e68263          	beq	a3,a4,12660 <_vfprintf_r+0xca0>
   12260:	ffe50513          	add	a0,a0,-2
   12264:	19010793          	add	a5,sp,400
   12268:	feed0fa3          	sb	a4,-1(s10)
   1226c:	40a78933          	sub	s2,a5,a0
   12270:	00060d93          	mv	s11,a2
   12274:	00050d13          	mv	s10,a0
   12278:	bc9ff06f          	j	11e40 <_vfprintf_r+0x480>
   1227c:	00c12703          	lw	a4,12(sp)
   12280:	0a0103a3          	sb	zero,167(sp)
   12284:	00100c13          	li	s8,1
   12288:	00072783          	lw	a5,0(a4)
   1228c:	00470713          	add	a4,a4,4
   12290:	00e12623          	sw	a4,12(sp)
   12294:	12f10623          	sb	a5,300(sp)
   12298:	00100913          	li	s2,1
   1229c:	12c10d13          	add	s10,sp,300
   122a0:	929ff06f          	j	11bc8 <_vfprintf_r+0x208>
   122a4:	00c12783          	lw	a5,12(sp)
   122a8:	0a0103a3          	sb	zero,167(sp)
   122ac:	0007ad03          	lw	s10,0(a5)
   122b0:	00478813          	add	a6,a5,4
   122b4:	3a0d06e3          	beqz	s10,12e60 <_vfprintf_r+0x14a0>
   122b8:	000b5463          	bgez	s6,122c0 <_vfprintf_r+0x900>
   122bc:	1c40106f          	j	13480 <_vfprintf_r+0x1ac0>
   122c0:	000b0613          	mv	a2,s6
   122c4:	00000593          	li	a1,0
   122c8:	000d0513          	mv	a0,s10
   122cc:	01012823          	sw	a6,16(sp)
   122d0:	01112623          	sw	a7,12(sp)
   122d4:	254040ef          	jal	16528 <memchr>
   122d8:	00a12423          	sw	a0,8(sp)
   122dc:	00c12883          	lw	a7,12(sp)
   122e0:	01012803          	lw	a6,16(sp)
   122e4:	00051463          	bnez	a0,122ec <_vfprintf_r+0x92c>
   122e8:	3910106f          	j	13e78 <_vfprintf_r+0x24b8>
   122ec:	00812783          	lw	a5,8(sp)
   122f0:	0a714703          	lbu	a4,167(sp)
   122f4:	01012623          	sw	a6,12(sp)
   122f8:	41a78933          	sub	s2,a5,s10
   122fc:	fff94693          	not	a3,s2
   12300:	41f6d693          	sra	a3,a3,0x1f
   12304:	00012423          	sw	zero,8(sp)
   12308:	00012e23          	sw	zero,28(sp)
   1230c:	00012c23          	sw	zero,24(sp)
   12310:	00012823          	sw	zero,16(sp)
   12314:	00d97c33          	and	s8,s2,a3
   12318:	00000b13          	li	s6,0
   1231c:	b40714e3          	bnez	a4,11e64 <_vfprintf_r+0x4a4>
   12320:	8bdff06f          	j	11bdc <_vfprintf_r+0x21c>
   12324:	6c0818e3          	bnez	a6,131f4 <_vfprintf_r+0x1834>
   12328:	00900793          	li	a5,9
   1232c:	6d27e4e3          	bltu	a5,s2,131f4 <_vfprintf_r+0x1834>
   12330:	03090713          	add	a4,s2,48
   12334:	18e107a3          	sb	a4,399(sp)
   12338:	00060d93          	mv	s11,a2
   1233c:	00100913          	li	s2,1
   12340:	18f10d13          	add	s10,sp,399
   12344:	afdff06f          	j	11e40 <_vfprintf_r+0x480>
   12348:	00c12783          	lw	a5,12(sp)
   1234c:	0007ac83          	lw	s9,0(a5)
   12350:	00478793          	add	a5,a5,4
   12354:	160cdee3          	bgez	s9,12cd0 <_vfprintf_r+0x1310>
   12358:	41900cb3          	neg	s9,s9
   1235c:	00f12623          	sw	a5,12(sp)
   12360:	000ac883          	lbu	a7,0(s5)
   12364:	004ded93          	or	s11,s11,4
   12368:	fecff06f          	j	11b54 <_vfprintf_r+0x194>
   1236c:	010de613          	or	a2,s11,16
   12370:	02067793          	and	a5,a2,32
   12374:	100786e3          	beqz	a5,12c80 <_vfprintf_r+0x12c0>
   12378:	00c12783          	lw	a5,12(sp)
   1237c:	00778c13          	add	s8,a5,7
   12380:	ff8c7c13          	and	s8,s8,-8
   12384:	008c0793          	add	a5,s8,8
   12388:	00f12623          	sw	a5,12(sp)
   1238c:	000c2903          	lw	s2,0(s8)
   12390:	004c2803          	lw	a6,4(s8)
   12394:	00100793          	li	a5,1
   12398:	b05ff06f          	j	11e9c <_vfprintf_r+0x4dc>
   1239c:	02b00793          	li	a5,43
   123a0:	000ac883          	lbu	a7,0(s5)
   123a4:	0af103a3          	sb	a5,167(sp)
   123a8:	facff06f          	j	11b54 <_vfprintf_r+0x194>
   123ac:	00c12703          	lw	a4,12(sp)
   123b0:	000087b7          	lui	a5,0x8
   123b4:	83078793          	add	a5,a5,-2000 # 7830 <exit-0x8864>
   123b8:	0af11423          	sh	a5,168(sp)
   123bc:	00470793          	add	a5,a4,4
   123c0:	00f12623          	sw	a5,12(sp)
   123c4:	00010797          	auipc	a5,0x10
   123c8:	a4078793          	add	a5,a5,-1472 # 21e04 <__clzsi2+0x84>
   123cc:	02f12623          	sw	a5,44(sp)
   123d0:	00072903          	lw	s2,0(a4)
   123d4:	00000813          	li	a6,0
   123d8:	002de613          	or	a2,s11,2
   123dc:	00200793          	li	a5,2
   123e0:	07800893          	li	a7,120
   123e4:	ab9ff06f          	j	11e9c <_vfprintf_r+0x4dc>
   123e8:	020df793          	and	a5,s11,32
   123ec:	16078ee3          	beqz	a5,12d68 <_vfprintf_r+0x13a8>
   123f0:	00c12783          	lw	a5,12(sp)
   123f4:	00412683          	lw	a3,4(sp)
   123f8:	0007a783          	lw	a5,0(a5)
   123fc:	41f6d713          	sra	a4,a3,0x1f
   12400:	00d7a023          	sw	a3,0(a5)
   12404:	00e7a223          	sw	a4,4(a5)
   12408:	00c12783          	lw	a5,12(sp)
   1240c:	000a8d13          	mv	s10,s5
   12410:	00478793          	add	a5,a5,4
   12414:	00f12623          	sw	a5,12(sp)
   12418:	8ddff06f          	j	11cf4 <_vfprintf_r+0x334>
   1241c:	000ac883          	lbu	a7,0(s5)
   12420:	06c00793          	li	a5,108
   12424:	22f886e3          	beq	a7,a5,12e50 <_vfprintf_r+0x1490>
   12428:	010ded93          	or	s11,s11,16
   1242c:	f28ff06f          	j	11b54 <_vfprintf_r+0x194>
   12430:	000ac883          	lbu	a7,0(s5)
   12434:	06800793          	li	a5,104
   12438:	20f884e3          	beq	a7,a5,12e40 <_vfprintf_r+0x1480>
   1243c:	040ded93          	or	s11,s11,64
   12440:	f14ff06f          	j	11b54 <_vfprintf_r+0x194>
   12444:	000ac883          	lbu	a7,0(s5)
   12448:	008ded93          	or	s11,s11,8
   1244c:	f08ff06f          	j	11b54 <_vfprintf_r+0x194>
   12450:	000ac883          	lbu	a7,0(s5)
   12454:	001ded93          	or	s11,s11,1
   12458:	efcff06f          	j	11b54 <_vfprintf_r+0x194>
   1245c:	0a714783          	lbu	a5,167(sp)
   12460:	000ac883          	lbu	a7,0(s5)
   12464:	ee079863          	bnez	a5,11b54 <_vfprintf_r+0x194>
   12468:	02000793          	li	a5,32
   1246c:	0af103a3          	sb	a5,167(sp)
   12470:	ee4ff06f          	j	11b54 <_vfprintf_r+0x194>
   12474:	000ac883          	lbu	a7,0(s5)
   12478:	080ded93          	or	s11,s11,128
   1247c:	ed8ff06f          	j	11b54 <_vfprintf_r+0x194>
   12480:	000ac883          	lbu	a7,0(s5)
   12484:	02a00793          	li	a5,42
   12488:	001a8693          	add	a3,s5,1
   1248c:	00f89463          	bne	a7,a5,12494 <_vfprintf_r+0xad4>
   12490:	5a10106f          	j	14230 <_vfprintf_r+0x2870>
   12494:	fd088793          	add	a5,a7,-48
   12498:	00900713          	li	a4,9
   1249c:	00000b13          	li	s6,0
   124a0:	00900613          	li	a2,9
   124a4:	02f76463          	bltu	a4,a5,124cc <_vfprintf_r+0xb0c>
   124a8:	0006c883          	lbu	a7,0(a3)
   124ac:	002b1713          	sll	a4,s6,0x2
   124b0:	01670b33          	add	s6,a4,s6
   124b4:	001b1b13          	sll	s6,s6,0x1
   124b8:	00fb0b33          	add	s6,s6,a5
   124bc:	fd088793          	add	a5,a7,-48
   124c0:	00168693          	add	a3,a3,1
   124c4:	fef672e3          	bgeu	a2,a5,124a8 <_vfprintf_r+0xae8>
   124c8:	0c0b4ce3          	bltz	s6,12da0 <_vfprintf_r+0x13e0>
   124cc:	00068a93          	mv	s5,a3
   124d0:	e88ff06f          	j	11b58 <_vfprintf_r+0x198>
   124d4:	06500713          	li	a4,101
   124d8:	b91750e3          	bge	a4,a7,12058 <_vfprintf_r+0x698>
   124dc:	0d012703          	lw	a4,208(sp)
   124e0:	08010593          	add	a1,sp,128
   124e4:	09010513          	add	a0,sp,144
   124e8:	08e12823          	sw	a4,144(sp)
   124ec:	0d412703          	lw	a4,212(sp)
   124f0:	02c12823          	sw	a2,48(sp)
   124f4:	08012023          	sw	zero,128(sp)
   124f8:	08e12a23          	sw	a4,148(sp)
   124fc:	0d812703          	lw	a4,216(sp)
   12500:	08012223          	sw	zero,132(sp)
   12504:	08012423          	sw	zero,136(sp)
   12508:	08e12c23          	sw	a4,152(sp)
   1250c:	0dc12703          	lw	a4,220(sp)
   12510:	08012623          	sw	zero,140(sp)
   12514:	08e12e23          	sw	a4,156(sp)
   12518:	6f00c0ef          	jal	1ec08 <__eqtf2>
   1251c:	03012603          	lw	a2,48(sp)
   12520:	54051863          	bnez	a0,12a70 <_vfprintf_r+0x10b0>
   12524:	0c812783          	lw	a5,200(sp)
   12528:	00010717          	auipc	a4,0x10
   1252c:	90c70713          	add	a4,a4,-1780 # 21e34 <__clzsi2+0xb4>
   12530:	00ea2023          	sw	a4,0(s4)
   12534:	00160613          	add	a2,a2,1
   12538:	00100713          	li	a4,1
   1253c:	00178793          	add	a5,a5,1
   12540:	00ea2223          	sw	a4,4(s4)
   12544:	0cc12623          	sw	a2,204(sp)
   12548:	0cf12423          	sw	a5,200(sp)
   1254c:	00700713          	li	a4,7
   12550:	008a0a13          	add	s4,s4,8
   12554:	5ef74ae3          	blt	a4,a5,13348 <_vfprintf_r+0x1988>
   12558:	0ac12783          	lw	a5,172(sp)
   1255c:	01412703          	lw	a4,20(sp)
   12560:	76e7d063          	bge	a5,a4,12cc0 <_vfprintf_r+0x1300>
   12564:	02812783          	lw	a5,40(sp)
   12568:	02412703          	lw	a4,36(sp)
   1256c:	008a0a13          	add	s4,s4,8
   12570:	fefa2c23          	sw	a5,-8(s4)
   12574:	0c812783          	lw	a5,200(sp)
   12578:	00e60633          	add	a2,a2,a4
   1257c:	feea2e23          	sw	a4,-4(s4)
   12580:	00178793          	add	a5,a5,1
   12584:	0cc12623          	sw	a2,204(sp)
   12588:	0cf12423          	sw	a5,200(sp)
   1258c:	00700713          	li	a4,7
   12590:	08f748e3          	blt	a4,a5,12e20 <_vfprintf_r+0x1460>
   12594:	01412783          	lw	a5,20(sp)
   12598:	fff78913          	add	s2,a5,-1
   1259c:	f1205663          	blez	s2,11ca8 <_vfprintf_r+0x2e8>
   125a0:	01000713          	li	a4,16
   125a4:	0c812783          	lw	a5,200(sp)
   125a8:	00010817          	auipc	a6,0x10
   125ac:	b6480813          	add	a6,a6,-1180 # 2210c <zeroes.0>
   125b0:	5d2750e3          	bge	a4,s2,13370 <_vfprintf_r+0x19b0>
   125b4:	01512823          	sw	s5,16(sp)
   125b8:	01000b13          	li	s6,16
   125bc:	00700d13          	li	s10,7
   125c0:	00080a93          	mv	s5,a6
   125c4:	00c0006f          	j	125d0 <_vfprintf_r+0xc10>
   125c8:	ff090913          	add	s2,s2,-16
   125cc:	592b5ee3          	bge	s6,s2,13368 <_vfprintf_r+0x19a8>
   125d0:	01060613          	add	a2,a2,16
   125d4:	00178793          	add	a5,a5,1
   125d8:	015a2023          	sw	s5,0(s4)
   125dc:	016a2223          	sw	s6,4(s4)
   125e0:	0cc12623          	sw	a2,204(sp)
   125e4:	0cf12423          	sw	a5,200(sp)
   125e8:	008a0a13          	add	s4,s4,8
   125ec:	fcfd5ee3          	bge	s10,a5,125c8 <_vfprintf_r+0xc08>
   125f0:	0c410613          	add	a2,sp,196
   125f4:	00048593          	mv	a1,s1
   125f8:	000b8513          	mv	a0,s7
   125fc:	685010ef          	jal	14480 <__sprint_r>
   12600:	26051063          	bnez	a0,12860 <_vfprintf_r+0xea0>
   12604:	0cc12603          	lw	a2,204(sp)
   12608:	0c812783          	lw	a5,200(sp)
   1260c:	00098a13          	mv	s4,s3
   12610:	fb9ff06f          	j	125c8 <_vfprintf_r+0xc08>
   12614:	00100693          	li	a3,1
   12618:	00d79463          	bne	a5,a3,12620 <_vfprintf_r+0xc60>
   1261c:	1750106f          	j	13f90 <_vfprintf_r+0x25d0>
   12620:	00200693          	li	a3,2
   12624:	000d8613          	mv	a2,s11
   12628:	bed79ce3          	bne	a5,a3,12220 <_vfprintf_r+0x860>
   1262c:	02c12683          	lw	a3,44(sp)
   12630:	19010d13          	add	s10,sp,400
   12634:	00f97793          	and	a5,s2,15
   12638:	00f687b3          	add	a5,a3,a5
   1263c:	0007c703          	lbu	a4,0(a5)
   12640:	00495913          	srl	s2,s2,0x4
   12644:	01c81793          	sll	a5,a6,0x1c
   12648:	0127e933          	or	s2,a5,s2
   1264c:	00485813          	srl	a6,a6,0x4
   12650:	feed0fa3          	sb	a4,-1(s10)
   12654:	010967b3          	or	a5,s2,a6
   12658:	fffd0d13          	add	s10,s10,-1
   1265c:	fc079ce3          	bnez	a5,12634 <_vfprintf_r+0xc74>
   12660:	19010793          	add	a5,sp,400
   12664:	41a78933          	sub	s2,a5,s10
   12668:	00060d93          	mv	s11,a2
   1266c:	fd4ff06f          	j	11e40 <_vfprintf_r+0x480>
   12670:	418c8733          	sub	a4,s9,s8
   12674:	dee05e63          	blez	a4,11c70 <_vfprintf_r+0x2b0>
   12678:	01000513          	li	a0,16
   1267c:	0c812583          	lw	a1,200(sp)
   12680:	00010817          	auipc	a6,0x10
   12684:	a8c80813          	add	a6,a6,-1396 # 2210c <zeroes.0>
   12688:	08e55863          	bge	a0,a4,12718 <_vfprintf_r+0xd58>
   1268c:	05212223          	sw	s2,68(sp)
   12690:	000a0793          	mv	a5,s4
   12694:	01000e93          	li	t4,16
   12698:	00700f93          	li	t6,7
   1269c:	03112823          	sw	a7,48(sp)
   126a0:	00070913          	mv	s2,a4
   126a4:	00080a13          	mv	s4,a6
   126a8:	00c0006f          	j	126b4 <_vfprintf_r+0xcf4>
   126ac:	ff090913          	add	s2,s2,-16
   126b0:	052eda63          	bge	t4,s2,12704 <_vfprintf_r+0xd44>
   126b4:	01060613          	add	a2,a2,16
   126b8:	00158593          	add	a1,a1,1 # 2001 <exit-0xe093>
   126bc:	0147a023          	sw	s4,0(a5)
   126c0:	01d7a223          	sw	t4,4(a5)
   126c4:	0cc12623          	sw	a2,204(sp)
   126c8:	0cb12423          	sw	a1,200(sp)
   126cc:	00878793          	add	a5,a5,8
   126d0:	fcbfdee3          	bge	t6,a1,126ac <_vfprintf_r+0xcec>
   126d4:	0c410613          	add	a2,sp,196
   126d8:	00048593          	mv	a1,s1
   126dc:	000b8513          	mv	a0,s7
   126e0:	5a1010ef          	jal	14480 <__sprint_r>
   126e4:	16051e63          	bnez	a0,12860 <_vfprintf_r+0xea0>
   126e8:	01000e93          	li	t4,16
   126ec:	ff090913          	add	s2,s2,-16
   126f0:	0cc12603          	lw	a2,204(sp)
   126f4:	0c812583          	lw	a1,200(sp)
   126f8:	00098793          	mv	a5,s3
   126fc:	00700f93          	li	t6,7
   12700:	fb2ecae3          	blt	t4,s2,126b4 <_vfprintf_r+0xcf4>
   12704:	00090713          	mv	a4,s2
   12708:	03012883          	lw	a7,48(sp)
   1270c:	04412903          	lw	s2,68(sp)
   12710:	000a0813          	mv	a6,s4
   12714:	00078a13          	mv	s4,a5
   12718:	00e60633          	add	a2,a2,a4
   1271c:	00158593          	add	a1,a1,1
   12720:	00ea2223          	sw	a4,4(s4)
   12724:	010a2023          	sw	a6,0(s4)
   12728:	0cc12623          	sw	a2,204(sp)
   1272c:	0cb12423          	sw	a1,200(sp)
   12730:	00700713          	li	a4,7
   12734:	008a0a13          	add	s4,s4,8
   12738:	d2b75c63          	bge	a4,a1,11c70 <_vfprintf_r+0x2b0>
   1273c:	0c410613          	add	a2,sp,196
   12740:	00048593          	mv	a1,s1
   12744:	000b8513          	mv	a0,s7
   12748:	03112823          	sw	a7,48(sp)
   1274c:	535010ef          	jal	14480 <__sprint_r>
   12750:	10051863          	bnez	a0,12860 <_vfprintf_r+0xea0>
   12754:	0cc12603          	lw	a2,204(sp)
   12758:	03012883          	lw	a7,48(sp)
   1275c:	00098a13          	mv	s4,s3
   12760:	d10ff06f          	j	11c70 <_vfprintf_r+0x2b0>
   12764:	0c812583          	lw	a1,200(sp)
   12768:	00010817          	auipc	a6,0x10
   1276c:	9a480813          	add	a6,a6,-1628 # 2210c <zeroes.0>
   12770:	09645863          	bge	s0,s6,12800 <_vfprintf_r+0xe40>
   12774:	000a0793          	mv	a5,s4
   12778:	00700713          	li	a4,7
   1277c:	00090a13          	mv	s4,s2
   12780:	03112823          	sw	a7,48(sp)
   12784:	000b0913          	mv	s2,s6
   12788:	00080b13          	mv	s6,a6
   1278c:	00c0006f          	j	12798 <_vfprintf_r+0xdd8>
   12790:	ff090913          	add	s2,s2,-16
   12794:	05245c63          	bge	s0,s2,127ec <_vfprintf_r+0xe2c>
   12798:	01060613          	add	a2,a2,16
   1279c:	00158593          	add	a1,a1,1
   127a0:	00010697          	auipc	a3,0x10
   127a4:	96c68693          	add	a3,a3,-1684 # 2210c <zeroes.0>
   127a8:	00d7a023          	sw	a3,0(a5)
   127ac:	0087a223          	sw	s0,4(a5)
   127b0:	0cc12623          	sw	a2,204(sp)
   127b4:	0cb12423          	sw	a1,200(sp)
   127b8:	00878793          	add	a5,a5,8
   127bc:	fcb75ae3          	bge	a4,a1,12790 <_vfprintf_r+0xdd0>
   127c0:	0c410613          	add	a2,sp,196
   127c4:	00048593          	mv	a1,s1
   127c8:	000b8513          	mv	a0,s7
   127cc:	4b5010ef          	jal	14480 <__sprint_r>
   127d0:	08051863          	bnez	a0,12860 <_vfprintf_r+0xea0>
   127d4:	ff090913          	add	s2,s2,-16
   127d8:	0cc12603          	lw	a2,204(sp)
   127dc:	0c812583          	lw	a1,200(sp)
   127e0:	00098793          	mv	a5,s3
   127e4:	00700713          	li	a4,7
   127e8:	fb2448e3          	blt	s0,s2,12798 <_vfprintf_r+0xdd8>
   127ec:	03012883          	lw	a7,48(sp)
   127f0:	000b0813          	mv	a6,s6
   127f4:	00090b13          	mv	s6,s2
   127f8:	000a0913          	mv	s2,s4
   127fc:	00078a13          	mv	s4,a5
   12800:	01660633          	add	a2,a2,s6
   12804:	00158593          	add	a1,a1,1
   12808:	010a2023          	sw	a6,0(s4)
   1280c:	016a2223          	sw	s6,4(s4)
   12810:	0cc12623          	sw	a2,204(sp)
   12814:	0cb12423          	sw	a1,200(sp)
   12818:	00700713          	li	a4,7
   1281c:	008a0a13          	add	s4,s4,8
   12820:	c4b75c63          	bge	a4,a1,11c78 <_vfprintf_r+0x2b8>
   12824:	0c410613          	add	a2,sp,196
   12828:	00048593          	mv	a1,s1
   1282c:	000b8513          	mv	a0,s7
   12830:	03112823          	sw	a7,48(sp)
   12834:	44d010ef          	jal	14480 <__sprint_r>
   12838:	02051463          	bnez	a0,12860 <_vfprintf_r+0xea0>
   1283c:	0cc12603          	lw	a2,204(sp)
   12840:	03012883          	lw	a7,48(sp)
   12844:	00098a13          	mv	s4,s3
   12848:	c30ff06f          	j	11c78 <_vfprintf_r+0x2b8>
   1284c:	0c410613          	add	a2,sp,196
   12850:	00048593          	mv	a1,s1
   12854:	000b8513          	mv	a0,s7
   12858:	429010ef          	jal	14480 <__sprint_r>
   1285c:	c6050c63          	beqz	a0,11cd4 <_vfprintf_r+0x314>
   12860:	00812283          	lw	t0,8(sp)
   12864:	ca028263          	beqz	t0,11d08 <_vfprintf_r+0x348>
   12868:	02012503          	lw	a0,32(sp)
   1286c:	00028593          	mv	a1,t0
   12870:	e7cfe0ef          	jal	10eec <_free_r>
   12874:	c94ff06f          	j	11d08 <_vfprintf_r+0x348>
   12878:	000d8613          	mv	a2,s11
   1287c:	995ff06f          	j	12210 <_vfprintf_r+0x850>
   12880:	01000513          	li	a0,16
   12884:	0c812583          	lw	a1,200(sp)
   12888:	00010e97          	auipc	t4,0x10
   1288c:	894e8e93          	add	t4,t4,-1900 # 2211c <blanks.1>
   12890:	0ae55063          	bge	a0,a4,12930 <_vfprintf_r+0xf70>
   12894:	05212623          	sw	s2,76(sp)
   12898:	000a0793          	mv	a5,s4
   1289c:	01000813          	li	a6,16
   128a0:	00700393          	li	t2,7
   128a4:	02512823          	sw	t0,48(sp)
   128a8:	05f12223          	sw	t6,68(sp)
   128ac:	05112423          	sw	a7,72(sp)
   128b0:	00070913          	mv	s2,a4
   128b4:	000e8a13          	mv	s4,t4
   128b8:	00c0006f          	j	128c4 <_vfprintf_r+0xf04>
   128bc:	ff090913          	add	s2,s2,-16
   128c0:	05285a63          	bge	a6,s2,12914 <_vfprintf_r+0xf54>
   128c4:	01060613          	add	a2,a2,16
   128c8:	00158593          	add	a1,a1,1
   128cc:	0147a023          	sw	s4,0(a5)
   128d0:	0107a223          	sw	a6,4(a5)
   128d4:	0cc12623          	sw	a2,204(sp)
   128d8:	0cb12423          	sw	a1,200(sp)
   128dc:	00878793          	add	a5,a5,8
   128e0:	fcb3dee3          	bge	t2,a1,128bc <_vfprintf_r+0xefc>
   128e4:	0c410613          	add	a2,sp,196
   128e8:	00048593          	mv	a1,s1
   128ec:	000b8513          	mv	a0,s7
   128f0:	391010ef          	jal	14480 <__sprint_r>
   128f4:	f60516e3          	bnez	a0,12860 <_vfprintf_r+0xea0>
   128f8:	01000813          	li	a6,16
   128fc:	ff090913          	add	s2,s2,-16
   12900:	0cc12603          	lw	a2,204(sp)
   12904:	0c812583          	lw	a1,200(sp)
   12908:	00098793          	mv	a5,s3
   1290c:	00700393          	li	t2,7
   12910:	fb284ae3          	blt	a6,s2,128c4 <_vfprintf_r+0xf04>
   12914:	00090713          	mv	a4,s2
   12918:	03012283          	lw	t0,48(sp)
   1291c:	04412f83          	lw	t6,68(sp)
   12920:	04812883          	lw	a7,72(sp)
   12924:	04c12903          	lw	s2,76(sp)
   12928:	000a0e93          	mv	t4,s4
   1292c:	00078a13          	mv	s4,a5
   12930:	00e60633          	add	a2,a2,a4
   12934:	00158593          	add	a1,a1,1
   12938:	00ea2223          	sw	a4,4(s4)
   1293c:	01da2023          	sw	t4,0(s4)
   12940:	0cc12623          	sw	a2,204(sp)
   12944:	0cb12423          	sw	a1,200(sp)
   12948:	00700713          	li	a4,7
   1294c:	008a0a13          	add	s4,s4,8
   12950:	aab75663          	bge	a4,a1,11bfc <_vfprintf_r+0x23c>
   12954:	0c410613          	add	a2,sp,196
   12958:	00048593          	mv	a1,s1
   1295c:	000b8513          	mv	a0,s7
   12960:	05112423          	sw	a7,72(sp)
   12964:	05f12223          	sw	t6,68(sp)
   12968:	02512823          	sw	t0,48(sp)
   1296c:	315010ef          	jal	14480 <__sprint_r>
   12970:	ee0518e3          	bnez	a0,12860 <_vfprintf_r+0xea0>
   12974:	0cc12603          	lw	a2,204(sp)
   12978:	04812883          	lw	a7,72(sp)
   1297c:	04412f83          	lw	t6,68(sp)
   12980:	03012283          	lw	t0,48(sp)
   12984:	00098a13          	mv	s4,s3
   12988:	a74ff06f          	j	11bfc <_vfprintf_r+0x23c>
   1298c:	0c410613          	add	a2,sp,196
   12990:	00048593          	mv	a1,s1
   12994:	000b8513          	mv	a0,s7
   12998:	05112223          	sw	a7,68(sp)
   1299c:	03f12823          	sw	t6,48(sp)
   129a0:	2e1010ef          	jal	14480 <__sprint_r>
   129a4:	ea051ee3          	bnez	a0,12860 <_vfprintf_r+0xea0>
   129a8:	0cc12603          	lw	a2,204(sp)
   129ac:	04412883          	lw	a7,68(sp)
   129b0:	03012f83          	lw	t6,48(sp)
   129b4:	00098a13          	mv	s4,s3
   129b8:	ab0ff06f          	j	11c68 <_vfprintf_r+0x2a8>
   129bc:	0000fe97          	auipc	t4,0xf
   129c0:	760e8e93          	add	t4,t4,1888 # 2211c <blanks.1>
   129c4:	01000713          	li	a4,16
   129c8:	0c812783          	lw	a5,200(sp)
   129cc:	01000b13          	li	s6,16
   129d0:	00700d13          	li	s10,7
   129d4:	000e8d93          	mv	s11,t4
   129d8:	01274863          	blt	a4,s2,129e8 <_vfprintf_r+0x1028>
   129dc:	0580006f          	j	12a34 <_vfprintf_r+0x1074>
   129e0:	ff090913          	add	s2,s2,-16
   129e4:	052b5663          	bge	s6,s2,12a30 <_vfprintf_r+0x1070>
   129e8:	01060613          	add	a2,a2,16
   129ec:	00178793          	add	a5,a5,1
   129f0:	01ba2023          	sw	s11,0(s4)
   129f4:	016a2223          	sw	s6,4(s4)
   129f8:	0cc12623          	sw	a2,204(sp)
   129fc:	0cf12423          	sw	a5,200(sp)
   12a00:	008a0a13          	add	s4,s4,8
   12a04:	fcfd5ee3          	bge	s10,a5,129e0 <_vfprintf_r+0x1020>
   12a08:	0c410613          	add	a2,sp,196
   12a0c:	00048593          	mv	a1,s1
   12a10:	000b8513          	mv	a0,s7
   12a14:	26d010ef          	jal	14480 <__sprint_r>
   12a18:	e40514e3          	bnez	a0,12860 <_vfprintf_r+0xea0>
   12a1c:	ff090913          	add	s2,s2,-16
   12a20:	0cc12603          	lw	a2,204(sp)
   12a24:	0c812783          	lw	a5,200(sp)
   12a28:	00098a13          	mv	s4,s3
   12a2c:	fb2b4ee3          	blt	s6,s2,129e8 <_vfprintf_r+0x1028>
   12a30:	000d8e93          	mv	t4,s11
   12a34:	01260633          	add	a2,a2,s2
   12a38:	00178793          	add	a5,a5,1
   12a3c:	01da2023          	sw	t4,0(s4)
   12a40:	012a2223          	sw	s2,4(s4)
   12a44:	0cc12623          	sw	a2,204(sp)
   12a48:	0cf12423          	sw	a5,200(sp)
   12a4c:	00700713          	li	a4,7
   12a50:	a6f75463          	bge	a4,a5,11cb8 <_vfprintf_r+0x2f8>
   12a54:	0c410613          	add	a2,sp,196
   12a58:	00048593          	mv	a1,s1
   12a5c:	000b8513          	mv	a0,s7
   12a60:	221010ef          	jal	14480 <__sprint_r>
   12a64:	de051ee3          	bnez	a0,12860 <_vfprintf_r+0xea0>
   12a68:	0cc12603          	lw	a2,204(sp)
   12a6c:	a4cff06f          	j	11cb8 <_vfprintf_r+0x2f8>
   12a70:	0ac12583          	lw	a1,172(sp)
   12a74:	04b054e3          	blez	a1,132bc <_vfprintf_r+0x18fc>
   12a78:	01012783          	lw	a5,16(sp)
   12a7c:	01412703          	lw	a4,20(sp)
   12a80:	00078b13          	mv	s6,a5
   12a84:	30f74863          	blt	a4,a5,12d94 <_vfprintf_r+0x13d4>
   12a88:	03605663          	blez	s6,12ab4 <_vfprintf_r+0x10f4>
   12a8c:	0c812703          	lw	a4,200(sp)
   12a90:	01660633          	add	a2,a2,s6
   12a94:	01aa2023          	sw	s10,0(s4)
   12a98:	00170713          	add	a4,a4,1
   12a9c:	016a2223          	sw	s6,4(s4)
   12aa0:	0cc12623          	sw	a2,204(sp)
   12aa4:	0ce12423          	sw	a4,200(sp)
   12aa8:	00700593          	li	a1,7
   12aac:	008a0a13          	add	s4,s4,8
   12ab0:	52e5cce3          	blt	a1,a4,137e8 <_vfprintf_r+0x1e28>
   12ab4:	fffb4713          	not	a4,s6
   12ab8:	01012783          	lw	a5,16(sp)
   12abc:	41f75713          	sra	a4,a4,0x1f
   12ac0:	00eb7b33          	and	s6,s6,a4
   12ac4:	41678b33          	sub	s6,a5,s6
   12ac8:	3b604c63          	bgtz	s6,12e80 <_vfprintf_r+0x14c0>
   12acc:	01012783          	lw	a5,16(sp)
   12ad0:	400df713          	and	a4,s11,1024
   12ad4:	00fd0eb3          	add	t4,s10,a5
   12ad8:	280716e3          	bnez	a4,13564 <_vfprintf_r+0x1ba4>
   12adc:	0ac12583          	lw	a1,172(sp)
   12ae0:	01412783          	lw	a5,20(sp)
   12ae4:	40f5ca63          	blt	a1,a5,12ef8 <_vfprintf_r+0x1538>
   12ae8:	001df713          	and	a4,s11,1
   12aec:	40071663          	bnez	a4,12ef8 <_vfprintf_r+0x1538>
   12af0:	01412703          	lw	a4,20(sp)
   12af4:	00ed07b3          	add	a5,s10,a4
   12af8:	40b705b3          	sub	a1,a4,a1
   12afc:	41d78b33          	sub	s6,a5,t4
   12b00:	0165d463          	bge	a1,s6,12b08 <_vfprintf_r+0x1148>
   12b04:	00058b13          	mv	s6,a1
   12b08:	03605863          	blez	s6,12b38 <_vfprintf_r+0x1178>
   12b0c:	0c812703          	lw	a4,200(sp)
   12b10:	01660633          	add	a2,a2,s6
   12b14:	01da2023          	sw	t4,0(s4)
   12b18:	00170713          	add	a4,a4,1
   12b1c:	016a2223          	sw	s6,4(s4)
   12b20:	0cc12623          	sw	a2,204(sp)
   12b24:	0ce12423          	sw	a4,200(sp)
   12b28:	00700793          	li	a5,7
   12b2c:	008a0a13          	add	s4,s4,8
   12b30:	00e7d463          	bge	a5,a4,12b38 <_vfprintf_r+0x1178>
   12b34:	3700106f          	j	13ea4 <_vfprintf_r+0x24e4>
   12b38:	fffb4713          	not	a4,s6
   12b3c:	41f75713          	sra	a4,a4,0x1f
   12b40:	00eb77b3          	and	a5,s6,a4
   12b44:	40f58933          	sub	s2,a1,a5
   12b48:	97205063          	blez	s2,11ca8 <_vfprintf_r+0x2e8>
   12b4c:	01000713          	li	a4,16
   12b50:	0c812783          	lw	a5,200(sp)
   12b54:	0000f817          	auipc	a6,0xf
   12b58:	5b880813          	add	a6,a6,1464 # 2210c <zeroes.0>
   12b5c:	01275ae3          	bge	a4,s2,13370 <_vfprintf_r+0x19b0>
   12b60:	01512823          	sw	s5,16(sp)
   12b64:	01000b13          	li	s6,16
   12b68:	00700d13          	li	s10,7
   12b6c:	00080a93          	mv	s5,a6
   12b70:	00c0006f          	j	12b7c <_vfprintf_r+0x11bc>
   12b74:	ff090913          	add	s2,s2,-16
   12b78:	7f2b5863          	bge	s6,s2,13368 <_vfprintf_r+0x19a8>
   12b7c:	01060613          	add	a2,a2,16
   12b80:	00178793          	add	a5,a5,1
   12b84:	015a2023          	sw	s5,0(s4)
   12b88:	016a2223          	sw	s6,4(s4)
   12b8c:	0cc12623          	sw	a2,204(sp)
   12b90:	0cf12423          	sw	a5,200(sp)
   12b94:	008a0a13          	add	s4,s4,8
   12b98:	fcfd5ee3          	bge	s10,a5,12b74 <_vfprintf_r+0x11b4>
   12b9c:	0c410613          	add	a2,sp,196
   12ba0:	00048593          	mv	a1,s1
   12ba4:	000b8513          	mv	a0,s7
   12ba8:	0d9010ef          	jal	14480 <__sprint_r>
   12bac:	ca051ae3          	bnez	a0,12860 <_vfprintf_r+0xea0>
   12bb0:	0cc12603          	lw	a2,204(sp)
   12bb4:	0c812783          	lw	a5,200(sp)
   12bb8:	00098a13          	mv	s4,s3
   12bbc:	fb9ff06f          	j	12b74 <_vfprintf_r+0x11b4>
   12bc0:	001df593          	and	a1,s11,1
   12bc4:	ca059a63          	bnez	a1,12078 <_vfprintf_r+0x6b8>
   12bc8:	00ea2223          	sw	a4,4(s4)
   12bcc:	0cc12623          	sw	a2,204(sp)
   12bd0:	0d212423          	sw	s2,200(sp)
   12bd4:	00700793          	li	a5,7
   12bd8:	d727d263          	bge	a5,s2,1213c <_vfprintf_r+0x77c>
   12bdc:	0c410613          	add	a2,sp,196
   12be0:	00048593          	mv	a1,s1
   12be4:	000b8513          	mv	a0,s7
   12be8:	099010ef          	jal	14480 <__sprint_r>
   12bec:	c6051ae3          	bnez	a0,12860 <_vfprintf_r+0xea0>
   12bf0:	0cc12603          	lw	a2,204(sp)
   12bf4:	0c812903          	lw	s2,200(sp)
   12bf8:	00098b13          	mv	s6,s3
   12bfc:	d40ff06f          	j	1213c <_vfprintf_r+0x77c>
   12c00:	01412703          	lw	a4,20(sp)
   12c04:	00100793          	li	a5,1
   12c08:	d2e7da63          	bge	a5,a4,1213c <_vfprintf_r+0x77c>
   12c0c:	01100793          	li	a5,17
   12c10:	0000f817          	auipc	a6,0xf
   12c14:	4fc80813          	add	a6,a6,1276 # 2210c <zeroes.0>
   12c18:	0ce7d0e3          	bge	a5,a4,134d8 <_vfprintf_r+0x1b18>
   12c1c:	01512823          	sw	s5,16(sp)
   12c20:	01000793          	li	a5,16
   12c24:	00700d13          	li	s10,7
   12c28:	00080a93          	mv	s5,a6
   12c2c:	00c0006f          	j	12c38 <_vfprintf_r+0x1278>
   12c30:	ff0a0a13          	add	s4,s4,-16
   12c34:	0947dee3          	bge	a5,s4,134d0 <_vfprintf_r+0x1b10>
   12c38:	01060613          	add	a2,a2,16
   12c3c:	00190913          	add	s2,s2,1
   12c40:	015b2023          	sw	s5,0(s6)
   12c44:	00fb2223          	sw	a5,4(s6)
   12c48:	0cc12623          	sw	a2,204(sp)
   12c4c:	0d212423          	sw	s2,200(sp)
   12c50:	008b0b13          	add	s6,s6,8
   12c54:	fd2d5ee3          	bge	s10,s2,12c30 <_vfprintf_r+0x1270>
   12c58:	0c410613          	add	a2,sp,196
   12c5c:	00048593          	mv	a1,s1
   12c60:	000b8513          	mv	a0,s7
   12c64:	01d010ef          	jal	14480 <__sprint_r>
   12c68:	be051ce3          	bnez	a0,12860 <_vfprintf_r+0xea0>
   12c6c:	0cc12603          	lw	a2,204(sp)
   12c70:	0c812903          	lw	s2,200(sp)
   12c74:	00098b13          	mv	s6,s3
   12c78:	01000793          	li	a5,16
   12c7c:	fb5ff06f          	j	12c30 <_vfprintf_r+0x1270>
   12c80:	00c12683          	lw	a3,12(sp)
   12c84:	01067793          	and	a5,a2,16
   12c88:	0006a703          	lw	a4,0(a3)
   12c8c:	00468693          	add	a3,a3,4
   12c90:	00d12623          	sw	a3,12(sp)
   12c94:	04079863          	bnez	a5,12ce4 <_vfprintf_r+0x1324>
   12c98:	04067793          	and	a5,a2,64
   12c9c:	04078063          	beqz	a5,12cdc <_vfprintf_r+0x131c>
   12ca0:	01071913          	sll	s2,a4,0x10
   12ca4:	01095913          	srl	s2,s2,0x10
   12ca8:	00000813          	li	a6,0
   12cac:	00100793          	li	a5,1
   12cb0:	9ecff06f          	j	11e9c <_vfprintf_r+0x4dc>
   12cb4:	00000913          	li	s2,0
   12cb8:	19010d13          	add	s10,sp,400
   12cbc:	984ff06f          	j	11e40 <_vfprintf_r+0x480>
   12cc0:	001df793          	and	a5,s11,1
   12cc4:	00079463          	bnez	a5,12ccc <_vfprintf_r+0x130c>
   12cc8:	fe1fe06f          	j	11ca8 <_vfprintf_r+0x2e8>
   12ccc:	899ff06f          	j	12564 <_vfprintf_r+0xba4>
   12cd0:	000ac883          	lbu	a7,0(s5)
   12cd4:	00f12623          	sw	a5,12(sp)
   12cd8:	e7dfe06f          	j	11b54 <_vfprintf_r+0x194>
   12cdc:	20067793          	and	a5,a2,512
   12ce0:	34079ae3          	bnez	a5,13834 <_vfprintf_r+0x1e74>
   12ce4:	00070913          	mv	s2,a4
   12ce8:	00000813          	li	a6,0
   12cec:	00100793          	li	a5,1
   12cf0:	9acff06f          	j	11e9c <_vfprintf_r+0x4dc>
   12cf4:	200df793          	and	a5,s11,512
   12cf8:	340796e3          	bnez	a5,13844 <_vfprintf_r+0x1e84>
   12cfc:	41f75813          	sra	a6,a4,0x1f
   12d00:	00070913          	mv	s2,a4
   12d04:	00080793          	mv	a5,a6
   12d08:	910ff06f          	j	11e18 <_vfprintf_r+0x458>
   12d0c:	200df793          	and	a5,s11,512
   12d10:	30079ce3          	bnez	a5,13828 <_vfprintf_r+0x1e68>
   12d14:	00070913          	mv	s2,a4
   12d18:	00000813          	li	a6,0
   12d1c:	978ff06f          	j	11e94 <_vfprintf_r+0x4d4>
   12d20:	00c12783          	lw	a5,12(sp)
   12d24:	0007a703          	lw	a4,0(a5)
   12d28:	00478793          	add	a5,a5,4
   12d2c:	00f12623          	sw	a5,12(sp)
   12d30:	00072583          	lw	a1,0(a4)
   12d34:	00472603          	lw	a2,4(a4)
   12d38:	00872683          	lw	a3,8(a4)
   12d3c:	00c72703          	lw	a4,12(a4)
   12d40:	a08ff06f          	j	11f48 <_vfprintf_r+0x588>
   12d44:	03412783          	lw	a5,52(sp)
   12d48:	000ac883          	lbu	a7,0(s5)
   12d4c:	00079463          	bnez	a5,12d54 <_vfprintf_r+0x1394>
   12d50:	e05fe06f          	j	11b54 <_vfprintf_r+0x194>
   12d54:	0007c783          	lbu	a5,0(a5)
   12d58:	00079463          	bnez	a5,12d60 <_vfprintf_r+0x13a0>
   12d5c:	df9fe06f          	j	11b54 <_vfprintf_r+0x194>
   12d60:	400ded93          	or	s11,s11,1024
   12d64:	df1fe06f          	j	11b54 <_vfprintf_r+0x194>
   12d68:	010df793          	and	a5,s11,16
   12d6c:	6a079063          	bnez	a5,1340c <_vfprintf_r+0x1a4c>
   12d70:	040df793          	and	a5,s11,64
   12d74:	2a0790e3          	bnez	a5,13814 <_vfprintf_r+0x1e54>
   12d78:	200dfe13          	and	t3,s11,512
   12d7c:	680e0863          	beqz	t3,1340c <_vfprintf_r+0x1a4c>
   12d80:	00c12783          	lw	a5,12(sp)
   12d84:	00412703          	lw	a4,4(sp)
   12d88:	0007a783          	lw	a5,0(a5)
   12d8c:	00e78023          	sb	a4,0(a5)
   12d90:	e78ff06f          	j	12408 <_vfprintf_r+0xa48>
   12d94:	00070b13          	mv	s6,a4
   12d98:	cf604ae3          	bgtz	s6,12a8c <_vfprintf_r+0x10cc>
   12d9c:	d19ff06f          	j	12ab4 <_vfprintf_r+0x10f4>
   12da0:	fff00b13          	li	s6,-1
   12da4:	00068a93          	mv	s5,a3
   12da8:	db1fe06f          	j	11b58 <_vfprintf_r+0x198>
   12dac:	0000f797          	auipc	a5,0xf
   12db0:	06c78793          	add	a5,a5,108 # 21e18 <__clzsi2+0x98>
   12db4:	02f12623          	sw	a5,44(sp)
   12db8:	020df793          	and	a5,s11,32
   12dbc:	3a078663          	beqz	a5,13168 <_vfprintf_r+0x17a8>
   12dc0:	00c12783          	lw	a5,12(sp)
   12dc4:	00778c13          	add	s8,a5,7
   12dc8:	ff8c7c13          	and	s8,s8,-8
   12dcc:	000c2903          	lw	s2,0(s8)
   12dd0:	004c2803          	lw	a6,4(s8)
   12dd4:	008c0793          	add	a5,s8,8
   12dd8:	00f12623          	sw	a5,12(sp)
   12ddc:	001df793          	and	a5,s11,1
   12de0:	00078e63          	beqz	a5,12dfc <_vfprintf_r+0x143c>
   12de4:	010967b3          	or	a5,s2,a6
   12de8:	00078a63          	beqz	a5,12dfc <_vfprintf_r+0x143c>
   12dec:	03000793          	li	a5,48
   12df0:	0af10423          	sb	a5,168(sp)
   12df4:	0b1104a3          	sb	a7,169(sp)
   12df8:	002ded93          	or	s11,s11,2
   12dfc:	bffdf613          	and	a2,s11,-1025
   12e00:	00200793          	li	a5,2
   12e04:	898ff06f          	j	11e9c <_vfprintf_r+0x4dc>
   12e08:	000d8613          	mv	a2,s11
   12e0c:	d64ff06f          	j	12370 <_vfprintf_r+0x9b0>
   12e10:	0000f797          	auipc	a5,0xf
   12e14:	ff478793          	add	a5,a5,-12 # 21e04 <__clzsi2+0x84>
   12e18:	02f12623          	sw	a5,44(sp)
   12e1c:	f9dff06f          	j	12db8 <_vfprintf_r+0x13f8>
   12e20:	0c410613          	add	a2,sp,196
   12e24:	00048593          	mv	a1,s1
   12e28:	000b8513          	mv	a0,s7
   12e2c:	654010ef          	jal	14480 <__sprint_r>
   12e30:	a20518e3          	bnez	a0,12860 <_vfprintf_r+0xea0>
   12e34:	0cc12603          	lw	a2,204(sp)
   12e38:	00098a13          	mv	s4,s3
   12e3c:	f58ff06f          	j	12594 <_vfprintf_r+0xbd4>
   12e40:	001ac883          	lbu	a7,1(s5)
   12e44:	200ded93          	or	s11,s11,512
   12e48:	001a8a93          	add	s5,s5,1
   12e4c:	d09fe06f          	j	11b54 <_vfprintf_r+0x194>
   12e50:	001ac883          	lbu	a7,1(s5)
   12e54:	020ded93          	or	s11,s11,32
   12e58:	001a8a93          	add	s5,s5,1
   12e5c:	cf9fe06f          	j	11b54 <_vfprintf_r+0x194>
   12e60:	00600793          	li	a5,6
   12e64:	000b0913          	mv	s2,s6
   12e68:	1b67e2e3          	bltu	a5,s6,1380c <_vfprintf_r+0x1e4c>
   12e6c:	00090c13          	mv	s8,s2
   12e70:	01012623          	sw	a6,12(sp)
   12e74:	0000fd17          	auipc	s10,0xf
   12e78:	fb8d0d13          	add	s10,s10,-72 # 21e2c <__clzsi2+0xac>
   12e7c:	d4dfe06f          	j	11bc8 <_vfprintf_r+0x208>
   12e80:	01000593          	li	a1,16
   12e84:	0c812703          	lw	a4,200(sp)
   12e88:	0000f817          	auipc	a6,0xf
   12e8c:	28480813          	add	a6,a6,644 # 2210c <zeroes.0>
   12e90:	6965d863          	bge	a1,s6,13520 <_vfprintf_r+0x1b60>
   12e94:	03512823          	sw	s5,48(sp)
   12e98:	01000893          	li	a7,16
   12e9c:	00700913          	li	s2,7
   12ea0:	00080a93          	mv	s5,a6
   12ea4:	00c0006f          	j	12eb0 <_vfprintf_r+0x14f0>
   12ea8:	ff0b0b13          	add	s6,s6,-16
   12eac:	6768d663          	bge	a7,s6,13518 <_vfprintf_r+0x1b58>
   12eb0:	01060613          	add	a2,a2,16
   12eb4:	00170713          	add	a4,a4,1
   12eb8:	015a2023          	sw	s5,0(s4)
   12ebc:	011a2223          	sw	a7,4(s4)
   12ec0:	0cc12623          	sw	a2,204(sp)
   12ec4:	0ce12423          	sw	a4,200(sp)
   12ec8:	008a0a13          	add	s4,s4,8
   12ecc:	fce95ee3          	bge	s2,a4,12ea8 <_vfprintf_r+0x14e8>
   12ed0:	0c410613          	add	a2,sp,196
   12ed4:	00048593          	mv	a1,s1
   12ed8:	000b8513          	mv	a0,s7
   12edc:	5a4010ef          	jal	14480 <__sprint_r>
   12ee0:	980510e3          	bnez	a0,12860 <_vfprintf_r+0xea0>
   12ee4:	0cc12603          	lw	a2,204(sp)
   12ee8:	0c812703          	lw	a4,200(sp)
   12eec:	00098a13          	mv	s4,s3
   12ef0:	01000893          	li	a7,16
   12ef4:	fb5ff06f          	j	12ea8 <_vfprintf_r+0x14e8>
   12ef8:	02812703          	lw	a4,40(sp)
   12efc:	02412783          	lw	a5,36(sp)
   12f00:	00700513          	li	a0,7
   12f04:	00ea2023          	sw	a4,0(s4)
   12f08:	0c812703          	lw	a4,200(sp)
   12f0c:	00f60633          	add	a2,a2,a5
   12f10:	00fa2223          	sw	a5,4(s4)
   12f14:	00170713          	add	a4,a4,1
   12f18:	0cc12623          	sw	a2,204(sp)
   12f1c:	0ce12423          	sw	a4,200(sp)
   12f20:	008a0a13          	add	s4,s4,8
   12f24:	bce556e3          	bge	a0,a4,12af0 <_vfprintf_r+0x1130>
   12f28:	0c410613          	add	a2,sp,196
   12f2c:	00048593          	mv	a1,s1
   12f30:	000b8513          	mv	a0,s7
   12f34:	01d12823          	sw	t4,16(sp)
   12f38:	548010ef          	jal	14480 <__sprint_r>
   12f3c:	920512e3          	bnez	a0,12860 <_vfprintf_r+0xea0>
   12f40:	0ac12583          	lw	a1,172(sp)
   12f44:	0cc12603          	lw	a2,204(sp)
   12f48:	01012e83          	lw	t4,16(sp)
   12f4c:	00098a13          	mv	s4,s3
   12f50:	ba1ff06f          	j	12af0 <_vfprintf_r+0x1130>
   12f54:	07800793          	li	a5,120
   12f58:	03000713          	li	a4,48
   12f5c:	0ae10423          	sb	a4,168(sp)
   12f60:	0af104a3          	sb	a5,169(sp)
   12f64:	06300713          	li	a4,99
   12f68:	00012423          	sw	zero,8(sp)
   12f6c:	002ded93          	or	s11,s11,2
   12f70:	12c10d13          	add	s10,sp,300
   12f74:	01674463          	blt	a4,s6,12f7c <_vfprintf_r+0x15bc>
   12f78:	84cff06f          	j	11fc4 <_vfprintf_r+0x604>
   12f7c:	001b0593          	add	a1,s6,1
   12f80:	000b8513          	mv	a0,s7
   12f84:	01112423          	sw	a7,8(sp)
   12f88:	a68fe0ef          	jal	111f0 <_malloc_r>
   12f8c:	00812883          	lw	a7,8(sp)
   12f90:	00050d13          	mv	s10,a0
   12f94:	00051463          	bnez	a0,12f9c <_vfprintf_r+0x15dc>
   12f98:	2d40106f          	j	1426c <_vfprintf_r+0x28ac>
   12f9c:	00a12423          	sw	a0,8(sp)
   12fa0:	824ff06f          	j	11fc4 <_vfprintf_r+0x604>
   12fa4:	09010913          	add	s2,sp,144
   12fa8:	0ac10713          	add	a4,sp,172
   12fac:	0bc10813          	add	a6,sp,188
   12fb0:	0b010793          	add	a5,sp,176
   12fb4:	000b0693          	mv	a3,s6
   12fb8:	00200613          	li	a2,2
   12fbc:	00090593          	mv	a1,s2
   12fc0:	000b8513          	mv	a0,s7
   12fc4:	01112e23          	sw	a7,28(sp)
   12fc8:	09f12823          	sw	t6,144(sp)
   12fcc:	01f12c23          	sw	t6,24(sp)
   12fd0:	09e12a23          	sw	t5,148(sp)
   12fd4:	01e12a23          	sw	t5,20(sp)
   12fd8:	09d12c23          	sw	t4,152(sp)
   12fdc:	01d12823          	sw	t4,16(sp)
   12fe0:	09812e23          	sw	s8,156(sp)
   12fe4:	761030ef          	jal	16f44 <_ldtoa_r>
   12fe8:	001df713          	and	a4,s11,1
   12fec:	01012e83          	lw	t4,16(sp)
   12ff0:	01412f03          	lw	t5,20(sp)
   12ff4:	01812f83          	lw	t6,24(sp)
   12ff8:	01c12883          	lw	a7,28(sp)
   12ffc:	00050d13          	mv	s10,a0
   13000:	0a0716e3          	bnez	a4,138ac <_vfprintf_r+0x1eec>
   13004:	0ac12783          	lw	a5,172(sp)
   13008:	00f12823          	sw	a5,16(sp)
   1300c:	0bc12783          	lw	a5,188(sp)
   13010:	40a787b3          	sub	a5,a5,a0
   13014:	00f12a23          	sw	a5,20(sp)
   13018:	01012783          	lw	a5,16(sp)
   1301c:	ffd00713          	li	a4,-3
   13020:	00e7c463          	blt	a5,a4,13028 <_vfprintf_r+0x1668>
   13024:	5afb5ae3          	bge	s6,a5,13dd8 <_vfprintf_r+0x2418>
   13028:	01012783          	lw	a5,16(sp)
   1302c:	ffe88893          	add	a7,a7,-2
   13030:	fff78b13          	add	s6,a5,-1
   13034:	0b612623          	sw	s6,172(sp)
   13038:	0ff8f693          	zext.b	a3,a7
   1303c:	00000613          	li	a2,0
   13040:	0ad10a23          	sb	a3,180(sp)
   13044:	02b00693          	li	a3,43
   13048:	000b5a63          	bgez	s6,1305c <_vfprintf_r+0x169c>
   1304c:	01012783          	lw	a5,16(sp)
   13050:	00100713          	li	a4,1
   13054:	02d00693          	li	a3,45
   13058:	40f70b33          	sub	s6,a4,a5
   1305c:	0ad10aa3          	sb	a3,181(sp)
   13060:	00900693          	li	a3,9
   13064:	0166c463          	blt	a3,s6,1306c <_vfprintf_r+0x16ac>
   13068:	0300106f          	j	14098 <_vfprintf_r+0x26d8>
   1306c:	0c310613          	add	a2,sp,195
   13070:	00912c23          	sw	s1,24(sp)
   13074:	01112823          	sw	a7,16(sp)
   13078:	00060493          	mv	s1,a2
   1307c:	00a00593          	li	a1,10
   13080:	000b0513          	mv	a0,s6
   13084:	4cd0e0ef          	jal	21d50 <__modsi3>
   13088:	03050793          	add	a5,a0,48
   1308c:	00048c13          	mv	s8,s1
   13090:	fefc0fa3          	sb	a5,-1(s8)
   13094:	000b0513          	mv	a0,s6
   13098:	00a00593          	li	a1,10
   1309c:	4310e0ef          	jal	21ccc <__divsi3>
   130a0:	000b0913          	mv	s2,s6
   130a4:	06300793          	li	a5,99
   130a8:	fff48493          	add	s1,s1,-1
   130ac:	00050b13          	mv	s6,a0
   130b0:	fd27c6e3          	blt	a5,s2,1307c <_vfprintf_r+0x16bc>
   130b4:	00048613          	mv	a2,s1
   130b8:	03050713          	add	a4,a0,48
   130bc:	ffec0693          	add	a3,s8,-2
   130c0:	fee60fa3          	sb	a4,-1(a2)
   130c4:	0c310793          	add	a5,sp,195
   130c8:	01012883          	lw	a7,16(sp)
   130cc:	01812483          	lw	s1,24(sp)
   130d0:	00f6e463          	bltu	a3,a5,130d8 <_vfprintf_r+0x1718>
   130d4:	1500106f          	j	14224 <_vfprintf_r+0x2864>
   130d8:	0b610613          	add	a2,sp,182
   130dc:	0006c783          	lbu	a5,0(a3)
   130e0:	00168693          	add	a3,a3,1
   130e4:	00160613          	add	a2,a2,1
   130e8:	fef60fa3          	sb	a5,-1(a2)
   130ec:	0c310793          	add	a5,sp,195
   130f0:	fef696e3          	bne	a3,a5,130dc <_vfprintf_r+0x171c>
   130f4:	19010793          	add	a5,sp,400
   130f8:	41878733          	sub	a4,a5,s8
   130fc:	f3770793          	add	a5,a4,-201
   13100:	02f12c23          	sw	a5,56(sp)
   13104:	01412783          	lw	a5,20(sp)
   13108:	03812683          	lw	a3,56(sp)
   1310c:	00100713          	li	a4,1
   13110:	00d78933          	add	s2,a5,a3
   13114:	00f74463          	blt	a4,a5,1311c <_vfprintf_r+0x175c>
   13118:	7b10006f          	j	140c8 <_vfprintf_r+0x2708>
   1311c:	02412783          	lw	a5,36(sp)
   13120:	00f90933          	add	s2,s2,a5
   13124:	fff94693          	not	a3,s2
   13128:	bffdfe13          	and	t3,s11,-1025
   1312c:	41f6d693          	sra	a3,a3,0x1f
   13130:	100e6793          	or	a5,t3,256
   13134:	04f12223          	sw	a5,68(sp)
   13138:	00d97c33          	and	s8,s2,a3
   1313c:	00012e23          	sw	zero,28(sp)
   13140:	00012c23          	sw	zero,24(sp)
   13144:	00012823          	sw	zero,16(sp)
   13148:	03012783          	lw	a5,48(sp)
   1314c:	46078ae3          	beqz	a5,13dc0 <_vfprintf_r+0x2400>
   13150:	02d00713          	li	a4,45
   13154:	04412d83          	lw	s11,68(sp)
   13158:	0ae103a3          	sb	a4,167(sp)
   1315c:	00000b13          	li	s6,0
   13160:	001c0c13          	add	s8,s8,1
   13164:	a79fe06f          	j	11bdc <_vfprintf_r+0x21c>
   13168:	00c12683          	lw	a3,12(sp)
   1316c:	010df793          	and	a5,s11,16
   13170:	0006a703          	lw	a4,0(a3)
   13174:	00468693          	add	a3,a3,4
   13178:	00d12623          	sw	a3,12(sp)
   1317c:	06079663          	bnez	a5,131e8 <_vfprintf_r+0x1828>
   13180:	040df793          	and	a5,s11,64
   13184:	04078e63          	beqz	a5,131e0 <_vfprintf_r+0x1820>
   13188:	01071913          	sll	s2,a4,0x10
   1318c:	01095913          	srl	s2,s2,0x10
   13190:	00000813          	li	a6,0
   13194:	c49ff06f          	j	12ddc <_vfprintf_r+0x141c>
   13198:	0c410613          	add	a2,sp,196
   1319c:	00048593          	mv	a1,s1
   131a0:	000b8513          	mv	a0,s7
   131a4:	2dc010ef          	jal	14480 <__sprint_r>
   131a8:	ea051c63          	bnez	a0,12860 <_vfprintf_r+0xea0>
   131ac:	0cc12603          	lw	a2,204(sp)
   131b0:	0c812903          	lw	s2,200(sp)
   131b4:	00098b13          	mv	s6,s3
   131b8:	eddfe06f          	j	12094 <_vfprintf_r+0x6d4>
   131bc:	0c410613          	add	a2,sp,196
   131c0:	00048593          	mv	a1,s1
   131c4:	000b8513          	mv	a0,s7
   131c8:	2b8010ef          	jal	14480 <__sprint_r>
   131cc:	e8051a63          	bnez	a0,12860 <_vfprintf_r+0xea0>
   131d0:	0cc12603          	lw	a2,204(sp)
   131d4:	0c812903          	lw	s2,200(sp)
   131d8:	00098b13          	mv	s6,s3
   131dc:	ee9fe06f          	j	120c4 <_vfprintf_r+0x704>
   131e0:	200df793          	and	a5,s11,512
   131e4:	66079a63          	bnez	a5,13858 <_vfprintf_r+0x1e98>
   131e8:	00070913          	mv	s2,a4
   131ec:	00000813          	li	a6,0
   131f0:	bedff06f          	j	12ddc <_vfprintf_r+0x141c>
   131f4:	19010c13          	add	s8,sp,400
   131f8:	01512423          	sw	s5,8(sp)
   131fc:	01412e23          	sw	s4,28(sp)
   13200:	02912823          	sw	s1,48(sp)
   13204:	40067d93          	and	s11,a2,1024
   13208:	03412483          	lw	s1,52(sp)
   1320c:	00000d13          	li	s10,0
   13210:	01112823          	sw	a7,16(sp)
   13214:	00c12c23          	sw	a2,24(sp)
   13218:	000c0a13          	mv	s4,s8
   1321c:	00080a93          	mv	s5,a6
   13220:	0280006f          	j	13248 <_vfprintf_r+0x1888>
   13224:	00a00613          	li	a2,10
   13228:	00000693          	li	a3,0
   1322c:	00090513          	mv	a0,s2
   13230:	000a8593          	mv	a1,s5
   13234:	605080ef          	jal	1c038 <__udivdi3>
   13238:	420a82e3          	beqz	s5,13e5c <_vfprintf_r+0x249c>
   1323c:	00050913          	mv	s2,a0
   13240:	00058a93          	mv	s5,a1
   13244:	000c0a13          	mv	s4,s8
   13248:	00a00613          	li	a2,10
   1324c:	00000693          	li	a3,0
   13250:	00090513          	mv	a0,s2
   13254:	000a8593          	mv	a1,s5
   13258:	3a4090ef          	jal	1c5fc <__umoddi3>
   1325c:	03050513          	add	a0,a0,48
   13260:	feaa0fa3          	sb	a0,-1(s4)
   13264:	fffa0c13          	add	s8,s4,-1
   13268:	001d0d13          	add	s10,s10,1
   1326c:	fa0d8ce3          	beqz	s11,13224 <_vfprintf_r+0x1864>
   13270:	0004c783          	lbu	a5,0(s1)
   13274:	fafd18e3          	bne	s10,a5,13224 <_vfprintf_r+0x1864>
   13278:	0ff00793          	li	a5,255
   1327c:	fafd04e3          	beq	s10,a5,13224 <_vfprintf_r+0x1864>
   13280:	500a9263          	bnez	s5,13784 <_vfprintf_r+0x1dc4>
   13284:	00900793          	li	a5,9
   13288:	4f27ee63          	bltu	a5,s2,13784 <_vfprintf_r+0x1dc4>
   1328c:	01812603          	lw	a2,24(sp)
   13290:	01a12a23          	sw	s10,20(sp)
   13294:	19010793          	add	a5,sp,400
   13298:	000c0d13          	mv	s10,s8
   1329c:	02912a23          	sw	s1,52(sp)
   132a0:	00812a83          	lw	s5,8(sp)
   132a4:	01012883          	lw	a7,16(sp)
   132a8:	01c12a03          	lw	s4,28(sp)
   132ac:	03012483          	lw	s1,48(sp)
   132b0:	41a78933          	sub	s2,a5,s10
   132b4:	00060d93          	mv	s11,a2
   132b8:	b89fe06f          	j	11e40 <_vfprintf_r+0x480>
   132bc:	0c812703          	lw	a4,200(sp)
   132c0:	0000f517          	auipc	a0,0xf
   132c4:	b7450513          	add	a0,a0,-1164 # 21e34 <__clzsi2+0xb4>
   132c8:	00aa2023          	sw	a0,0(s4)
   132cc:	00160613          	add	a2,a2,1
   132d0:	00100513          	li	a0,1
   132d4:	00170713          	add	a4,a4,1
   132d8:	00aa2223          	sw	a0,4(s4)
   132dc:	0cc12623          	sw	a2,204(sp)
   132e0:	0ce12423          	sw	a4,200(sp)
   132e4:	00700513          	li	a0,7
   132e8:	008a0a13          	add	s4,s4,8
   132ec:	4ce54c63          	blt	a0,a4,137c4 <_vfprintf_r+0x1e04>
   132f0:	12059863          	bnez	a1,13420 <_vfprintf_r+0x1a60>
   132f4:	01412783          	lw	a5,20(sp)
   132f8:	001df713          	and	a4,s11,1
   132fc:	00f76733          	or	a4,a4,a5
   13300:	00071463          	bnez	a4,13308 <_vfprintf_r+0x1948>
   13304:	9a5fe06f          	j	11ca8 <_vfprintf_r+0x2e8>
   13308:	02812703          	lw	a4,40(sp)
   1330c:	02412783          	lw	a5,36(sp)
   13310:	00700593          	li	a1,7
   13314:	00ea2023          	sw	a4,0(s4)
   13318:	0c812703          	lw	a4,200(sp)
   1331c:	00c78633          	add	a2,a5,a2
   13320:	00fa2223          	sw	a5,4(s4)
   13324:	00170713          	add	a4,a4,1
   13328:	0cc12623          	sw	a2,204(sp)
   1332c:	0ce12423          	sw	a4,200(sp)
   13330:	54e5c863          	blt	a1,a4,13880 <_vfprintf_r+0x1ec0>
   13334:	008a0a13          	add	s4,s4,8
   13338:	11c0006f          	j	13454 <_vfprintf_r+0x1a94>
   1333c:	02012503          	lw	a0,32(sp)
   13340:	a3cfd0ef          	jal	1057c <__sinit>
   13344:	edcfe06f          	j	11a20 <_vfprintf_r+0x60>
   13348:	0c410613          	add	a2,sp,196
   1334c:	00048593          	mv	a1,s1
   13350:	000b8513          	mv	a0,s7
   13354:	12c010ef          	jal	14480 <__sprint_r>
   13358:	d0051463          	bnez	a0,12860 <_vfprintf_r+0xea0>
   1335c:	0cc12603          	lw	a2,204(sp)
   13360:	00098a13          	mv	s4,s3
   13364:	9f4ff06f          	j	12558 <_vfprintf_r+0xb98>
   13368:	000a8813          	mv	a6,s5
   1336c:	01012a83          	lw	s5,16(sp)
   13370:	01260633          	add	a2,a2,s2
   13374:	00178793          	add	a5,a5,1
   13378:	010a2023          	sw	a6,0(s4)
   1337c:	915fe06f          	j	11c90 <_vfprintf_r+0x2d0>
   13380:	0d012783          	lw	a5,208(sp)
   13384:	08010593          	add	a1,sp,128
   13388:	09010513          	add	a0,sp,144
   1338c:	08f12823          	sw	a5,144(sp)
   13390:	0d412783          	lw	a5,212(sp)
   13394:	08012023          	sw	zero,128(sp)
   13398:	08012223          	sw	zero,132(sp)
   1339c:	08f12a23          	sw	a5,148(sp)
   133a0:	0d812783          	lw	a5,216(sp)
   133a4:	08012423          	sw	zero,136(sp)
   133a8:	08012623          	sw	zero,140(sp)
   133ac:	08f12c23          	sw	a5,152(sp)
   133b0:	0dc12783          	lw	a5,220(sp)
   133b4:	08f12e23          	sw	a5,156(sp)
   133b8:	24d0b0ef          	jal	1ee04 <__letf2>
   133bc:	00812883          	lw	a7,8(sp)
   133c0:	2a0544e3          	bltz	a0,13e68 <_vfprintf_r+0x24a8>
   133c4:	0a714703          	lbu	a4,167(sp)
   133c8:	04700693          	li	a3,71
   133cc:	0000fd17          	auipc	s10,0xf
   133d0:	a2cd0d13          	add	s10,s10,-1492 # 21df8 <__clzsi2+0x78>
   133d4:	0116c663          	blt	a3,a7,133e0 <_vfprintf_r+0x1a20>
   133d8:	0000fd17          	auipc	s10,0xf
   133dc:	a1cd0d13          	add	s10,s10,-1508 # 21df4 <__clzsi2+0x74>
   133e0:	00012423          	sw	zero,8(sp)
   133e4:	00012e23          	sw	zero,28(sp)
   133e8:	00012c23          	sw	zero,24(sp)
   133ec:	00012823          	sw	zero,16(sp)
   133f0:	f7fdfd93          	and	s11,s11,-129
   133f4:	00300c13          	li	s8,3
   133f8:	00300913          	li	s2,3
   133fc:	00000b13          	li	s6,0
   13400:	00070463          	beqz	a4,13408 <_vfprintf_r+0x1a48>
   13404:	a61fe06f          	j	11e64 <_vfprintf_r+0x4a4>
   13408:	fd4fe06f          	j	11bdc <_vfprintf_r+0x21c>
   1340c:	00c12783          	lw	a5,12(sp)
   13410:	00412703          	lw	a4,4(sp)
   13414:	0007a783          	lw	a5,0(a5)
   13418:	00e7a023          	sw	a4,0(a5)
   1341c:	fedfe06f          	j	12408 <_vfprintf_r+0xa48>
   13420:	02812703          	lw	a4,40(sp)
   13424:	02412783          	lw	a5,36(sp)
   13428:	00700513          	li	a0,7
   1342c:	00ea2023          	sw	a4,0(s4)
   13430:	0c812703          	lw	a4,200(sp)
   13434:	00c78633          	add	a2,a5,a2
   13438:	00fa2223          	sw	a5,4(s4)
   1343c:	00170713          	add	a4,a4,1
   13440:	0cc12623          	sw	a2,204(sp)
   13444:	0ce12423          	sw	a4,200(sp)
   13448:	008a0a13          	add	s4,s4,8
   1344c:	42e54a63          	blt	a0,a4,13880 <_vfprintf_r+0x1ec0>
   13450:	2c05c2e3          	bltz	a1,13f14 <_vfprintf_r+0x2554>
   13454:	01412783          	lw	a5,20(sp)
   13458:	00170713          	add	a4,a4,1
   1345c:	01aa2023          	sw	s10,0(s4)
   13460:	00c78633          	add	a2,a5,a2
   13464:	00fa2223          	sw	a5,4(s4)
   13468:	0cc12623          	sw	a2,204(sp)
   1346c:	0ce12423          	sw	a4,200(sp)
   13470:	00700793          	li	a5,7
   13474:	00e7c463          	blt	a5,a4,1347c <_vfprintf_r+0x1abc>
   13478:	82dfe06f          	j	11ca4 <_vfprintf_r+0x2e4>
   1347c:	cedfe06f          	j	12168 <_vfprintf_r+0x7a8>
   13480:	000d0513          	mv	a0,s10
   13484:	01012423          	sw	a6,8(sp)
   13488:	03112823          	sw	a7,48(sp)
   1348c:	680030ef          	jal	16b0c <strlen>
   13490:	00812803          	lw	a6,8(sp)
   13494:	0a714703          	lbu	a4,167(sp)
   13498:	fff54693          	not	a3,a0
   1349c:	41f6d693          	sra	a3,a3,0x1f
   134a0:	01012623          	sw	a6,12(sp)
   134a4:	00012423          	sw	zero,8(sp)
   134a8:	00012e23          	sw	zero,28(sp)
   134ac:	00012c23          	sw	zero,24(sp)
   134b0:	00012823          	sw	zero,16(sp)
   134b4:	03012883          	lw	a7,48(sp)
   134b8:	00050913          	mv	s2,a0
   134bc:	00d57c33          	and	s8,a0,a3
   134c0:	00000b13          	li	s6,0
   134c4:	00070463          	beqz	a4,134cc <_vfprintf_r+0x1b0c>
   134c8:	99dfe06f          	j	11e64 <_vfprintf_r+0x4a4>
   134cc:	f10fe06f          	j	11bdc <_vfprintf_r+0x21c>
   134d0:	000a8813          	mv	a6,s5
   134d4:	01012a83          	lw	s5,16(sp)
   134d8:	01460633          	add	a2,a2,s4
   134dc:	00190913          	add	s2,s2,1
   134e0:	010b2023          	sw	a6,0(s6)
   134e4:	c41fe06f          	j	12124 <_vfprintf_r+0x764>
   134e8:	0dc12783          	lw	a5,220(sp)
   134ec:	3607dc63          	bgez	a5,13864 <_vfprintf_r+0x1ea4>
   134f0:	02d00793          	li	a5,45
   134f4:	0af103a3          	sb	a5,167(sp)
   134f8:	02d00713          	li	a4,45
   134fc:	04700693          	li	a3,71
   13500:	0000fd17          	auipc	s10,0xf
   13504:	900d0d13          	add	s10,s10,-1792 # 21e00 <__clzsi2+0x80>
   13508:	ed16cce3          	blt	a3,a7,133e0 <_vfprintf_r+0x1a20>
   1350c:	0000fd17          	auipc	s10,0xf
   13510:	8f0d0d13          	add	s10,s10,-1808 # 21dfc <__clzsi2+0x7c>
   13514:	ecdff06f          	j	133e0 <_vfprintf_r+0x1a20>
   13518:	000a8813          	mv	a6,s5
   1351c:	03012a83          	lw	s5,48(sp)
   13520:	01660633          	add	a2,a2,s6
   13524:	00170713          	add	a4,a4,1
   13528:	010a2023          	sw	a6,0(s4)
   1352c:	016a2223          	sw	s6,4(s4)
   13530:	0cc12623          	sw	a2,204(sp)
   13534:	0ce12423          	sw	a4,200(sp)
   13538:	00700593          	li	a1,7
   1353c:	008a0a13          	add	s4,s4,8
   13540:	d8e5d663          	bge	a1,a4,12acc <_vfprintf_r+0x110c>
   13544:	0c410613          	add	a2,sp,196
   13548:	00048593          	mv	a1,s1
   1354c:	000b8513          	mv	a0,s7
   13550:	731000ef          	jal	14480 <__sprint_r>
   13554:	b0051663          	bnez	a0,12860 <_vfprintf_r+0xea0>
   13558:	0cc12603          	lw	a2,204(sp)
   1355c:	00098a13          	mv	s4,s3
   13560:	d6cff06f          	j	12acc <_vfprintf_r+0x110c>
   13564:	01412783          	lw	a5,20(sp)
   13568:	01812903          	lw	s2,24(sp)
   1356c:	03512823          	sw	s5,48(sp)
   13570:	00fd07b3          	add	a5,s10,a5
   13574:	05b12223          	sw	s11,68(sp)
   13578:	05912423          	sw	s9,72(sp)
   1357c:	01c12d83          	lw	s11,28(sp)
   13580:	05a12623          	sw	s10,76(sp)
   13584:	01812e23          	sw	s8,28(sp)
   13588:	00f12823          	sw	a5,16(sp)
   1358c:	03412c83          	lw	s9,52(sp)
   13590:	04012a83          	lw	s5,64(sp)
   13594:	03c12c03          	lw	s8,60(sp)
   13598:	00700813          	li	a6,7
   1359c:	01000713          	li	a4,16
   135a0:	0000fb17          	auipc	s6,0xf
   135a4:	b6cb0b13          	add	s6,s6,-1172 # 2210c <zeroes.0>
   135a8:	000a0593          	mv	a1,s4
   135ac:	000e8d13          	mv	s10,t4
   135b0:	09205663          	blez	s2,1363c <_vfprintf_r+0x1c7c>
   135b4:	17b05863          	blez	s11,13724 <_vfprintf_r+0x1d64>
   135b8:	fffd8d93          	add	s11,s11,-1
   135bc:	0c812783          	lw	a5,200(sp)
   135c0:	01860633          	add	a2,a2,s8
   135c4:	0155a023          	sw	s5,0(a1)
   135c8:	00178793          	add	a5,a5,1
   135cc:	0185a223          	sw	s8,4(a1)
   135d0:	0cc12623          	sw	a2,204(sp)
   135d4:	0cf12423          	sw	a5,200(sp)
   135d8:	00858593          	add	a1,a1,8
   135dc:	14f84a63          	blt	a6,a5,13730 <_vfprintf_r+0x1d70>
   135e0:	01012783          	lw	a5,16(sp)
   135e4:	000cc683          	lbu	a3,0(s9)
   135e8:	41a78a33          	sub	s4,a5,s10
   135ec:	0146d463          	bge	a3,s4,135f4 <_vfprintf_r+0x1c34>
   135f0:	00068a13          	mv	s4,a3
   135f4:	03405663          	blez	s4,13620 <_vfprintf_r+0x1c60>
   135f8:	0c812683          	lw	a3,200(sp)
   135fc:	01460633          	add	a2,a2,s4
   13600:	01a5a023          	sw	s10,0(a1)
   13604:	00168693          	add	a3,a3,1
   13608:	0145a223          	sw	s4,4(a1)
   1360c:	0cc12623          	sw	a2,204(sp)
   13610:	0cd12423          	sw	a3,200(sp)
   13614:	14d84263          	blt	a6,a3,13758 <_vfprintf_r+0x1d98>
   13618:	000cc683          	lbu	a3,0(s9)
   1361c:	00858593          	add	a1,a1,8
   13620:	fffa4513          	not	a0,s4
   13624:	41f55513          	sra	a0,a0,0x1f
   13628:	00aa77b3          	and	a5,s4,a0
   1362c:	40f68a33          	sub	s4,a3,a5
   13630:	05404263          	bgtz	s4,13674 <_vfprintf_r+0x1cb4>
   13634:	00dd0d33          	add	s10,s10,a3
   13638:	f7204ee3          	bgtz	s2,135b4 <_vfprintf_r+0x1bf4>
   1363c:	f7b04ee3          	bgtz	s11,135b8 <_vfprintf_r+0x1bf8>
   13640:	01412783          	lw	a5,20(sp)
   13644:	000d0e93          	mv	t4,s10
   13648:	04c12d03          	lw	s10,76(sp)
   1364c:	03912a23          	sw	s9,52(sp)
   13650:	03012a83          	lw	s5,48(sp)
   13654:	00fd0733          	add	a4,s10,a5
   13658:	04412d83          	lw	s11,68(sp)
   1365c:	04812c83          	lw	s9,72(sp)
   13660:	01c12c03          	lw	s8,28(sp)
   13664:	00058a13          	mv	s4,a1
   13668:	c7d77a63          	bgeu	a4,t4,12adc <_vfprintf_r+0x111c>
   1366c:	00070e93          	mv	t4,a4
   13670:	c6cff06f          	j	12adc <_vfprintf_r+0x111c>
   13674:	0c812683          	lw	a3,200(sp)
   13678:	0000ff17          	auipc	t5,0xf
   1367c:	a94f0f13          	add	t5,t5,-1388 # 2210c <zeroes.0>
   13680:	07475c63          	bge	a4,s4,136f8 <_vfprintf_r+0x1d38>
   13684:	01212c23          	sw	s2,24(sp)
   13688:	000a0913          	mv	s2,s4
   1368c:	000b0a13          	mv	s4,s6
   13690:	00c0006f          	j	1369c <_vfprintf_r+0x1cdc>
   13694:	ff090913          	add	s2,s2,-16
   13698:	05275a63          	bge	a4,s2,136ec <_vfprintf_r+0x1d2c>
   1369c:	01060613          	add	a2,a2,16
   136a0:	00168693          	add	a3,a3,1
   136a4:	0165a023          	sw	s6,0(a1)
   136a8:	00e5a223          	sw	a4,4(a1)
   136ac:	0cc12623          	sw	a2,204(sp)
   136b0:	0cd12423          	sw	a3,200(sp)
   136b4:	00858593          	add	a1,a1,8
   136b8:	fcd85ee3          	bge	a6,a3,13694 <_vfprintf_r+0x1cd4>
   136bc:	0c410613          	add	a2,sp,196
   136c0:	00048593          	mv	a1,s1
   136c4:	000b8513          	mv	a0,s7
   136c8:	5b9000ef          	jal	14480 <__sprint_r>
   136cc:	98051a63          	bnez	a0,12860 <_vfprintf_r+0xea0>
   136d0:	01000713          	li	a4,16
   136d4:	ff090913          	add	s2,s2,-16
   136d8:	0cc12603          	lw	a2,204(sp)
   136dc:	0c812683          	lw	a3,200(sp)
   136e0:	00098593          	mv	a1,s3
   136e4:	00700813          	li	a6,7
   136e8:	fb274ae3          	blt	a4,s2,1369c <_vfprintf_r+0x1cdc>
   136ec:	000a0f13          	mv	t5,s4
   136f0:	00090a13          	mv	s4,s2
   136f4:	01812903          	lw	s2,24(sp)
   136f8:	01460633          	add	a2,a2,s4
   136fc:	00168693          	add	a3,a3,1
   13700:	01e5a023          	sw	t5,0(a1)
   13704:	0145a223          	sw	s4,4(a1)
   13708:	0cc12623          	sw	a2,204(sp)
   1370c:	0cd12423          	sw	a3,200(sp)
   13710:	70d84c63          	blt	a6,a3,13e28 <_vfprintf_r+0x2468>
   13714:	000cc683          	lbu	a3,0(s9)
   13718:	00858593          	add	a1,a1,8
   1371c:	00dd0d33          	add	s10,s10,a3
   13720:	f19ff06f          	j	13638 <_vfprintf_r+0x1c78>
   13724:	fffc8c93          	add	s9,s9,-1
   13728:	fff90913          	add	s2,s2,-1
   1372c:	e91ff06f          	j	135bc <_vfprintf_r+0x1bfc>
   13730:	0c410613          	add	a2,sp,196
   13734:	00048593          	mv	a1,s1
   13738:	000b8513          	mv	a0,s7
   1373c:	545000ef          	jal	14480 <__sprint_r>
   13740:	92051063          	bnez	a0,12860 <_vfprintf_r+0xea0>
   13744:	0cc12603          	lw	a2,204(sp)
   13748:	00098593          	mv	a1,s3
   1374c:	01000713          	li	a4,16
   13750:	00700813          	li	a6,7
   13754:	e8dff06f          	j	135e0 <_vfprintf_r+0x1c20>
   13758:	0c410613          	add	a2,sp,196
   1375c:	00048593          	mv	a1,s1
   13760:	000b8513          	mv	a0,s7
   13764:	51d000ef          	jal	14480 <__sprint_r>
   13768:	8e051c63          	bnez	a0,12860 <_vfprintf_r+0xea0>
   1376c:	000cc683          	lbu	a3,0(s9)
   13770:	0cc12603          	lw	a2,204(sp)
   13774:	00098593          	mv	a1,s3
   13778:	01000713          	li	a4,16
   1377c:	00700813          	li	a6,7
   13780:	ea1ff06f          	j	13620 <_vfprintf_r+0x1c60>
   13784:	03c12783          	lw	a5,60(sp)
   13788:	04012583          	lw	a1,64(sp)
   1378c:	00000d13          	li	s10,0
   13790:	40fc0c33          	sub	s8,s8,a5
   13794:	00078613          	mv	a2,a5
   13798:	000c0513          	mv	a0,s8
   1379c:	651020ef          	jal	165ec <strncpy>
   137a0:	0014c783          	lbu	a5,1(s1)
   137a4:	00a00613          	li	a2,10
   137a8:	00000693          	li	a3,0
   137ac:	00f037b3          	snez	a5,a5
   137b0:	00090513          	mv	a0,s2
   137b4:	000a8593          	mv	a1,s5
   137b8:	00f484b3          	add	s1,s1,a5
   137bc:	07d080ef          	jal	1c038 <__udivdi3>
   137c0:	a7dff06f          	j	1323c <_vfprintf_r+0x187c>
   137c4:	0c410613          	add	a2,sp,196
   137c8:	00048593          	mv	a1,s1
   137cc:	000b8513          	mv	a0,s7
   137d0:	4b1000ef          	jal	14480 <__sprint_r>
   137d4:	88051663          	bnez	a0,12860 <_vfprintf_r+0xea0>
   137d8:	0ac12583          	lw	a1,172(sp)
   137dc:	0cc12603          	lw	a2,204(sp)
   137e0:	00098a13          	mv	s4,s3
   137e4:	b0dff06f          	j	132f0 <_vfprintf_r+0x1930>
   137e8:	0c410613          	add	a2,sp,196
   137ec:	00048593          	mv	a1,s1
   137f0:	000b8513          	mv	a0,s7
   137f4:	48d000ef          	jal	14480 <__sprint_r>
   137f8:	00050463          	beqz	a0,13800 <_vfprintf_r+0x1e40>
   137fc:	864ff06f          	j	12860 <_vfprintf_r+0xea0>
   13800:	0cc12603          	lw	a2,204(sp)
   13804:	00098a13          	mv	s4,s3
   13808:	aacff06f          	j	12ab4 <_vfprintf_r+0x10f4>
   1380c:	00600913          	li	s2,6
   13810:	e5cff06f          	j	12e6c <_vfprintf_r+0x14ac>
   13814:	00c12783          	lw	a5,12(sp)
   13818:	00412703          	lw	a4,4(sp)
   1381c:	0007a783          	lw	a5,0(a5)
   13820:	00e79023          	sh	a4,0(a5)
   13824:	be5fe06f          	j	12408 <_vfprintf_r+0xa48>
   13828:	0ff77913          	zext.b	s2,a4
   1382c:	00000813          	li	a6,0
   13830:	e64fe06f          	j	11e94 <_vfprintf_r+0x4d4>
   13834:	0ff77913          	zext.b	s2,a4
   13838:	00000813          	li	a6,0
   1383c:	00100793          	li	a5,1
   13840:	e5cfe06f          	j	11e9c <_vfprintf_r+0x4dc>
   13844:	01871913          	sll	s2,a4,0x18
   13848:	41895913          	sra	s2,s2,0x18
   1384c:	41f95813          	sra	a6,s2,0x1f
   13850:	00080793          	mv	a5,a6
   13854:	dc4fe06f          	j	11e18 <_vfprintf_r+0x458>
   13858:	0ff77913          	zext.b	s2,a4
   1385c:	00000813          	li	a6,0
   13860:	d7cff06f          	j	12ddc <_vfprintf_r+0x141c>
   13864:	0a714703          	lbu	a4,167(sp)
   13868:	c95ff06f          	j	134fc <_vfprintf_r+0x1b3c>
   1386c:	02012503          	lw	a0,32(sp)
   13870:	0c410613          	add	a2,sp,196
   13874:	00048593          	mv	a1,s1
   13878:	409000ef          	jal	14480 <__sprint_r>
   1387c:	c8cfe06f          	j	11d08 <_vfprintf_r+0x348>
   13880:	0c410613          	add	a2,sp,196
   13884:	00048593          	mv	a1,s1
   13888:	000b8513          	mv	a0,s7
   1388c:	3f5000ef          	jal	14480 <__sprint_r>
   13890:	00050463          	beqz	a0,13898 <_vfprintf_r+0x1ed8>
   13894:	fcdfe06f          	j	12860 <_vfprintf_r+0xea0>
   13898:	0ac12583          	lw	a1,172(sp)
   1389c:	0cc12603          	lw	a2,204(sp)
   138a0:	0c812703          	lw	a4,200(sp)
   138a4:	00098a13          	mv	s4,s3
   138a8:	ba9ff06f          	j	13450 <_vfprintf_r+0x1a90>
   138ac:	01650733          	add	a4,a0,s6
   138b0:	04700613          	li	a2,71
   138b4:	08010593          	add	a1,sp,128
   138b8:	00090513          	mv	a0,s2
   138bc:	00e12c23          	sw	a4,24(sp)
   138c0:	00c12a23          	sw	a2,20(sp)
   138c4:	01112823          	sw	a7,16(sp)
   138c8:	09f12823          	sw	t6,144(sp)
   138cc:	09e12a23          	sw	t5,148(sp)
   138d0:	09d12c23          	sw	t4,152(sp)
   138d4:	09812e23          	sw	s8,156(sp)
   138d8:	08012023          	sw	zero,128(sp)
   138dc:	08012223          	sw	zero,132(sp)
   138e0:	08012423          	sw	zero,136(sp)
   138e4:	08012623          	sw	zero,140(sp)
   138e8:	3200b0ef          	jal	1ec08 <__eqtf2>
   138ec:	01012883          	lw	a7,16(sp)
   138f0:	01412603          	lw	a2,20(sp)
   138f4:	01812703          	lw	a4,24(sp)
   138f8:	5c050e63          	beqz	a0,13ed4 <_vfprintf_r+0x2514>
   138fc:	0bc12783          	lw	a5,188(sp)
   13900:	00e7fe63          	bgeu	a5,a4,1391c <_vfprintf_r+0x1f5c>
   13904:	03000593          	li	a1,48
   13908:	00178693          	add	a3,a5,1
   1390c:	0ad12e23          	sw	a3,188(sp)
   13910:	00b78023          	sb	a1,0(a5)
   13914:	0bc12783          	lw	a5,188(sp)
   13918:	fee7e8e3          	bltu	a5,a4,13908 <_vfprintf_r+0x1f48>
   1391c:	0ac12703          	lw	a4,172(sp)
   13920:	00e12823          	sw	a4,16(sp)
   13924:	41a787b3          	sub	a5,a5,s10
   13928:	04700713          	li	a4,71
   1392c:	00f12a23          	sw	a5,20(sp)
   13930:	eee60463          	beq	a2,a4,13018 <_vfprintf_r+0x1658>
   13934:	04600713          	li	a4,70
   13938:	6ee60863          	beq	a2,a4,14028 <_vfprintf_r+0x2668>
   1393c:	01012783          	lw	a5,16(sp)
   13940:	fff78b13          	add	s6,a5,-1
   13944:	ef0ff06f          	j	13034 <_vfprintf_r+0x1674>
   13948:	001b0693          	add	a3,s6,1
   1394c:	00200613          	li	a2,2
   13950:	09010913          	add	s2,sp,144
   13954:	0ac10713          	add	a4,sp,172
   13958:	00090593          	mv	a1,s2
   1395c:	0bc10813          	add	a6,sp,188
   13960:	0b010793          	add	a5,sp,176
   13964:	000b8513          	mv	a0,s7
   13968:	05112423          	sw	a7,72(sp)
   1396c:	00d12e23          	sw	a3,28(sp)
   13970:	09f12823          	sw	t6,144(sp)
   13974:	01f12c23          	sw	t6,24(sp)
   13978:	09e12a23          	sw	t5,148(sp)
   1397c:	01e12a23          	sw	t5,20(sp)
   13980:	09d12c23          	sw	t4,152(sp)
   13984:	01d12823          	sw	t4,16(sp)
   13988:	09812e23          	sw	s8,156(sp)
   1398c:	5b8030ef          	jal	16f44 <_ldtoa_r>
   13990:	04812883          	lw	a7,72(sp)
   13994:	01c12683          	lw	a3,28(sp)
   13998:	04600593          	li	a1,70
   1399c:	fdf8f613          	and	a2,a7,-33
   139a0:	01012e83          	lw	t4,16(sp)
   139a4:	01412f03          	lw	t5,20(sp)
   139a8:	01812f83          	lw	t6,24(sp)
   139ac:	00050d13          	mv	s10,a0
   139b0:	00d50733          	add	a4,a0,a3
   139b4:	0ab610e3          	bne	a2,a1,14254 <_vfprintf_r+0x2894>
   139b8:	000d4503          	lbu	a0,0(s10)
   139bc:	03000593          	li	a1,48
   139c0:	5eb50263          	beq	a0,a1,13fa4 <_vfprintf_r+0x25e4>
   139c4:	0ac12683          	lw	a3,172(sp)
   139c8:	08010593          	add	a1,sp,128
   139cc:	00d70733          	add	a4,a4,a3
   139d0:	ee9ff06f          	j	138b8 <_vfprintf_r+0x1ef8>
   139d4:	09010913          	add	s2,sp,144
   139d8:	08010593          	add	a1,sp,128
   139dc:	0ac10613          	add	a2,sp,172
   139e0:	00090513          	mv	a0,s2
   139e4:	05112223          	sw	a7,68(sp)
   139e8:	09f12023          	sw	t6,128(sp)
   139ec:	09e12223          	sw	t5,132(sp)
   139f0:	09d12423          	sw	t4,136(sp)
   139f4:	00b12823          	sw	a1,16(sp)
   139f8:	09812623          	sw	s8,140(sp)
   139fc:	318030ef          	jal	16d14 <frexpl>
   13a00:	09012803          	lw	a6,144(sp)
   13a04:	0000e717          	auipc	a4,0xe
   13a08:	72c70713          	add	a4,a4,1836 # 22130 <blanks.1+0x14>
   13a0c:	00072503          	lw	a0,0(a4)
   13a10:	09012023          	sw	a6,128(sp)
   13a14:	09412803          	lw	a6,148(sp)
   13a18:	00472603          	lw	a2,4(a4)
   13a1c:	00872683          	lw	a3,8(a4)
   13a20:	09012223          	sw	a6,132(sp)
   13a24:	09812803          	lw	a6,152(sp)
   13a28:	00c72703          	lw	a4,12(a4)
   13a2c:	01012583          	lw	a1,16(sp)
   13a30:	09012423          	sw	a6,136(sp)
   13a34:	09c12803          	lw	a6,156(sp)
   13a38:	06a12823          	sw	a0,112(sp)
   13a3c:	06c12a23          	sw	a2,116(sp)
   13a40:	00090513          	mv	a0,s2
   13a44:	07010613          	add	a2,sp,112
   13a48:	09012623          	sw	a6,140(sp)
   13a4c:	06d12c23          	sw	a3,120(sp)
   13a50:	06e12e23          	sw	a4,124(sp)
   13a54:	4e00b0ef          	jal	1ef34 <__multf3>
   13a58:	01012583          	lw	a1,16(sp)
   13a5c:	09012f03          	lw	t5,144(sp)
   13a60:	09412e83          	lw	t4,148(sp)
   13a64:	09812803          	lw	a6,152(sp)
   13a68:	09c12603          	lw	a2,156(sp)
   13a6c:	00090513          	mv	a0,s2
   13a70:	02b12c23          	sw	a1,56(sp)
   13a74:	01e12e23          	sw	t5,28(sp)
   13a78:	01d12c23          	sw	t4,24(sp)
   13a7c:	01012a23          	sw	a6,20(sp)
   13a80:	00c12823          	sw	a2,16(sp)
   13a84:	08012023          	sw	zero,128(sp)
   13a88:	08012223          	sw	zero,132(sp)
   13a8c:	08012423          	sw	zero,136(sp)
   13a90:	08012623          	sw	zero,140(sp)
   13a94:	1740b0ef          	jal	1ec08 <__eqtf2>
   13a98:	01012603          	lw	a2,16(sp)
   13a9c:	01412803          	lw	a6,20(sp)
   13aa0:	01812e83          	lw	t4,24(sp)
   13aa4:	01c12f03          	lw	t5,28(sp)
   13aa8:	03812583          	lw	a1,56(sp)
   13aac:	04412883          	lw	a7,68(sp)
   13ab0:	00051663          	bnez	a0,13abc <_vfprintf_r+0x20fc>
   13ab4:	00100713          	li	a4,1
   13ab8:	0ae12623          	sw	a4,172(sp)
   13abc:	0000e797          	auipc	a5,0xe
   13ac0:	35c78793          	add	a5,a5,860 # 21e18 <__clzsi2+0x98>
   13ac4:	06100713          	li	a4,97
   13ac8:	00f12823          	sw	a5,16(sp)
   13acc:	00e89863          	bne	a7,a4,13adc <_vfprintf_r+0x211c>
   13ad0:	0000e797          	auipc	a5,0xe
   13ad4:	33478793          	add	a5,a5,820 # 21e04 <__clzsi2+0x84>
   13ad8:	00f12823          	sw	a5,16(sp)
   13adc:	0000e717          	auipc	a4,0xe
   13ae0:	66470713          	add	a4,a4,1636 # 22140 <blanks.1+0x24>
   13ae4:	00072783          	lw	a5,0(a4)
   13ae8:	03512c23          	sw	s5,56(sp)
   13aec:	05b12423          	sw	s11,72(sp)
   13af0:	00f12a23          	sw	a5,20(sp)
   13af4:	00472783          	lw	a5,4(a4)
   13af8:	05412823          	sw	s4,80(sp)
   13afc:	000d0a93          	mv	s5,s10
   13b00:	00f12c23          	sw	a5,24(sp)
   13b04:	00872783          	lw	a5,8(a4)
   13b08:	05712a23          	sw	s7,84(sp)
   13b0c:	04912c23          	sw	s1,88(sp)
   13b10:	00f12e23          	sw	a5,28(sp)
   13b14:	00c72783          	lw	a5,12(a4)
   13b18:	05a12e23          	sw	s10,92(sp)
   13b1c:	fffb0b13          	add	s6,s6,-1
   13b20:	05112223          	sw	a7,68(sp)
   13b24:	05912623          	sw	s9,76(sp)
   13b28:	00078d13          	mv	s10,a5
   13b2c:	000f0d93          	mv	s11,t5
   13b30:	000e8a13          	mv	s4,t4
   13b34:	00080b93          	mv	s7,a6
   13b38:	00060c13          	mv	s8,a2
   13b3c:	00058493          	mv	s1,a1
   13b40:	03c0006f          	j	13b7c <_vfprintf_r+0x21bc>
   13b44:	00048593          	mv	a1,s1
   13b48:	00090513          	mv	a0,s2
   13b4c:	09b12823          	sw	s11,144(sp)
   13b50:	09412a23          	sw	s4,148(sp)
   13b54:	09712c23          	sw	s7,152(sp)
   13b58:	09812e23          	sw	s8,156(sp)
   13b5c:	08012023          	sw	zero,128(sp)
   13b60:	08012223          	sw	zero,132(sp)
   13b64:	08012423          	sw	zero,136(sp)
   13b68:	08012623          	sw	zero,140(sp)
   13b6c:	fffb0c93          	add	s9,s6,-1
   13b70:	0980b0ef          	jal	1ec08 <__eqtf2>
   13b74:	5e050c63          	beqz	a0,1416c <_vfprintf_r+0x27ac>
   13b78:	000c8b13          	mv	s6,s9
   13b7c:	01412783          	lw	a5,20(sp)
   13b80:	07010613          	add	a2,sp,112
   13b84:	00048593          	mv	a1,s1
   13b88:	06f12823          	sw	a5,112(sp)
   13b8c:	01812783          	lw	a5,24(sp)
   13b90:	00090513          	mv	a0,s2
   13b94:	09b12023          	sw	s11,128(sp)
   13b98:	06f12a23          	sw	a5,116(sp)
   13b9c:	01c12783          	lw	a5,28(sp)
   13ba0:	09412223          	sw	s4,132(sp)
   13ba4:	09712423          	sw	s7,136(sp)
   13ba8:	06f12c23          	sw	a5,120(sp)
   13bac:	09812623          	sw	s8,140(sp)
   13bb0:	07a12e23          	sw	s10,124(sp)
   13bb4:	3800b0ef          	jal	1ef34 <__multf3>
   13bb8:	00090513          	mv	a0,s2
   13bbc:	4990d0ef          	jal	21854 <__fixtfsi>
   13bc0:	00050593          	mv	a1,a0
   13bc4:	00050c93          	mv	s9,a0
   13bc8:	00090513          	mv	a0,s2
   13bcc:	09012d83          	lw	s11,144(sp)
   13bd0:	09412c03          	lw	s8,148(sp)
   13bd4:	09812b83          	lw	s7,152(sp)
   13bd8:	09c12a03          	lw	s4,156(sp)
   13bdc:	5710d0ef          	jal	2194c <__floatsitf>
   13be0:	09012683          	lw	a3,144(sp)
   13be4:	06010613          	add	a2,sp,96
   13be8:	07010593          	add	a1,sp,112
   13bec:	06d12023          	sw	a3,96(sp)
   13bf0:	09412683          	lw	a3,148(sp)
   13bf4:	00048513          	mv	a0,s1
   13bf8:	07b12823          	sw	s11,112(sp)
   13bfc:	06d12223          	sw	a3,100(sp)
   13c00:	09812683          	lw	a3,152(sp)
   13c04:	07812a23          	sw	s8,116(sp)
   13c08:	07712c23          	sw	s7,120(sp)
   13c0c:	06d12423          	sw	a3,104(sp)
   13c10:	09c12683          	lw	a3,156(sp)
   13c14:	07412e23          	sw	s4,124(sp)
   13c18:	06d12623          	sw	a3,108(sp)
   13c1c:	6cc0c0ef          	jal	202e8 <__subtf3>
   13c20:	01012783          	lw	a5,16(sp)
   13c24:	000a8f93          	mv	t6,s5
   13c28:	001a8a93          	add	s5,s5,1
   13c2c:	019786b3          	add	a3,a5,s9
   13c30:	0006c683          	lbu	a3,0(a3)
   13c34:	08012d83          	lw	s11,128(sp)
   13c38:	08412a03          	lw	s4,132(sp)
   13c3c:	08812b83          	lw	s7,136(sp)
   13c40:	08c12c03          	lw	s8,140(sp)
   13c44:	fff00793          	li	a5,-1
   13c48:	feda8fa3          	sb	a3,-1(s5)
   13c4c:	eefb1ce3          	bne	s6,a5,13b44 <_vfprintf_r+0x2184>
   13c50:	0000e517          	auipc	a0,0xe
   13c54:	50050513          	add	a0,a0,1280 # 22150 <blanks.1+0x34>
   13c58:	04412883          	lw	a7,68(sp)
   13c5c:	00452283          	lw	t0,4(a0)
   13c60:	00852383          	lw	t2,8(a0)
   13c64:	00c52783          	lw	a5,12(a0)
   13c68:	00052b03          	lw	s6,0(a0)
   13c6c:	000d8f13          	mv	t5,s11
   13c70:	000a0e93          	mv	t4,s4
   13c74:	000b8813          	mv	a6,s7
   13c78:	000c0613          	mv	a2,s8
   13c7c:	00048593          	mv	a1,s1
   13c80:	05c12d03          	lw	s10,92(sp)
   13c84:	04812d83          	lw	s11,72(sp)
   13c88:	05012a03          	lw	s4,80(sp)
   13c8c:	05412b83          	lw	s7,84(sp)
   13c90:	05812483          	lw	s1,88(sp)
   13c94:	01f12c23          	sw	t6,24(sp)
   13c98:	01112a23          	sw	a7,20(sp)
   13c9c:	05912e23          	sw	s9,92(sp)
   13ca0:	000a8c13          	mv	s8,s5
   13ca4:	04c12c83          	lw	s9,76(sp)
   13ca8:	03812a83          	lw	s5,56(sp)
   13cac:	09e12823          	sw	t5,144(sp)
   13cb0:	05e12c23          	sw	t5,88(sp)
   13cb4:	09d12a23          	sw	t4,148(sp)
   13cb8:	05d12a23          	sw	t4,84(sp)
   13cbc:	09012c23          	sw	a6,152(sp)
   13cc0:	05012823          	sw	a6,80(sp)
   13cc4:	08c12e23          	sw	a2,156(sp)
   13cc8:	04c12623          	sw	a2,76(sp)
   13ccc:	09612023          	sw	s6,128(sp)
   13cd0:	08512223          	sw	t0,132(sp)
   13cd4:	04512423          	sw	t0,72(sp)
   13cd8:	08712423          	sw	t2,136(sp)
   13cdc:	04712223          	sw	t2,68(sp)
   13ce0:	08f12623          	sw	a5,140(sp)
   13ce4:	02f12c23          	sw	a5,56(sp)
   13ce8:	00b12e23          	sw	a1,28(sp)
   13cec:	00090513          	mv	a0,s2
   13cf0:	7e50a0ef          	jal	1ecd4 <__getf2>
   13cf4:	01412883          	lw	a7,20(sp)
   13cf8:	01812f83          	lw	t6,24(sp)
   13cfc:	02a04863          	bgtz	a0,13d2c <_vfprintf_r+0x236c>
   13d00:	01c12583          	lw	a1,28(sp)
   13d04:	00090513          	mv	a0,s2
   13d08:	01112c23          	sw	a7,24(sp)
   13d0c:	01f12a23          	sw	t6,20(sp)
   13d10:	6f90a0ef          	jal	1ec08 <__eqtf2>
   13d14:	01812883          	lw	a7,24(sp)
   13d18:	04051e63          	bnez	a0,13d74 <_vfprintf_r+0x23b4>
   13d1c:	05c12703          	lw	a4,92(sp)
   13d20:	01412f83          	lw	t6,20(sp)
   13d24:	00177693          	and	a3,a4,1
   13d28:	04068663          	beqz	a3,13d74 <_vfprintf_r+0x23b4>
   13d2c:	01012783          	lw	a5,16(sp)
   13d30:	0bf12e23          	sw	t6,188(sp)
   13d34:	fffc4603          	lbu	a2,-1(s8)
   13d38:	00f7c583          	lbu	a1,15(a5)
   13d3c:	000c0693          	mv	a3,s8
   13d40:	02b61063          	bne	a2,a1,13d60 <_vfprintf_r+0x23a0>
   13d44:	03000513          	li	a0,48
   13d48:	fea68fa3          	sb	a0,-1(a3)
   13d4c:	0bc12683          	lw	a3,188(sp)
   13d50:	fff68793          	add	a5,a3,-1
   13d54:	0af12e23          	sw	a5,188(sp)
   13d58:	fff6c603          	lbu	a2,-1(a3)
   13d5c:	fec586e3          	beq	a1,a2,13d48 <_vfprintf_r+0x2388>
   13d60:	00160593          	add	a1,a2,1
   13d64:	03900513          	li	a0,57
   13d68:	0ff5f593          	zext.b	a1,a1
   13d6c:	04a60463          	beq	a2,a0,13db4 <_vfprintf_r+0x23f4>
   13d70:	feb68fa3          	sb	a1,-1(a3)
   13d74:	0ac12783          	lw	a5,172(sp)
   13d78:	41ac0733          	sub	a4,s8,s10
   13d7c:	06100613          	li	a2,97
   13d80:	fff78b13          	add	s6,a5,-1
   13d84:	00f12823          	sw	a5,16(sp)
   13d88:	00e12a23          	sw	a4,20(sp)
   13d8c:	0b612623          	sw	s6,172(sp)
   13d90:	07000693          	li	a3,112
   13d94:	00c88663          	beq	a7,a2,13da0 <_vfprintf_r+0x23e0>
   13d98:	05000693          	li	a3,80
   13d9c:	04100893          	li	a7,65
   13da0:	00100613          	li	a2,1
   13da4:	a9cff06f          	j	13040 <_vfprintf_r+0x1680>
   13da8:	000b0693          	mv	a3,s6
   13dac:	00300613          	li	a2,3
   13db0:	ba1ff06f          	j	13950 <_vfprintf_r+0x1f90>
   13db4:	01012783          	lw	a5,16(sp)
   13db8:	00a7c583          	lbu	a1,10(a5)
   13dbc:	fb5ff06f          	j	13d70 <_vfprintf_r+0x23b0>
   13dc0:	0a714703          	lbu	a4,167(sp)
   13dc4:	04412d83          	lw	s11,68(sp)
   13dc8:	00000b13          	li	s6,0
   13dcc:	00070463          	beqz	a4,13dd4 <_vfprintf_r+0x2414>
   13dd0:	894fe06f          	j	11e64 <_vfprintf_r+0x4a4>
   13dd4:	e09fd06f          	j	11bdc <_vfprintf_r+0x21c>
   13dd8:	01412783          	lw	a5,20(sp)
   13ddc:	01012703          	lw	a4,16(sp)
   13de0:	10f74263          	blt	a4,a5,13ee4 <_vfprintf_r+0x2524>
   13de4:	01012783          	lw	a5,16(sp)
   13de8:	001df713          	and	a4,s11,1
   13dec:	00078913          	mv	s2,a5
   13df0:	00070663          	beqz	a4,13dfc <_vfprintf_r+0x243c>
   13df4:	02412703          	lw	a4,36(sp)
   13df8:	00e78933          	add	s2,a5,a4
   13dfc:	400dfe13          	and	t3,s11,1024
   13e00:	000e0663          	beqz	t3,13e0c <_vfprintf_r+0x244c>
   13e04:	01012783          	lw	a5,16(sp)
   13e08:	2cf04e63          	bgtz	a5,140e4 <_vfprintf_r+0x2724>
   13e0c:	fff94693          	not	a3,s2
   13e10:	41f6d693          	sra	a3,a3,0x1f
   13e14:	00d97c33          	and	s8,s2,a3
   13e18:	06700893          	li	a7,103
   13e1c:	00012e23          	sw	zero,28(sp)
   13e20:	00012c23          	sw	zero,24(sp)
   13e24:	b24ff06f          	j	13148 <_vfprintf_r+0x1788>
   13e28:	0c410613          	add	a2,sp,196
   13e2c:	00048593          	mv	a1,s1
   13e30:	000b8513          	mv	a0,s7
   13e34:	64c000ef          	jal	14480 <__sprint_r>
   13e38:	00050463          	beqz	a0,13e40 <_vfprintf_r+0x2480>
   13e3c:	a25fe06f          	j	12860 <_vfprintf_r+0xea0>
   13e40:	000cc683          	lbu	a3,0(s9)
   13e44:	0cc12603          	lw	a2,204(sp)
   13e48:	00098593          	mv	a1,s3
   13e4c:	01000713          	li	a4,16
   13e50:	00700813          	li	a6,7
   13e54:	00dd0d33          	add	s10,s10,a3
   13e58:	fe0ff06f          	j	13638 <_vfprintf_r+0x1c78>
   13e5c:	00900793          	li	a5,9
   13e60:	bd27ee63          	bltu	a5,s2,1323c <_vfprintf_r+0x187c>
   13e64:	c28ff06f          	j	1328c <_vfprintf_r+0x18cc>
   13e68:	02d00793          	li	a5,45
   13e6c:	0af103a3          	sb	a5,167(sp)
   13e70:	02d00713          	li	a4,45
   13e74:	d54ff06f          	j	133c8 <_vfprintf_r+0x1a08>
   13e78:	0a714703          	lbu	a4,167(sp)
   13e7c:	01012623          	sw	a6,12(sp)
   13e80:	00012e23          	sw	zero,28(sp)
   13e84:	00012c23          	sw	zero,24(sp)
   13e88:	00012823          	sw	zero,16(sp)
   13e8c:	000b0c13          	mv	s8,s6
   13e90:	000b0913          	mv	s2,s6
   13e94:	00000b13          	li	s6,0
   13e98:	00070463          	beqz	a4,13ea0 <_vfprintf_r+0x24e0>
   13e9c:	fc9fd06f          	j	11e64 <_vfprintf_r+0x4a4>
   13ea0:	d3dfd06f          	j	11bdc <_vfprintf_r+0x21c>
   13ea4:	0c410613          	add	a2,sp,196
   13ea8:	00048593          	mv	a1,s1
   13eac:	000b8513          	mv	a0,s7
   13eb0:	5d0000ef          	jal	14480 <__sprint_r>
   13eb4:	00050463          	beqz	a0,13ebc <_vfprintf_r+0x24fc>
   13eb8:	9a9fe06f          	j	12860 <_vfprintf_r+0xea0>
   13ebc:	0ac12583          	lw	a1,172(sp)
   13ec0:	01412783          	lw	a5,20(sp)
   13ec4:	0cc12603          	lw	a2,204(sp)
   13ec8:	00098a13          	mv	s4,s3
   13ecc:	40b785b3          	sub	a1,a5,a1
   13ed0:	c69fe06f          	j	12b38 <_vfprintf_r+0x1178>
   13ed4:	0ac12783          	lw	a5,172(sp)
   13ed8:	00f12823          	sw	a5,16(sp)
   13edc:	00070793          	mv	a5,a4
   13ee0:	a45ff06f          	j	13924 <_vfprintf_r+0x1f64>
   13ee4:	01412783          	lw	a5,20(sp)
   13ee8:	02412703          	lw	a4,36(sp)
   13eec:	06700893          	li	a7,103
   13ef0:	00e78933          	add	s2,a5,a4
   13ef4:	01012783          	lw	a5,16(sp)
   13ef8:	2cf05663          	blez	a5,141c4 <_vfprintf_r+0x2804>
   13efc:	400dfe13          	and	t3,s11,1024
   13f00:	1e0e1463          	bnez	t3,140e8 <_vfprintf_r+0x2728>
   13f04:	fff94693          	not	a3,s2
   13f08:	41f6d693          	sra	a3,a3,0x1f
   13f0c:	00d97c33          	and	s8,s2,a3
   13f10:	f0dff06f          	j	13e1c <_vfprintf_r+0x245c>
   13f14:	ff000513          	li	a0,-16
   13f18:	40b00933          	neg	s2,a1
   13f1c:	0000e817          	auipc	a6,0xe
   13f20:	1f080813          	add	a6,a6,496 # 2210c <zeroes.0>
   13f24:	12a5d663          	bge	a1,a0,14050 <_vfprintf_r+0x2690>
   13f28:	01512823          	sw	s5,16(sp)
   13f2c:	01000b13          	li	s6,16
   13f30:	00700893          	li	a7,7
   13f34:	00080a93          	mv	s5,a6
   13f38:	00c0006f          	j	13f44 <_vfprintf_r+0x2584>
   13f3c:	ff090913          	add	s2,s2,-16
   13f40:	112b5463          	bge	s6,s2,14048 <_vfprintf_r+0x2688>
   13f44:	01060613          	add	a2,a2,16
   13f48:	00170713          	add	a4,a4,1
   13f4c:	015a2023          	sw	s5,0(s4)
   13f50:	016a2223          	sw	s6,4(s4)
   13f54:	0cc12623          	sw	a2,204(sp)
   13f58:	0ce12423          	sw	a4,200(sp)
   13f5c:	008a0a13          	add	s4,s4,8
   13f60:	fce8dee3          	bge	a7,a4,13f3c <_vfprintf_r+0x257c>
   13f64:	0c410613          	add	a2,sp,196
   13f68:	00048593          	mv	a1,s1
   13f6c:	000b8513          	mv	a0,s7
   13f70:	510000ef          	jal	14480 <__sprint_r>
   13f74:	00050463          	beqz	a0,13f7c <_vfprintf_r+0x25bc>
   13f78:	8e9fe06f          	j	12860 <_vfprintf_r+0xea0>
   13f7c:	0cc12603          	lw	a2,204(sp)
   13f80:	0c812703          	lw	a4,200(sp)
   13f84:	00098a13          	mv	s4,s3
   13f88:	00700893          	li	a7,7
   13f8c:	fb1ff06f          	j	13f3c <_vfprintf_r+0x257c>
   13f90:	000d8613          	mv	a2,s11
   13f94:	b9cfe06f          	j	12330 <_vfprintf_r+0x970>
   13f98:	fff00793          	li	a5,-1
   13f9c:	00f12223          	sw	a5,4(sp)
   13fa0:	d9dfd06f          	j	11d3c <_vfprintf_r+0x37c>
   13fa4:	08010593          	add	a1,sp,128
   13fa8:	00090513          	mv	a0,s2
   13fac:	04e12a23          	sw	a4,84(sp)
   13fb0:	04c12823          	sw	a2,80(sp)
   13fb4:	05112623          	sw	a7,76(sp)
   13fb8:	04d12423          	sw	a3,72(sp)
   13fbc:	09f12823          	sw	t6,144(sp)
   13fc0:	01f12e23          	sw	t6,28(sp)
   13fc4:	09e12a23          	sw	t5,148(sp)
   13fc8:	01e12c23          	sw	t5,24(sp)
   13fcc:	09d12c23          	sw	t4,152(sp)
   13fd0:	01d12a23          	sw	t4,20(sp)
   13fd4:	00b12823          	sw	a1,16(sp)
   13fd8:	09812e23          	sw	s8,156(sp)
   13fdc:	08012023          	sw	zero,128(sp)
   13fe0:	08012223          	sw	zero,132(sp)
   13fe4:	08012423          	sw	zero,136(sp)
   13fe8:	08012623          	sw	zero,140(sp)
   13fec:	41d0a0ef          	jal	1ec08 <__eqtf2>
   13ff0:	01012583          	lw	a1,16(sp)
   13ff4:	01412e83          	lw	t4,20(sp)
   13ff8:	01812f03          	lw	t5,24(sp)
   13ffc:	01c12f83          	lw	t6,28(sp)
   14000:	04812683          	lw	a3,72(sp)
   14004:	04c12883          	lw	a7,76(sp)
   14008:	05012603          	lw	a2,80(sp)
   1400c:	05412703          	lw	a4,84(sp)
   14010:	1c051663          	bnez	a0,141dc <_vfprintf_r+0x281c>
   14014:	0ac12783          	lw	a5,172(sp)
   14018:	00f70733          	add	a4,a4,a5
   1401c:	00f12823          	sw	a5,16(sp)
   14020:	41a707b3          	sub	a5,a4,s10
   14024:	00f12a23          	sw	a5,20(sp)
   14028:	01012783          	lw	a5,16(sp)
   1402c:	001df713          	and	a4,s11,1
   14030:	01676733          	or	a4,a4,s6
   14034:	1af05e63          	blez	a5,141f0 <_vfprintf_r+0x2830>
   14038:	16071c63          	bnez	a4,141b0 <_vfprintf_r+0x27f0>
   1403c:	01012903          	lw	s2,16(sp)
   14040:	06600893          	li	a7,102
   14044:	eb9ff06f          	j	13efc <_vfprintf_r+0x253c>
   14048:	000a8813          	mv	a6,s5
   1404c:	01012a83          	lw	s5,16(sp)
   14050:	01260633          	add	a2,a2,s2
   14054:	00170713          	add	a4,a4,1
   14058:	010a2023          	sw	a6,0(s4)
   1405c:	012a2223          	sw	s2,4(s4)
   14060:	0cc12623          	sw	a2,204(sp)
   14064:	0ce12423          	sw	a4,200(sp)
   14068:	00700593          	li	a1,7
   1406c:	ace5d463          	bge	a1,a4,13334 <_vfprintf_r+0x1974>
   14070:	0c410613          	add	a2,sp,196
   14074:	00048593          	mv	a1,s1
   14078:	000b8513          	mv	a0,s7
   1407c:	404000ef          	jal	14480 <__sprint_r>
   14080:	00050463          	beqz	a0,14088 <_vfprintf_r+0x26c8>
   14084:	fdcfe06f          	j	12860 <_vfprintf_r+0xea0>
   14088:	0cc12603          	lw	a2,204(sp)
   1408c:	0c812703          	lw	a4,200(sp)
   14090:	00098a13          	mv	s4,s3
   14094:	bc0ff06f          	j	13454 <_vfprintf_r+0x1a94>
   14098:	0b610693          	add	a3,sp,182
   1409c:	00061863          	bnez	a2,140ac <_vfprintf_r+0x26ec>
   140a0:	03000693          	li	a3,48
   140a4:	0ad10b23          	sb	a3,182(sp)
   140a8:	0b710693          	add	a3,sp,183
   140ac:	19010793          	add	a5,sp,400
   140b0:	40f68633          	sub	a2,a3,a5
   140b4:	030b0713          	add	a4,s6,48
   140b8:	0dd60793          	add	a5,a2,221
   140bc:	00e68023          	sb	a4,0(a3)
   140c0:	02f12c23          	sw	a5,56(sp)
   140c4:	840ff06f          	j	13104 <_vfprintf_r+0x1744>
   140c8:	001df713          	and	a4,s11,1
   140cc:	00071463          	bnez	a4,140d4 <_vfprintf_r+0x2714>
   140d0:	854ff06f          	j	13124 <_vfprintf_r+0x1764>
   140d4:	848ff06f          	j	1311c <_vfprintf_r+0x175c>
   140d8:	00012423          	sw	zero,8(sp)
   140dc:	00600b13          	li	s6,6
   140e0:	ee5fd06f          	j	11fc4 <_vfprintf_r+0x604>
   140e4:	06700893          	li	a7,103
   140e8:	03412603          	lw	a2,52(sp)
   140ec:	0ff00693          	li	a3,255
   140f0:	00064703          	lbu	a4,0(a2)
   140f4:	16d70663          	beq	a4,a3,14260 <_vfprintf_r+0x28a0>
   140f8:	01012783          	lw	a5,16(sp)
   140fc:	00000513          	li	a0,0
   14100:	00000593          	li	a1,0
   14104:	00f75e63          	bge	a4,a5,14120 <_vfprintf_r+0x2760>
   14108:	40e787b3          	sub	a5,a5,a4
   1410c:	00164703          	lbu	a4,1(a2)
   14110:	04070863          	beqz	a4,14160 <_vfprintf_r+0x27a0>
   14114:	00158593          	add	a1,a1,1
   14118:	00160613          	add	a2,a2,1
   1411c:	fed714e3          	bne	a4,a3,14104 <_vfprintf_r+0x2744>
   14120:	02c12a23          	sw	a2,52(sp)
   14124:	00b12c23          	sw	a1,24(sp)
   14128:	00a12e23          	sw	a0,28(sp)
   1412c:	00f12823          	sw	a5,16(sp)
   14130:	01c12783          	lw	a5,28(sp)
   14134:	01812703          	lw	a4,24(sp)
   14138:	03c12583          	lw	a1,60(sp)
   1413c:	05112423          	sw	a7,72(sp)
   14140:	00e78533          	add	a0,a5,a4
   14144:	3650d0ef          	jal	21ca8 <__mulsi3>
   14148:	01250933          	add	s2,a0,s2
   1414c:	fff94693          	not	a3,s2
   14150:	41f6d693          	sra	a3,a3,0x1f
   14154:	04812883          	lw	a7,72(sp)
   14158:	00d97c33          	and	s8,s2,a3
   1415c:	fedfe06f          	j	13148 <_vfprintf_r+0x1788>
   14160:	00064703          	lbu	a4,0(a2)
   14164:	00150513          	add	a0,a0,1
   14168:	fb5ff06f          	j	1411c <_vfprintf_r+0x275c>
   1416c:	000a8c13          	mv	s8,s5
   14170:	001b0693          	add	a3,s6,1
   14174:	04412883          	lw	a7,68(sp)
   14178:	04812d83          	lw	s11,72(sp)
   1417c:	04c12c83          	lw	s9,76(sp)
   14180:	05012a03          	lw	s4,80(sp)
   14184:	03812a83          	lw	s5,56(sp)
   14188:	05412b83          	lw	s7,84(sp)
   1418c:	05812483          	lw	s1,88(sp)
   14190:	05c12d03          	lw	s10,92(sp)
   14194:	00dc06b3          	add	a3,s8,a3
   14198:	03000613          	li	a2,48
   1419c:	bc0b4ce3          	bltz	s6,13d74 <_vfprintf_r+0x23b4>
   141a0:	001c0c13          	add	s8,s8,1
   141a4:	fecc0fa3          	sb	a2,-1(s8)
   141a8:	ff869ce3          	bne	a3,s8,141a0 <_vfprintf_r+0x27e0>
   141ac:	bc9ff06f          	j	13d74 <_vfprintf_r+0x23b4>
   141b0:	02412703          	lw	a4,36(sp)
   141b4:	06600893          	li	a7,102
   141b8:	00eb0f33          	add	t5,s6,a4
   141bc:	00ff0933          	add	s2,t5,a5
   141c0:	d3dff06f          	j	13efc <_vfprintf_r+0x253c>
   141c4:	40f90f33          	sub	t5,s2,a5
   141c8:	001f0913          	add	s2,t5,1
   141cc:	fff94693          	not	a3,s2
   141d0:	41f6d693          	sra	a3,a3,0x1f
   141d4:	00d97c33          	and	s8,s2,a3
   141d8:	c45ff06f          	j	13e1c <_vfprintf_r+0x245c>
   141dc:	00100513          	li	a0,1
   141e0:	40d506b3          	sub	a3,a0,a3
   141e4:	0ad12623          	sw	a3,172(sp)
   141e8:	00d70733          	add	a4,a4,a3
   141ec:	eccff06f          	j	138b8 <_vfprintf_r+0x1ef8>
   141f0:	00071a63          	bnez	a4,14204 <_vfprintf_r+0x2844>
   141f4:	00100c13          	li	s8,1
   141f8:	06600893          	li	a7,102
   141fc:	00100913          	li	s2,1
   14200:	c1dff06f          	j	13e1c <_vfprintf_r+0x245c>
   14204:	02412783          	lw	a5,36(sp)
   14208:	06600893          	li	a7,102
   1420c:	00178f13          	add	t5,a5,1
   14210:	016f0933          	add	s2,t5,s6
   14214:	fff94693          	not	a3,s2
   14218:	41f6d693          	sra	a3,a3,0x1f
   1421c:	00d97c33          	and	s8,s2,a3
   14220:	bfdff06f          	j	13e1c <_vfprintf_r+0x245c>
   14224:	00200793          	li	a5,2
   14228:	02f12c23          	sw	a5,56(sp)
   1422c:	ed9fe06f          	j	13104 <_vfprintf_r+0x1744>
   14230:	00c12783          	lw	a5,12(sp)
   14234:	0007ab03          	lw	s6,0(a5)
   14238:	00478793          	add	a5,a5,4
   1423c:	000b5463          	bgez	s6,14244 <_vfprintf_r+0x2884>
   14240:	fff00b13          	li	s6,-1
   14244:	001ac883          	lbu	a7,1(s5)
   14248:	00f12623          	sw	a5,12(sp)
   1424c:	00068a93          	mv	s5,a3
   14250:	905fd06f          	j	11b54 <_vfprintf_r+0x194>
   14254:	04500613          	li	a2,69
   14258:	08010593          	add	a1,sp,128
   1425c:	e5cff06f          	j	138b8 <_vfprintf_r+0x1ef8>
   14260:	00012e23          	sw	zero,28(sp)
   14264:	00012c23          	sw	zero,24(sp)
   14268:	ec9ff06f          	j	14130 <_vfprintf_r+0x2770>
   1426c:	00c4d783          	lhu	a5,12(s1)
   14270:	0407e793          	or	a5,a5,64
   14274:	00f49623          	sh	a5,12(s1)
   14278:	a91fd06f          	j	11d08 <_vfprintf_r+0x348>

0001427c <vfprintf>:
   1427c:	00060693          	mv	a3,a2
   14280:	00058613          	mv	a2,a1
   14284:	00050593          	mv	a1,a0
   14288:	f0c1a503          	lw	a0,-244(gp) # 237cc <_impure_ptr>
   1428c:	f34fd06f          	j	119c0 <_vfprintf_r>

00014290 <__sbprintf>:
   14290:	b8010113          	add	sp,sp,-1152
   14294:	00c59783          	lh	a5,12(a1)
   14298:	00e5d703          	lhu	a4,14(a1)
   1429c:	46812c23          	sw	s0,1144(sp)
   142a0:	00058413          	mv	s0,a1
   142a4:	000105b7          	lui	a1,0x10
   142a8:	ffd58593          	add	a1,a1,-3 # fffd <exit-0x97>
   142ac:	06442e03          	lw	t3,100(s0)
   142b0:	01c42303          	lw	t1,28(s0)
   142b4:	02442883          	lw	a7,36(s0)
   142b8:	01071713          	sll	a4,a4,0x10
   142bc:	00b7f7b3          	and	a5,a5,a1
   142c0:	00e7e7b3          	or	a5,a5,a4
   142c4:	40000813          	li	a6,1024
   142c8:	00f12a23          	sw	a5,20(sp)
   142cc:	00810593          	add	a1,sp,8
   142d0:	07010793          	add	a5,sp,112
   142d4:	46912a23          	sw	s1,1140(sp)
   142d8:	47212823          	sw	s2,1136(sp)
   142dc:	46112e23          	sw	ra,1148(sp)
   142e0:	00050913          	mv	s2,a0
   142e4:	07c12623          	sw	t3,108(sp)
   142e8:	02612223          	sw	t1,36(sp)
   142ec:	03112623          	sw	a7,44(sp)
   142f0:	00f12423          	sw	a5,8(sp)
   142f4:	00f12c23          	sw	a5,24(sp)
   142f8:	01012823          	sw	a6,16(sp)
   142fc:	01012e23          	sw	a6,28(sp)
   14300:	02012023          	sw	zero,32(sp)
   14304:	ebcfd0ef          	jal	119c0 <_vfprintf_r>
   14308:	00050493          	mv	s1,a0
   1430c:	02055c63          	bgez	a0,14344 <__sbprintf+0xb4>
   14310:	01415783          	lhu	a5,20(sp)
   14314:	0407f793          	and	a5,a5,64
   14318:	00078863          	beqz	a5,14328 <__sbprintf+0x98>
   1431c:	00c45783          	lhu	a5,12(s0)
   14320:	0407e793          	or	a5,a5,64
   14324:	00f41623          	sh	a5,12(s0)
   14328:	47c12083          	lw	ra,1148(sp)
   1432c:	47812403          	lw	s0,1144(sp)
   14330:	47012903          	lw	s2,1136(sp)
   14334:	00048513          	mv	a0,s1
   14338:	47412483          	lw	s1,1140(sp)
   1433c:	48010113          	add	sp,sp,1152
   14340:	00008067          	ret
   14344:	00810593          	add	a1,sp,8
   14348:	00090513          	mv	a0,s2
   1434c:	109010ef          	jal	15c54 <_fflush_r>
   14350:	fc0500e3          	beqz	a0,14310 <__sbprintf+0x80>
   14354:	fff00493          	li	s1,-1
   14358:	fb9ff06f          	j	14310 <__sbprintf+0x80>

0001435c <__sprint_r.part.0>:
   1435c:	0645a783          	lw	a5,100(a1)
   14360:	fd010113          	add	sp,sp,-48
   14364:	01612823          	sw	s6,16(sp)
   14368:	02112623          	sw	ra,44(sp)
   1436c:	01279713          	sll	a4,a5,0x12
   14370:	00060b13          	mv	s6,a2
   14374:	0e075863          	bgez	a4,14464 <__sprint_r.part.0+0x108>
   14378:	00862783          	lw	a5,8(a2)
   1437c:	03212023          	sw	s2,32(sp)
   14380:	01312e23          	sw	s3,28(sp)
   14384:	01512a23          	sw	s5,20(sp)
   14388:	01712623          	sw	s7,12(sp)
   1438c:	00058913          	mv	s2,a1
   14390:	00062b83          	lw	s7,0(a2)
   14394:	00050993          	mv	s3,a0
   14398:	fff00a93          	li	s5,-1
   1439c:	0a078863          	beqz	a5,1444c <__sprint_r.part.0+0xf0>
   143a0:	02812423          	sw	s0,40(sp)
   143a4:	02912223          	sw	s1,36(sp)
   143a8:	01412c23          	sw	s4,24(sp)
   143ac:	01812423          	sw	s8,8(sp)
   143b0:	004bac03          	lw	s8,4(s7)
   143b4:	000ba403          	lw	s0,0(s7)
   143b8:	002c5a13          	srl	s4,s8,0x2
   143bc:	060a0663          	beqz	s4,14428 <__sprint_r.part.0+0xcc>
   143c0:	00000493          	li	s1,0
   143c4:	00c0006f          	j	143d0 <__sprint_r.part.0+0x74>
   143c8:	00440413          	add	s0,s0,4
   143cc:	049a0c63          	beq	s4,s1,14424 <__sprint_r.part.0+0xc8>
   143d0:	00042583          	lw	a1,0(s0)
   143d4:	00090613          	mv	a2,s2
   143d8:	00098513          	mv	a0,s3
   143dc:	0a4020ef          	jal	16480 <_fputwc_r>
   143e0:	00148493          	add	s1,s1,1
   143e4:	ff5512e3          	bne	a0,s5,143c8 <__sprint_r.part.0+0x6c>
   143e8:	02812403          	lw	s0,40(sp)
   143ec:	02412483          	lw	s1,36(sp)
   143f0:	02012903          	lw	s2,32(sp)
   143f4:	01c12983          	lw	s3,28(sp)
   143f8:	01812a03          	lw	s4,24(sp)
   143fc:	01412a83          	lw	s5,20(sp)
   14400:	00c12b83          	lw	s7,12(sp)
   14404:	00812c03          	lw	s8,8(sp)
   14408:	fff00513          	li	a0,-1
   1440c:	02c12083          	lw	ra,44(sp)
   14410:	000b2423          	sw	zero,8(s6)
   14414:	000b2223          	sw	zero,4(s6)
   14418:	01012b03          	lw	s6,16(sp)
   1441c:	03010113          	add	sp,sp,48
   14420:	00008067          	ret
   14424:	008b2783          	lw	a5,8(s6)
   14428:	ffcc7c13          	and	s8,s8,-4
   1442c:	418787b3          	sub	a5,a5,s8
   14430:	00fb2423          	sw	a5,8(s6)
   14434:	008b8b93          	add	s7,s7,8
   14438:	f6079ce3          	bnez	a5,143b0 <__sprint_r.part.0+0x54>
   1443c:	02812403          	lw	s0,40(sp)
   14440:	02412483          	lw	s1,36(sp)
   14444:	01812a03          	lw	s4,24(sp)
   14448:	00812c03          	lw	s8,8(sp)
   1444c:	02012903          	lw	s2,32(sp)
   14450:	01c12983          	lw	s3,28(sp)
   14454:	01412a83          	lw	s5,20(sp)
   14458:	00c12b83          	lw	s7,12(sp)
   1445c:	00000513          	li	a0,0
   14460:	fadff06f          	j	1440c <__sprint_r.part.0+0xb0>
   14464:	0d5010ef          	jal	15d38 <__sfvwrite_r>
   14468:	02c12083          	lw	ra,44(sp)
   1446c:	000b2423          	sw	zero,8(s6)
   14470:	000b2223          	sw	zero,4(s6)
   14474:	01012b03          	lw	s6,16(sp)
   14478:	03010113          	add	sp,sp,48
   1447c:	00008067          	ret

00014480 <__sprint_r>:
   14480:	00862703          	lw	a4,8(a2)
   14484:	00070463          	beqz	a4,1448c <__sprint_r+0xc>
   14488:	ed5ff06f          	j	1435c <__sprint_r.part.0>
   1448c:	00062223          	sw	zero,4(a2)
   14490:	00000513          	li	a0,0
   14494:	00008067          	ret

00014498 <_vfiprintf_r>:
   14498:	ed010113          	add	sp,sp,-304
   1449c:	13212023          	sw	s2,288(sp)
   144a0:	11312e23          	sw	s3,284(sp)
   144a4:	11412c23          	sw	s4,280(sp)
   144a8:	11812423          	sw	s8,264(sp)
   144ac:	12112623          	sw	ra,300(sp)
   144b0:	11712623          	sw	s7,268(sp)
   144b4:	00050a13          	mv	s4,a0
   144b8:	00058913          	mv	s2,a1
   144bc:	00060c13          	mv	s8,a2
   144c0:	00068993          	mv	s3,a3
   144c4:	00050863          	beqz	a0,144d4 <_vfiprintf_r+0x3c>
   144c8:	03452783          	lw	a5,52(a0)
   144cc:	00079463          	bnez	a5,144d4 <_vfiprintf_r+0x3c>
   144d0:	2080106f          	j	156d8 <_vfiprintf_r+0x1240>
   144d4:	00c91783          	lh	a5,12(s2)
   144d8:	01279713          	sll	a4,a5,0x12
   144dc:	02074663          	bltz	a4,14508 <_vfiprintf_r+0x70>
   144e0:	06492703          	lw	a4,100(s2)
   144e4:	00002637          	lui	a2,0x2
   144e8:	ffffe6b7          	lui	a3,0xffffe
   144ec:	00c7e7b3          	or	a5,a5,a2
   144f0:	fff68693          	add	a3,a3,-1 # ffffdfff <__BSS_END__+0xfffda4df>
   144f4:	01079793          	sll	a5,a5,0x10
   144f8:	4107d793          	sra	a5,a5,0x10
   144fc:	00d77733          	and	a4,a4,a3
   14500:	00f91623          	sh	a5,12(s2)
   14504:	06e92223          	sw	a4,100(s2)
   14508:	0087f713          	and	a4,a5,8
   1450c:	14070263          	beqz	a4,14650 <_vfiprintf_r+0x1b8>
   14510:	01092703          	lw	a4,16(s2)
   14514:	12070e63          	beqz	a4,14650 <_vfiprintf_r+0x1b8>
   14518:	01a7f793          	and	a5,a5,26
   1451c:	00a00713          	li	a4,10
   14520:	14e78a63          	beq	a5,a4,14674 <_vfiprintf_r+0x1dc>
   14524:	00000b93          	li	s7,0
   14528:	12912223          	sw	s1,292(sp)
   1452c:	04c10493          	add	s1,sp,76
   14530:	12812423          	sw	s0,296(sp)
   14534:	11512a23          	sw	s5,276(sp)
   14538:	11612823          	sw	s6,272(sp)
   1453c:	11a12023          	sw	s10,256(sp)
   14540:	11912223          	sw	s9,260(sp)
   14544:	000b8d13          	mv	s10,s7
   14548:	0fb12e23          	sw	s11,252(sp)
   1454c:	04912023          	sw	s1,64(sp)
   14550:	04012423          	sw	zero,72(sp)
   14554:	04012223          	sw	zero,68(sp)
   14558:	00048713          	mv	a4,s1
   1455c:	00012023          	sw	zero,0(sp)
   14560:	00012c23          	sw	zero,24(sp)
   14564:	00012e23          	sw	zero,28(sp)
   14568:	02012023          	sw	zero,32(sp)
   1456c:	0000eb17          	auipc	s6,0xe
   14570:	c24b0b13          	add	s6,s6,-988 # 22190 <blanks.1+0x74>
   14574:	01000413          	li	s0,16
   14578:	0000ea97          	auipc	s5,0xe
   1457c:	d84a8a93          	add	s5,s5,-636 # 222fc <zeroes.0>
   14580:	000c0b93          	mv	s7,s8
   14584:	00098313          	mv	t1,s3
   14588:	000bc783          	lbu	a5,0(s7)
   1458c:	34078863          	beqz	a5,148dc <_vfiprintf_r+0x444>
   14590:	000b8c93          	mv	s9,s7
   14594:	02500693          	li	a3,37
   14598:	38d78263          	beq	a5,a3,1491c <_vfiprintf_r+0x484>
   1459c:	001cc783          	lbu	a5,1(s9)
   145a0:	001c8c93          	add	s9,s9,1
   145a4:	fe079ae3          	bnez	a5,14598 <_vfiprintf_r+0x100>
   145a8:	417c89b3          	sub	s3,s9,s7
   145ac:	337c8863          	beq	s9,s7,148dc <_vfiprintf_r+0x444>
   145b0:	04812683          	lw	a3,72(sp)
   145b4:	04412783          	lw	a5,68(sp)
   145b8:	01772023          	sw	s7,0(a4)
   145bc:	00d986b3          	add	a3,s3,a3
   145c0:	00178793          	add	a5,a5,1
   145c4:	01372223          	sw	s3,4(a4)
   145c8:	04d12423          	sw	a3,72(sp)
   145cc:	04f12223          	sw	a5,68(sp)
   145d0:	00700613          	li	a2,7
   145d4:	00870713          	add	a4,a4,8
   145d8:	02f65463          	bge	a2,a5,14600 <_vfiprintf_r+0x168>
   145dc:	56068ce3          	beqz	a3,15354 <_vfiprintf_r+0xebc>
   145e0:	04010613          	add	a2,sp,64
   145e4:	00090593          	mv	a1,s2
   145e8:	000a0513          	mv	a0,s4
   145ec:	00612223          	sw	t1,4(sp)
   145f0:	d6dff0ef          	jal	1435c <__sprint_r.part.0>
   145f4:	00412303          	lw	t1,4(sp)
   145f8:	0c051863          	bnez	a0,146c8 <_vfiprintf_r+0x230>
   145fc:	00048713          	mv	a4,s1
   14600:	000cc783          	lbu	a5,0(s9)
   14604:	013d0d33          	add	s10,s10,s3
   14608:	2c078a63          	beqz	a5,148dc <_vfiprintf_r+0x444>
   1460c:	00000693          	li	a3,0
   14610:	00000813          	li	a6,0
   14614:	001cc603          	lbu	a2,1(s9)
   14618:	001c8b93          	add	s7,s9,1
   1461c:	02010da3          	sb	zero,59(sp)
   14620:	fff00c93          	li	s9,-1
   14624:	05a00993          	li	s3,90
   14628:	00080c13          	mv	s8,a6
   1462c:	00068d93          	mv	s11,a3
   14630:	001b8b93          	add	s7,s7,1
   14634:	fe060793          	add	a5,a2,-32 # 1fe0 <exit-0xe0b4>
   14638:	10f9ec63          	bltu	s3,a5,14750 <_vfiprintf_r+0x2b8>
   1463c:	00279793          	sll	a5,a5,0x2
   14640:	016787b3          	add	a5,a5,s6
   14644:	0007a783          	lw	a5,0(a5)
   14648:	016787b3          	add	a5,a5,s6
   1464c:	00078067          	jr	a5
   14650:	00090593          	mv	a1,s2
   14654:	000a0513          	mv	a0,s4
   14658:	3f5010ef          	jal	1624c <__swsetup_r>
   1465c:	00050463          	beqz	a0,14664 <_vfiprintf_r+0x1cc>
   14660:	1900106f          	j	157f0 <_vfiprintf_r+0x1358>
   14664:	00c91783          	lh	a5,12(s2)
   14668:	00a00713          	li	a4,10
   1466c:	01a7f793          	and	a5,a5,26
   14670:	eae79ae3          	bne	a5,a4,14524 <_vfiprintf_r+0x8c>
   14674:	00e91783          	lh	a5,14(s2)
   14678:	ea07c6e3          	bltz	a5,14524 <_vfiprintf_r+0x8c>
   1467c:	12c12083          	lw	ra,300(sp)
   14680:	10c12b83          	lw	s7,268(sp)
   14684:	00098693          	mv	a3,s3
   14688:	000c0613          	mv	a2,s8
   1468c:	11c12983          	lw	s3,284(sp)
   14690:	10812c03          	lw	s8,264(sp)
   14694:	00090593          	mv	a1,s2
   14698:	000a0513          	mv	a0,s4
   1469c:	12012903          	lw	s2,288(sp)
   146a0:	11812a03          	lw	s4,280(sp)
   146a4:	13010113          	add	sp,sp,304
   146a8:	1800106f          	j	15828 <__sbprintf>
   146ac:	04010613          	add	a2,sp,64
   146b0:	00090593          	mv	a1,s2
   146b4:	000a0513          	mv	a0,s4
   146b8:	00612223          	sw	t1,4(sp)
   146bc:	ca1ff0ef          	jal	1435c <__sprint_r.part.0>
   146c0:	00412303          	lw	t1,4(sp)
   146c4:	20050463          	beqz	a0,148cc <_vfiprintf_r+0x434>
   146c8:	000d0b93          	mv	s7,s10
   146cc:	00c95783          	lhu	a5,12(s2)
   146d0:	12812403          	lw	s0,296(sp)
   146d4:	12412483          	lw	s1,292(sp)
   146d8:	0407f793          	and	a5,a5,64
   146dc:	11412a83          	lw	s5,276(sp)
   146e0:	11012b03          	lw	s6,272(sp)
   146e4:	10412c83          	lw	s9,260(sp)
   146e8:	10012d03          	lw	s10,256(sp)
   146ec:	0fc12d83          	lw	s11,252(sp)
   146f0:	00078463          	beqz	a5,146f8 <_vfiprintf_r+0x260>
   146f4:	0fc0106f          	j	157f0 <_vfiprintf_r+0x1358>
   146f8:	12c12083          	lw	ra,300(sp)
   146fc:	12012903          	lw	s2,288(sp)
   14700:	11c12983          	lw	s3,284(sp)
   14704:	11812a03          	lw	s4,280(sp)
   14708:	10812c03          	lw	s8,264(sp)
   1470c:	000b8513          	mv	a0,s7
   14710:	10c12b83          	lw	s7,268(sp)
   14714:	13010113          	add	sp,sp,304
   14718:	00008067          	ret
   1471c:	00000d93          	li	s11,0
   14720:	fd060793          	add	a5,a2,-48
   14724:	00900513          	li	a0,9
   14728:	000bc603          	lbu	a2,0(s7)
   1472c:	002d9593          	sll	a1,s11,0x2
   14730:	01b586b3          	add	a3,a1,s11
   14734:	00169693          	sll	a3,a3,0x1
   14738:	00d78db3          	add	s11,a5,a3
   1473c:	fd060793          	add	a5,a2,-48
   14740:	001b8b93          	add	s7,s7,1
   14744:	fef572e3          	bgeu	a0,a5,14728 <_vfiprintf_r+0x290>
   14748:	fe060793          	add	a5,a2,-32
   1474c:	eef9f8e3          	bgeu	s3,a5,1463c <_vfiprintf_r+0x1a4>
   14750:	000c0813          	mv	a6,s8
   14754:	000d8693          	mv	a3,s11
   14758:	18060263          	beqz	a2,148dc <_vfiprintf_r+0x444>
   1475c:	08c10623          	sb	a2,140(sp)
   14760:	02010da3          	sb	zero,59(sp)
   14764:	00100993          	li	s3,1
   14768:	00100893          	li	a7,1
   1476c:	08c10c13          	add	s8,sp,140
   14770:	00000c93          	li	s9,0
   14774:	00000f93          	li	t6,0
   14778:	04412603          	lw	a2,68(sp)
   1477c:	08487293          	and	t0,a6,132
   14780:	04812783          	lw	a5,72(sp)
   14784:	00160593          	add	a1,a2,1
   14788:	00058e93          	mv	t4,a1
   1478c:	00029663          	bnez	t0,14798 <_vfiprintf_r+0x300>
   14790:	41368db3          	sub	s11,a3,s3
   14794:	25b04ae3          	bgtz	s11,151e8 <_vfiprintf_r+0xd50>
   14798:	03b14583          	lbu	a1,59(sp)
   1479c:	02058a63          	beqz	a1,147d0 <_vfiprintf_r+0x338>
   147a0:	03b10613          	add	a2,sp,59
   147a4:	00178793          	add	a5,a5,1
   147a8:	00c72023          	sw	a2,0(a4)
   147ac:	00100613          	li	a2,1
   147b0:	00c72223          	sw	a2,4(a4)
   147b4:	04f12423          	sw	a5,72(sp)
   147b8:	05d12223          	sw	t4,68(sp)
   147bc:	00700613          	li	a2,7
   147c0:	15d644e3          	blt	a2,t4,15108 <_vfiprintf_r+0xc70>
   147c4:	000e8613          	mv	a2,t4
   147c8:	00870713          	add	a4,a4,8
   147cc:	001e8e93          	add	t4,t4,1
   147d0:	060f8c63          	beqz	t6,14848 <_vfiprintf_r+0x3b0>
   147d4:	03c10613          	add	a2,sp,60
   147d8:	00278793          	add	a5,a5,2
   147dc:	00c72023          	sw	a2,0(a4)
   147e0:	00200613          	li	a2,2
   147e4:	00c72223          	sw	a2,4(a4)
   147e8:	04f12423          	sw	a5,72(sp)
   147ec:	05d12223          	sw	t4,68(sp)
   147f0:	00700613          	li	a2,7
   147f4:	19d656e3          	bge	a2,t4,15180 <_vfiprintf_r+0xce8>
   147f8:	3e078ae3          	beqz	a5,153ec <_vfiprintf_r+0xf54>
   147fc:	04010613          	add	a2,sp,64
   14800:	00090593          	mv	a1,s2
   14804:	000a0513          	mv	a0,s4
   14808:	00612a23          	sw	t1,20(sp)
   1480c:	00d12823          	sw	a3,16(sp)
   14810:	01112623          	sw	a7,12(sp)
   14814:	00512423          	sw	t0,8(sp)
   14818:	01012223          	sw	a6,4(sp)
   1481c:	b41ff0ef          	jal	1435c <__sprint_r.part.0>
   14820:	ea0514e3          	bnez	a0,146c8 <_vfiprintf_r+0x230>
   14824:	04412603          	lw	a2,68(sp)
   14828:	04812783          	lw	a5,72(sp)
   1482c:	01412303          	lw	t1,20(sp)
   14830:	01012683          	lw	a3,16(sp)
   14834:	00c12883          	lw	a7,12(sp)
   14838:	00812283          	lw	t0,8(sp)
   1483c:	00412803          	lw	a6,4(sp)
   14840:	00048713          	mv	a4,s1
   14844:	00160e93          	add	t4,a2,1
   14848:	08000593          	li	a1,128
   1484c:	68b28863          	beq	t0,a1,14edc <_vfiprintf_r+0xa44>
   14850:	411c8cb3          	sub	s9,s9,a7
   14854:	7d904063          	bgtz	s9,15014 <_vfiprintf_r+0xb7c>
   14858:	00f887b3          	add	a5,a7,a5
   1485c:	01872023          	sw	s8,0(a4)
   14860:	01172223          	sw	a7,4(a4)
   14864:	04f12423          	sw	a5,72(sp)
   14868:	05d12223          	sw	t4,68(sp)
   1486c:	00700613          	li	a2,7
   14870:	65d65a63          	bge	a2,t4,14ec4 <_vfiprintf_r+0xa2c>
   14874:	0a078c63          	beqz	a5,1492c <_vfiprintf_r+0x494>
   14878:	04010613          	add	a2,sp,64
   1487c:	00090593          	mv	a1,s2
   14880:	000a0513          	mv	a0,s4
   14884:	00612623          	sw	t1,12(sp)
   14888:	00d12423          	sw	a3,8(sp)
   1488c:	01012223          	sw	a6,4(sp)
   14890:	acdff0ef          	jal	1435c <__sprint_r.part.0>
   14894:	e2051ae3          	bnez	a0,146c8 <_vfiprintf_r+0x230>
   14898:	04812783          	lw	a5,72(sp)
   1489c:	00c12303          	lw	t1,12(sp)
   148a0:	00812683          	lw	a3,8(sp)
   148a4:	00412803          	lw	a6,4(sp)
   148a8:	00048713          	mv	a4,s1
   148ac:	00487813          	and	a6,a6,4
   148b0:	00080663          	beqz	a6,148bc <_vfiprintf_r+0x424>
   148b4:	41368c33          	sub	s8,a3,s3
   148b8:	09804663          	bgtz	s8,14944 <_vfiprintf_r+0x4ac>
   148bc:	0136d463          	bge	a3,s3,148c4 <_vfiprintf_r+0x42c>
   148c0:	00098693          	mv	a3,s3
   148c4:	00dd0d33          	add	s10,s10,a3
   148c8:	de0792e3          	bnez	a5,146ac <_vfiprintf_r+0x214>
   148cc:	000bc783          	lbu	a5,0(s7)
   148d0:	04012223          	sw	zero,68(sp)
   148d4:	00048713          	mv	a4,s1
   148d8:	ca079ce3          	bnez	a5,14590 <_vfiprintf_r+0xf8>
   148dc:	04812783          	lw	a5,72(sp)
   148e0:	000d0b93          	mv	s7,s10
   148e4:	de0784e3          	beqz	a5,146cc <_vfiprintf_r+0x234>
   148e8:	04010613          	add	a2,sp,64
   148ec:	00090593          	mv	a1,s2
   148f0:	000a0513          	mv	a0,s4
   148f4:	a69ff0ef          	jal	1435c <__sprint_r.part.0>
   148f8:	dd5ff06f          	j	146cc <_vfiprintf_r+0x234>
   148fc:	00032d83          	lw	s11,0(t1)
   14900:	00430313          	add	t1,t1,4
   14904:	220dce63          	bltz	s11,14b40 <_vfiprintf_r+0x6a8>
   14908:	000bc603          	lbu	a2,0(s7)
   1490c:	d25ff06f          	j	14630 <_vfiprintf_r+0x198>
   14910:	000bc603          	lbu	a2,0(s7)
   14914:	020c6c13          	or	s8,s8,32
   14918:	d19ff06f          	j	14630 <_vfiprintf_r+0x198>
   1491c:	417c89b3          	sub	s3,s9,s7
   14920:	c97c98e3          	bne	s9,s7,145b0 <_vfiprintf_r+0x118>
   14924:	000cc783          	lbu	a5,0(s9)
   14928:	ce1ff06f          	j	14608 <_vfiprintf_r+0x170>
   1492c:	04012223          	sw	zero,68(sp)
   14930:	00487813          	and	a6,a6,4
   14934:	1c0802e3          	beqz	a6,152f8 <_vfiprintf_r+0xe60>
   14938:	41368c33          	sub	s8,a3,s3
   1493c:	1b805ee3          	blez	s8,152f8 <_vfiprintf_r+0xe60>
   14940:	00048713          	mv	a4,s1
   14944:	01000613          	li	a2,16
   14948:	04412583          	lw	a1,68(sp)
   1494c:	698652e3          	bge	a2,s8,157d0 <_vfiprintf_r+0x1338>
   14950:	0000ee97          	auipc	t4,0xe
   14954:	9bce8e93          	add	t4,t4,-1604 # 2230c <blanks.1>
   14958:	01312423          	sw	s3,8(sp)
   1495c:	01712623          	sw	s7,12(sp)
   14960:	000c0993          	mv	s3,s8
   14964:	01000c93          	li	s9,16
   14968:	00700d93          	li	s11,7
   1496c:	00d12223          	sw	a3,4(sp)
   14970:	00030c13          	mv	s8,t1
   14974:	000e8b93          	mv	s7,t4
   14978:	0180006f          	j	14990 <_vfiprintf_r+0x4f8>
   1497c:	00258513          	add	a0,a1,2
   14980:	00870713          	add	a4,a4,8
   14984:	00068593          	mv	a1,a3
   14988:	ff098993          	add	s3,s3,-16
   1498c:	053cd863          	bge	s9,s3,149dc <_vfiprintf_r+0x544>
   14990:	01078793          	add	a5,a5,16
   14994:	00158693          	add	a3,a1,1
   14998:	01772023          	sw	s7,0(a4)
   1499c:	01972223          	sw	s9,4(a4)
   149a0:	04f12423          	sw	a5,72(sp)
   149a4:	04d12223          	sw	a3,68(sp)
   149a8:	fcdddae3          	bge	s11,a3,1497c <_vfiprintf_r+0x4e4>
   149ac:	52078063          	beqz	a5,14ecc <_vfiprintf_r+0xa34>
   149b0:	04010613          	add	a2,sp,64
   149b4:	00090593          	mv	a1,s2
   149b8:	000a0513          	mv	a0,s4
   149bc:	9a1ff0ef          	jal	1435c <__sprint_r.part.0>
   149c0:	d00514e3          	bnez	a0,146c8 <_vfiprintf_r+0x230>
   149c4:	04412583          	lw	a1,68(sp)
   149c8:	ff098993          	add	s3,s3,-16
   149cc:	04812783          	lw	a5,72(sp)
   149d0:	00048713          	mv	a4,s1
   149d4:	00158513          	add	a0,a1,1
   149d8:	fb3ccce3          	blt	s9,s3,14990 <_vfiprintf_r+0x4f8>
   149dc:	000c0313          	mv	t1,s8
   149e0:	000b8e93          	mv	t4,s7
   149e4:	00098c13          	mv	s8,s3
   149e8:	00412683          	lw	a3,4(sp)
   149ec:	00812983          	lw	s3,8(sp)
   149f0:	00c12b83          	lw	s7,12(sp)
   149f4:	018787b3          	add	a5,a5,s8
   149f8:	01d72023          	sw	t4,0(a4)
   149fc:	01872223          	sw	s8,4(a4)
   14a00:	04f12423          	sw	a5,72(sp)
   14a04:	04a12223          	sw	a0,68(sp)
   14a08:	00700713          	li	a4,7
   14a0c:	eaa758e3          	bge	a4,a0,148bc <_vfiprintf_r+0x424>
   14a10:	0e0784e3          	beqz	a5,152f8 <_vfiprintf_r+0xe60>
   14a14:	04010613          	add	a2,sp,64
   14a18:	00090593          	mv	a1,s2
   14a1c:	000a0513          	mv	a0,s4
   14a20:	00612423          	sw	t1,8(sp)
   14a24:	00d12223          	sw	a3,4(sp)
   14a28:	935ff0ef          	jal	1435c <__sprint_r.part.0>
   14a2c:	c8051ee3          	bnez	a0,146c8 <_vfiprintf_r+0x230>
   14a30:	04812783          	lw	a5,72(sp)
   14a34:	00812303          	lw	t1,8(sp)
   14a38:	00412683          	lw	a3,4(sp)
   14a3c:	e81ff06f          	j	148bc <_vfiprintf_r+0x424>
   14a40:	000c0813          	mv	a6,s8
   14a44:	00032c03          	lw	s8,0(t1)
   14a48:	02010da3          	sb	zero,59(sp)
   14a4c:	000d8693          	mv	a3,s11
   14a50:	00430d93          	add	s11,t1,4
   14a54:	4a0c0ee3          	beqz	s8,15710 <_vfiprintf_r+0x1278>
   14a58:	00e12623          	sw	a4,12(sp)
   14a5c:	00d12423          	sw	a3,8(sp)
   14a60:	01012223          	sw	a6,4(sp)
   14a64:	3c0ccae3          	bltz	s9,15638 <_vfiprintf_r+0x11a0>
   14a68:	000c8613          	mv	a2,s9
   14a6c:	00000593          	li	a1,0
   14a70:	000c0513          	mv	a0,s8
   14a74:	2b5010ef          	jal	16528 <memchr>
   14a78:	00412803          	lw	a6,4(sp)
   14a7c:	00812683          	lw	a3,8(sp)
   14a80:	00c12703          	lw	a4,12(sp)
   14a84:	000c8893          	mv	a7,s9
   14a88:	00050463          	beqz	a0,14a90 <_vfiprintf_r+0x5f8>
   14a8c:	418508b3          	sub	a7,a0,s8
   14a90:	03b14783          	lbu	a5,59(sp)
   14a94:	fff8c993          	not	s3,a7
   14a98:	41f9d993          	sra	s3,s3,0x1f
   14a9c:	0138f9b3          	and	s3,a7,s3
   14aa0:	000d8313          	mv	t1,s11
   14aa4:	00000c93          	li	s9,0
   14aa8:	00000f93          	li	t6,0
   14aac:	cc0786e3          	beqz	a5,14778 <_vfiprintf_r+0x2e0>
   14ab0:	00198993          	add	s3,s3,1
   14ab4:	00287f93          	and	t6,a6,2
   14ab8:	cc0f80e3          	beqz	t6,14778 <_vfiprintf_r+0x2e0>
   14abc:	00298993          	add	s3,s3,2
   14ac0:	00200f93          	li	t6,2
   14ac4:	cb5ff06f          	j	14778 <_vfiprintf_r+0x2e0>
   14ac8:	00032783          	lw	a5,0(t1)
   14acc:	000c0813          	mv	a6,s8
   14ad0:	000d8693          	mv	a3,s11
   14ad4:	02010da3          	sb	zero,59(sp)
   14ad8:	00430313          	add	t1,t1,4
   14adc:	08f10623          	sb	a5,140(sp)
   14ae0:	00100993          	li	s3,1
   14ae4:	00100893          	li	a7,1
   14ae8:	08c10c13          	add	s8,sp,140
   14aec:	c85ff06f          	j	14770 <_vfiprintf_r+0x2d8>
   14af0:	000c0813          	mv	a6,s8
   14af4:	02087793          	and	a5,a6,32
   14af8:	000d8693          	mv	a3,s11
   14afc:	24078863          	beqz	a5,14d4c <_vfiprintf_r+0x8b4>
   14b00:	00730313          	add	t1,t1,7
   14b04:	ff837313          	and	t1,t1,-8
   14b08:	00432603          	lw	a2,4(t1)
   14b0c:	00032983          	lw	s3,0(t1)
   14b10:	00830313          	add	t1,t1,8
   14b14:	00060d93          	mv	s11,a2
   14b18:	0c064063          	bltz	a2,14bd8 <_vfiprintf_r+0x740>
   14b1c:	0c0cce63          	bltz	s9,14bf8 <_vfiprintf_r+0x760>
   14b20:	01b9e633          	or	a2,s3,s11
   14b24:	f7f87813          	and	a6,a6,-129
   14b28:	0c061863          	bnez	a2,14bf8 <_vfiprintf_r+0x760>
   14b2c:	480c96e3          	bnez	s9,157b8 <_vfiprintf_r+0x1320>
   14b30:	00000993          	li	s3,0
   14b34:	00000893          	li	a7,0
   14b38:	0f010c13          	add	s8,sp,240
   14b3c:	0e80006f          	j	14c24 <_vfiprintf_r+0x78c>
   14b40:	41b00db3          	neg	s11,s11
   14b44:	000bc603          	lbu	a2,0(s7)
   14b48:	004c6c13          	or	s8,s8,4
   14b4c:	ae5ff06f          	j	14630 <_vfiprintf_r+0x198>
   14b50:	02b00793          	li	a5,43
   14b54:	000bc603          	lbu	a2,0(s7)
   14b58:	02f10da3          	sb	a5,59(sp)
   14b5c:	ad5ff06f          	j	14630 <_vfiprintf_r+0x198>
   14b60:	000bc603          	lbu	a2,0(s7)
   14b64:	06800793          	li	a5,104
   14b68:	38f604e3          	beq	a2,a5,156f0 <_vfiprintf_r+0x1258>
   14b6c:	040c6c13          	or	s8,s8,64
   14b70:	ac1ff06f          	j	14630 <_vfiprintf_r+0x198>
   14b74:	000d8693          	mv	a3,s11
   14b78:	010c6893          	or	a7,s8,16
   14b7c:	0208f793          	and	a5,a7,32
   14b80:	7e078c63          	beqz	a5,15378 <_vfiprintf_r+0xee0>
   14b84:	00730313          	add	t1,t1,7
   14b88:	ff837313          	and	t1,t1,-8
   14b8c:	00032983          	lw	s3,0(t1)
   14b90:	00432d83          	lw	s11,4(t1)
   14b94:	00830313          	add	t1,t1,8
   14b98:	02010da3          	sb	zero,59(sp)
   14b9c:	00088813          	mv	a6,a7
   14ba0:	040ccc63          	bltz	s9,14bf8 <_vfiprintf_r+0x760>
   14ba4:	01b9e633          	or	a2,s3,s11
   14ba8:	f7f8f813          	and	a6,a7,-129
   14bac:	00100793          	li	a5,1
   14bb0:	04061463          	bnez	a2,14bf8 <_vfiprintf_r+0x760>
   14bb4:	0c0c9663          	bnez	s9,14c80 <_vfiprintf_r+0x7e8>
   14bb8:	f6079ce3          	bnez	a5,14b30 <_vfiprintf_r+0x698>
   14bbc:	0018f893          	and	a7,a7,1
   14bc0:	160884e3          	beqz	a7,15528 <_vfiprintf_r+0x1090>
   14bc4:	03000793          	li	a5,48
   14bc8:	0ef107a3          	sb	a5,239(sp)
   14bcc:	00088993          	mv	s3,a7
   14bd0:	0ef10c13          	add	s8,sp,239
   14bd4:	0500006f          	j	14c24 <_vfiprintf_r+0x78c>
   14bd8:	02d00593          	li	a1,45
   14bdc:	01303633          	snez	a2,s3
   14be0:	41b00eb3          	neg	t4,s11
   14be4:	02b10da3          	sb	a1,59(sp)
   14be8:	40ce8db3          	sub	s11,t4,a2
   14bec:	413009b3          	neg	s3,s3
   14bf0:	000cc463          	bltz	s9,14bf8 <_vfiprintf_r+0x760>
   14bf4:	f7f87813          	and	a6,a6,-129
   14bf8:	060d90e3          	bnez	s11,15458 <_vfiprintf_r+0xfc0>
   14bfc:	00900613          	li	a2,9
   14c00:	05366ce3          	bltu	a2,s3,15458 <_vfiprintf_r+0xfc0>
   14c04:	03098793          	add	a5,s3,48
   14c08:	0ff7f793          	zext.b	a5,a5
   14c0c:	0ef107a3          	sb	a5,239(sp)
   14c10:	000c8993          	mv	s3,s9
   14c14:	01904463          	bgtz	s9,14c1c <_vfiprintf_r+0x784>
   14c18:	00100993          	li	s3,1
   14c1c:	00100893          	li	a7,1
   14c20:	0ef10c13          	add	s8,sp,239
   14c24:	03b14783          	lbu	a5,59(sp)
   14c28:	e80794e3          	bnez	a5,14ab0 <_vfiprintf_r+0x618>
   14c2c:	e89ff06f          	j	14ab4 <_vfiprintf_r+0x61c>
   14c30:	00008637          	lui	a2,0x8
   14c34:	83060613          	add	a2,a2,-2000 # 7830 <exit-0x8864>
   14c38:	02c11e23          	sh	a2,60(sp)
   14c3c:	0000d617          	auipc	a2,0xd
   14c40:	1c860613          	add	a2,a2,456 # 21e04 <__clzsi2+0x84>
   14c44:	00032783          	lw	a5,0(t1)
   14c48:	000d8693          	mv	a3,s11
   14c4c:	00000513          	li	a0,0
   14c50:	002c6813          	or	a6,s8,2
   14c54:	00430313          	add	t1,t1,4
   14c58:	00c12023          	sw	a2,0(sp)
   14c5c:	02010da3          	sb	zero,59(sp)
   14c60:	520cce63          	bltz	s9,1519c <_vfiprintf_r+0xd04>
   14c64:	00a7e633          	or	a2,a5,a0
   14c68:	f7f87593          	and	a1,a6,-129
   14c6c:	52061263          	bnez	a2,15190 <_vfiprintf_r+0xcf8>
   14c70:	00080893          	mv	a7,a6
   14c74:	00200793          	li	a5,2
   14c78:	00058813          	mv	a6,a1
   14c7c:	f20c8ee3          	beqz	s9,14bb8 <_vfiprintf_r+0x720>
   14c80:	00100613          	li	a2,1
   14c84:	32c78ae3          	beq	a5,a2,157b8 <_vfiprintf_r+0x1320>
   14c88:	00200613          	li	a2,2
   14c8c:	2ac782e3          	beq	a5,a2,15730 <_vfiprintf_r+0x1298>
   14c90:	00000793          	li	a5,0
   14c94:	00000513          	li	a0,0
   14c98:	0f010c13          	add	s8,sp,240
   14c9c:	01d51593          	sll	a1,a0,0x1d
   14ca0:	0077f613          	and	a2,a5,7
   14ca4:	0037d793          	srl	a5,a5,0x3
   14ca8:	03060613          	add	a2,a2,48
   14cac:	00f5e7b3          	or	a5,a1,a5
   14cb0:	00355513          	srl	a0,a0,0x3
   14cb4:	fecc0fa3          	sb	a2,-1(s8)
   14cb8:	00a7e5b3          	or	a1,a5,a0
   14cbc:	000c0893          	mv	a7,s8
   14cc0:	fffc0c13          	add	s8,s8,-1
   14cc4:	fc059ce3          	bnez	a1,14c9c <_vfiprintf_r+0x804>
   14cc8:	00187793          	and	a5,a6,1
   14ccc:	50078263          	beqz	a5,151d0 <_vfiprintf_r+0xd38>
   14cd0:	03000593          	li	a1,48
   14cd4:	4eb60e63          	beq	a2,a1,151d0 <_vfiprintf_r+0xd38>
   14cd8:	ffe88793          	add	a5,a7,-2
   14cdc:	0f010613          	add	a2,sp,240
   14ce0:	febc0fa3          	sb	a1,-1(s8)
   14ce4:	40f608b3          	sub	a7,a2,a5
   14ce8:	000c8993          	mv	s3,s9
   14cec:	091cc0e3          	blt	s9,a7,1556c <_vfiprintf_r+0x10d4>
   14cf0:	00078c13          	mv	s8,a5
   14cf4:	f31ff06f          	j	14c24 <_vfiprintf_r+0x78c>
   14cf8:	020c7793          	and	a5,s8,32
   14cfc:	040794e3          	bnez	a5,15544 <_vfiprintf_r+0x10ac>
   14d00:	010c7793          	and	a5,s8,16
   14d04:	1e079ee3          	bnez	a5,15700 <_vfiprintf_r+0x1268>
   14d08:	040c7793          	and	a5,s8,64
   14d0c:	260792e3          	bnez	a5,15770 <_vfiprintf_r+0x12d8>
   14d10:	200c7813          	and	a6,s8,512
   14d14:	1e0806e3          	beqz	a6,15700 <_vfiprintf_r+0x1268>
   14d18:	00032783          	lw	a5,0(t1)
   14d1c:	00430313          	add	t1,t1,4
   14d20:	01a78023          	sb	s10,0(a5)
   14d24:	865ff06f          	j	14588 <_vfiprintf_r+0xf0>
   14d28:	000bc603          	lbu	a2,0(s7)
   14d2c:	06c00793          	li	a5,108
   14d30:	1af608e3          	beq	a2,a5,156e0 <_vfiprintf_r+0x1248>
   14d34:	010c6c13          	or	s8,s8,16
   14d38:	8f9ff06f          	j	14630 <_vfiprintf_r+0x198>
   14d3c:	010c6813          	or	a6,s8,16
   14d40:	02087793          	and	a5,a6,32
   14d44:	000d8693          	mv	a3,s11
   14d48:	da079ce3          	bnez	a5,14b00 <_vfiprintf_r+0x668>
   14d4c:	01087613          	and	a2,a6,16
   14d50:	00032783          	lw	a5,0(t1)
   14d54:	00430313          	add	t1,t1,4
   14d58:	60061863          	bnez	a2,15368 <_vfiprintf_r+0xed0>
   14d5c:	04087613          	and	a2,a6,64
   14d60:	60060063          	beqz	a2,15360 <_vfiprintf_r+0xec8>
   14d64:	01079993          	sll	s3,a5,0x10
   14d68:	4109d993          	sra	s3,s3,0x10
   14d6c:	41f9dd93          	sra	s11,s3,0x1f
   14d70:	000d8613          	mv	a2,s11
   14d74:	da5ff06f          	j	14b18 <_vfiprintf_r+0x680>
   14d78:	000d8693          	mv	a3,s11
   14d7c:	010c6613          	or	a2,s8,16
   14d80:	02067793          	and	a5,a2,32
   14d84:	62078863          	beqz	a5,153b4 <_vfiprintf_r+0xf1c>
   14d88:	00730313          	add	t1,t1,7
   14d8c:	ff837313          	and	t1,t1,-8
   14d90:	00032783          	lw	a5,0(t1)
   14d94:	00432503          	lw	a0,4(t1)
   14d98:	00830313          	add	t1,t1,8
   14d9c:	02010da3          	sb	zero,59(sp)
   14da0:	bff67813          	and	a6,a2,-1025
   14da4:	ee0ccae3          	bltz	s9,14c98 <_vfiprintf_r+0x800>
   14da8:	00a7e5b3          	or	a1,a5,a0
   14dac:	b7f67613          	and	a2,a2,-1153
   14db0:	10059ce3          	bnez	a1,156c8 <_vfiprintf_r+0x1230>
   14db4:	00080893          	mv	a7,a6
   14db8:	00000793          	li	a5,0
   14dbc:	00060813          	mv	a6,a2
   14dc0:	df5ff06f          	j	14bb4 <_vfiprintf_r+0x71c>
   14dc4:	000a0513          	mv	a0,s4
   14dc8:	00612423          	sw	t1,8(sp)
   14dcc:	00e12223          	sw	a4,4(sp)
   14dd0:	1d1010ef          	jal	167a0 <_localeconv_r>
   14dd4:	00452783          	lw	a5,4(a0)
   14dd8:	00078513          	mv	a0,a5
   14ddc:	02f12023          	sw	a5,32(sp)
   14de0:	52d010ef          	jal	16b0c <strlen>
   14de4:	00050793          	mv	a5,a0
   14de8:	000a0513          	mv	a0,s4
   14dec:	00f12e23          	sw	a5,28(sp)
   14df0:	1b1010ef          	jal	167a0 <_localeconv_r>
   14df4:	00852703          	lw	a4,8(a0)
   14df8:	01c12783          	lw	a5,28(sp)
   14dfc:	00812303          	lw	t1,8(sp)
   14e00:	00e12c23          	sw	a4,24(sp)
   14e04:	00412703          	lw	a4,4(sp)
   14e08:	b00780e3          	beqz	a5,14908 <_vfiprintf_r+0x470>
   14e0c:	01812783          	lw	a5,24(sp)
   14e10:	000bc603          	lbu	a2,0(s7)
   14e14:	80078ee3          	beqz	a5,14630 <_vfiprintf_r+0x198>
   14e18:	0007c783          	lbu	a5,0(a5)
   14e1c:	80078ae3          	beqz	a5,14630 <_vfiprintf_r+0x198>
   14e20:	400c6c13          	or	s8,s8,1024
   14e24:	80dff06f          	j	14630 <_vfiprintf_r+0x198>
   14e28:	000bc603          	lbu	a2,0(s7)
   14e2c:	080c6c13          	or	s8,s8,128
   14e30:	801ff06f          	j	14630 <_vfiprintf_r+0x198>
   14e34:	000bc603          	lbu	a2,0(s7)
   14e38:	02a00793          	li	a5,42
   14e3c:	001b8513          	add	a0,s7,1
   14e40:	1af60ce3          	beq	a2,a5,157f8 <_vfiprintf_r+0x1360>
   14e44:	fd060793          	add	a5,a2,-48
   14e48:	00900593          	li	a1,9
   14e4c:	00000c93          	li	s9,0
   14e50:	00900893          	li	a7,9
   14e54:	02f5e463          	bltu	a1,a5,14e7c <_vfiprintf_r+0x9e4>
   14e58:	00054603          	lbu	a2,0(a0)
   14e5c:	002c9593          	sll	a1,s9,0x2
   14e60:	01958cb3          	add	s9,a1,s9
   14e64:	001c9c93          	sll	s9,s9,0x1
   14e68:	00fc8cb3          	add	s9,s9,a5
   14e6c:	fd060793          	add	a5,a2,-48
   14e70:	00150513          	add	a0,a0,1
   14e74:	fef8f2e3          	bgeu	a7,a5,14e58 <_vfiprintf_r+0x9c0>
   14e78:	700cc063          	bltz	s9,15578 <_vfiprintf_r+0x10e0>
   14e7c:	00050b93          	mv	s7,a0
   14e80:	fb4ff06f          	j	14634 <_vfiprintf_r+0x19c>
   14e84:	000bc603          	lbu	a2,0(s7)
   14e88:	001c6c13          	or	s8,s8,1
   14e8c:	fa4ff06f          	j	14630 <_vfiprintf_r+0x198>
   14e90:	03b14783          	lbu	a5,59(sp)
   14e94:	000bc603          	lbu	a2,0(s7)
   14e98:	f8079c63          	bnez	a5,14630 <_vfiprintf_r+0x198>
   14e9c:	02000793          	li	a5,32
   14ea0:	02f10da3          	sb	a5,59(sp)
   14ea4:	f8cff06f          	j	14630 <_vfiprintf_r+0x198>
   14ea8:	00100713          	li	a4,1
   14eac:	04e12223          	sw	a4,68(sp)
   14eb0:	00088793          	mv	a5,a7
   14eb4:	05812623          	sw	s8,76(sp)
   14eb8:	05112823          	sw	a7,80(sp)
   14ebc:	05112423          	sw	a7,72(sp)
   14ec0:	00048713          	mv	a4,s1
   14ec4:	00870713          	add	a4,a4,8
   14ec8:	9e5ff06f          	j	148ac <_vfiprintf_r+0x414>
   14ecc:	00100513          	li	a0,1
   14ed0:	00000593          	li	a1,0
   14ed4:	00048713          	mv	a4,s1
   14ed8:	ab1ff06f          	j	14988 <_vfiprintf_r+0x4f0>
   14edc:	41368db3          	sub	s11,a3,s3
   14ee0:	97b058e3          	blez	s11,14850 <_vfiprintf_r+0x3b8>
   14ee4:	01000593          	li	a1,16
   14ee8:	0fb5dce3          	bge	a1,s11,157e0 <_vfiprintf_r+0x1348>
   14eec:	0000df17          	auipc	t5,0xd
   14ef0:	410f0f13          	add	t5,t5,1040 # 222fc <zeroes.0>
   14ef4:	01312823          	sw	s3,16(sp)
   14ef8:	01712a23          	sw	s7,20(sp)
   14efc:	000d8993          	mv	s3,s11
   14f00:	01000e93          	li	t4,16
   14f04:	00700f93          	li	t6,7
   14f08:	01012223          	sw	a6,4(sp)
   14f0c:	01112423          	sw	a7,8(sp)
   14f10:	00d12623          	sw	a3,12(sp)
   14f14:	00030d93          	mv	s11,t1
   14f18:	000f0b93          	mv	s7,t5
   14f1c:	0180006f          	j	14f34 <_vfiprintf_r+0xa9c>
   14f20:	00260513          	add	a0,a2,2
   14f24:	00870713          	add	a4,a4,8
   14f28:	00068613          	mv	a2,a3
   14f2c:	ff098993          	add	s3,s3,-16
   14f30:	053edc63          	bge	t4,s3,14f88 <_vfiprintf_r+0xaf0>
   14f34:	01078793          	add	a5,a5,16
   14f38:	00160693          	add	a3,a2,1
   14f3c:	01772023          	sw	s7,0(a4)
   14f40:	01d72223          	sw	t4,4(a4)
   14f44:	04f12423          	sw	a5,72(sp)
   14f48:	04d12223          	sw	a3,68(sp)
   14f4c:	fcdfdae3          	bge	t6,a3,14f20 <_vfiprintf_r+0xa88>
   14f50:	1a078463          	beqz	a5,150f8 <_vfiprintf_r+0xc60>
   14f54:	04010613          	add	a2,sp,64
   14f58:	00090593          	mv	a1,s2
   14f5c:	000a0513          	mv	a0,s4
   14f60:	bfcff0ef          	jal	1435c <__sprint_r.part.0>
   14f64:	f6051263          	bnez	a0,146c8 <_vfiprintf_r+0x230>
   14f68:	04412603          	lw	a2,68(sp)
   14f6c:	01000e93          	li	t4,16
   14f70:	ff098993          	add	s3,s3,-16
   14f74:	04812783          	lw	a5,72(sp)
   14f78:	00048713          	mv	a4,s1
   14f7c:	00160513          	add	a0,a2,1
   14f80:	00700f93          	li	t6,7
   14f84:	fb3ec8e3          	blt	t4,s3,14f34 <_vfiprintf_r+0xa9c>
   14f88:	000d8313          	mv	t1,s11
   14f8c:	000b8f13          	mv	t5,s7
   14f90:	00098d93          	mv	s11,s3
   14f94:	00412803          	lw	a6,4(sp)
   14f98:	00812883          	lw	a7,8(sp)
   14f9c:	00c12683          	lw	a3,12(sp)
   14fa0:	01012983          	lw	s3,16(sp)
   14fa4:	01412b83          	lw	s7,20(sp)
   14fa8:	01b787b3          	add	a5,a5,s11
   14fac:	01e72023          	sw	t5,0(a4)
   14fb0:	01b72223          	sw	s11,4(a4)
   14fb4:	04f12423          	sw	a5,72(sp)
   14fb8:	04a12223          	sw	a0,68(sp)
   14fbc:	00700613          	li	a2,7
   14fc0:	56a65a63          	bge	a2,a0,15534 <_vfiprintf_r+0x109c>
   14fc4:	76078c63          	beqz	a5,1573c <_vfiprintf_r+0x12a4>
   14fc8:	04010613          	add	a2,sp,64
   14fcc:	00090593          	mv	a1,s2
   14fd0:	000a0513          	mv	a0,s4
   14fd4:	00612823          	sw	t1,16(sp)
   14fd8:	00d12623          	sw	a3,12(sp)
   14fdc:	01112423          	sw	a7,8(sp)
   14fe0:	01012223          	sw	a6,4(sp)
   14fe4:	b78ff0ef          	jal	1435c <__sprint_r.part.0>
   14fe8:	ee051063          	bnez	a0,146c8 <_vfiprintf_r+0x230>
   14fec:	00812883          	lw	a7,8(sp)
   14ff0:	04412603          	lw	a2,68(sp)
   14ff4:	04812783          	lw	a5,72(sp)
   14ff8:	411c8cb3          	sub	s9,s9,a7
   14ffc:	01012303          	lw	t1,16(sp)
   15000:	00c12683          	lw	a3,12(sp)
   15004:	00412803          	lw	a6,4(sp)
   15008:	00048713          	mv	a4,s1
   1500c:	00160e93          	add	t4,a2,1
   15010:	859054e3          	blez	s9,14858 <_vfiprintf_r+0x3c0>
   15014:	0000df17          	auipc	t5,0xd
   15018:	2e8f0f13          	add	t5,t5,744 # 222fc <zeroes.0>
   1501c:	0b945263          	bge	s0,s9,150c0 <_vfiprintf_r+0xc28>
   15020:	01312823          	sw	s3,16(sp)
   15024:	00700d93          	li	s11,7
   15028:	000c8993          	mv	s3,s9
   1502c:	01012223          	sw	a6,4(sp)
   15030:	01112423          	sw	a7,8(sp)
   15034:	00d12623          	sw	a3,12(sp)
   15038:	00612a23          	sw	t1,20(sp)
   1503c:	000a8c93          	mv	s9,s5
   15040:	0180006f          	j	15058 <_vfiprintf_r+0xbc0>
   15044:	00260e93          	add	t4,a2,2
   15048:	00870713          	add	a4,a4,8
   1504c:	00068613          	mv	a2,a3
   15050:	ff098993          	add	s3,s3,-16
   15054:	05345863          	bge	s0,s3,150a4 <_vfiprintf_r+0xc0c>
   15058:	01078793          	add	a5,a5,16
   1505c:	00160693          	add	a3,a2,1
   15060:	01572023          	sw	s5,0(a4)
   15064:	00872223          	sw	s0,4(a4)
   15068:	04f12423          	sw	a5,72(sp)
   1506c:	04d12223          	sw	a3,68(sp)
   15070:	fcdddae3          	bge	s11,a3,15044 <_vfiprintf_r+0xbac>
   15074:	06078a63          	beqz	a5,150e8 <_vfiprintf_r+0xc50>
   15078:	04010613          	add	a2,sp,64
   1507c:	00090593          	mv	a1,s2
   15080:	000a0513          	mv	a0,s4
   15084:	ad8ff0ef          	jal	1435c <__sprint_r.part.0>
   15088:	e4051063          	bnez	a0,146c8 <_vfiprintf_r+0x230>
   1508c:	04412603          	lw	a2,68(sp)
   15090:	ff098993          	add	s3,s3,-16
   15094:	04812783          	lw	a5,72(sp)
   15098:	00048713          	mv	a4,s1
   1509c:	00160e93          	add	t4,a2,1
   150a0:	fb344ce3          	blt	s0,s3,15058 <_vfiprintf_r+0xbc0>
   150a4:	000c8f13          	mv	t5,s9
   150a8:	00412803          	lw	a6,4(sp)
   150ac:	00098c93          	mv	s9,s3
   150b0:	00812883          	lw	a7,8(sp)
   150b4:	00c12683          	lw	a3,12(sp)
   150b8:	01412303          	lw	t1,20(sp)
   150bc:	01012983          	lw	s3,16(sp)
   150c0:	019787b3          	add	a5,a5,s9
   150c4:	01e72023          	sw	t5,0(a4)
   150c8:	01972223          	sw	s9,4(a4)
   150cc:	04f12423          	sw	a5,72(sp)
   150d0:	05d12223          	sw	t4,68(sp)
   150d4:	00700613          	li	a2,7
   150d8:	23d64863          	blt	a2,t4,15308 <_vfiprintf_r+0xe70>
   150dc:	00870713          	add	a4,a4,8
   150e0:	001e8e93          	add	t4,t4,1
   150e4:	f74ff06f          	j	14858 <_vfiprintf_r+0x3c0>
   150e8:	00100e93          	li	t4,1
   150ec:	00000613          	li	a2,0
   150f0:	00048713          	mv	a4,s1
   150f4:	f5dff06f          	j	15050 <_vfiprintf_r+0xbb8>
   150f8:	00100513          	li	a0,1
   150fc:	00000613          	li	a2,0
   15100:	00048713          	mv	a4,s1
   15104:	e29ff06f          	j	14f2c <_vfiprintf_r+0xa94>
   15108:	04078e63          	beqz	a5,15164 <_vfiprintf_r+0xccc>
   1510c:	04010613          	add	a2,sp,64
   15110:	00090593          	mv	a1,s2
   15114:	000a0513          	mv	a0,s4
   15118:	02612223          	sw	t1,36(sp)
   1511c:	00d12a23          	sw	a3,20(sp)
   15120:	01112823          	sw	a7,16(sp)
   15124:	00512623          	sw	t0,12(sp)
   15128:	01f12423          	sw	t6,8(sp)
   1512c:	01012223          	sw	a6,4(sp)
   15130:	a2cff0ef          	jal	1435c <__sprint_r.part.0>
   15134:	d8051a63          	bnez	a0,146c8 <_vfiprintf_r+0x230>
   15138:	04412603          	lw	a2,68(sp)
   1513c:	04812783          	lw	a5,72(sp)
   15140:	02412303          	lw	t1,36(sp)
   15144:	01412683          	lw	a3,20(sp)
   15148:	01012883          	lw	a7,16(sp)
   1514c:	00c12283          	lw	t0,12(sp)
   15150:	00812f83          	lw	t6,8(sp)
   15154:	00412803          	lw	a6,4(sp)
   15158:	00048713          	mv	a4,s1
   1515c:	00160e93          	add	t4,a2,1
   15160:	e70ff06f          	j	147d0 <_vfiprintf_r+0x338>
   15164:	3e0f8c63          	beqz	t6,1555c <_vfiprintf_r+0x10c4>
   15168:	03c10793          	add	a5,sp,60
   1516c:	04f12623          	sw	a5,76(sp)
   15170:	00200793          	li	a5,2
   15174:	04f12823          	sw	a5,80(sp)
   15178:	00100e93          	li	t4,1
   1517c:	00048713          	mv	a4,s1
   15180:	000e8613          	mv	a2,t4
   15184:	00870713          	add	a4,a4,8
   15188:	001e8e93          	add	t4,t4,1
   1518c:	ebcff06f          	j	14848 <_vfiprintf_r+0x3b0>
   15190:	00200613          	li	a2,2
   15194:	00058813          	mv	a6,a1
   15198:	b00600e3          	beqz	a2,14c98 <_vfiprintf_r+0x800>
   1519c:	00012883          	lw	a7,0(sp)
   151a0:	0f010c13          	add	s8,sp,240
   151a4:	00f7f613          	and	a2,a5,15
   151a8:	00c88633          	add	a2,a7,a2
   151ac:	00064583          	lbu	a1,0(a2)
   151b0:	0047d793          	srl	a5,a5,0x4
   151b4:	01c51613          	sll	a2,a0,0x1c
   151b8:	00f667b3          	or	a5,a2,a5
   151bc:	00455513          	srl	a0,a0,0x4
   151c0:	febc0fa3          	sb	a1,-1(s8)
   151c4:	00a7e633          	or	a2,a5,a0
   151c8:	fffc0c13          	add	s8,s8,-1
   151cc:	fc061ce3          	bnez	a2,151a4 <_vfiprintf_r+0xd0c>
   151d0:	0f010793          	add	a5,sp,240
   151d4:	418788b3          	sub	a7,a5,s8
   151d8:	000c8993          	mv	s3,s9
   151dc:	a51cd4e3          	bge	s9,a7,14c24 <_vfiprintf_r+0x78c>
   151e0:	00088993          	mv	s3,a7
   151e4:	a41ff06f          	j	14c24 <_vfiprintf_r+0x78c>
   151e8:	01000513          	li	a0,16
   151ec:	5db55a63          	bge	a0,s11,157c0 <_vfiprintf_r+0x1328>
   151f0:	0000de97          	auipc	t4,0xd
   151f4:	11ce8e93          	add	t4,t4,284 # 2230c <blanks.1>
   151f8:	03312223          	sw	s3,36(sp)
   151fc:	03712423          	sw	s7,40(sp)
   15200:	000d8993          	mv	s3,s11
   15204:	01000f13          	li	t5,16
   15208:	00700393          	li	t2,7
   1520c:	01012223          	sw	a6,4(sp)
   15210:	01f12423          	sw	t6,8(sp)
   15214:	00512623          	sw	t0,12(sp)
   15218:	01112823          	sw	a7,16(sp)
   1521c:	00d12a23          	sw	a3,20(sp)
   15220:	00030d93          	mv	s11,t1
   15224:	000e8b93          	mv	s7,t4
   15228:	01c0006f          	j	15244 <_vfiprintf_r+0xdac>
   1522c:	00260513          	add	a0,a2,2
   15230:	00870713          	add	a4,a4,8
   15234:	00058613          	mv	a2,a1
   15238:	ff098993          	add	s3,s3,-16
   1523c:	053f5c63          	bge	t5,s3,15294 <_vfiprintf_r+0xdfc>
   15240:	00160593          	add	a1,a2,1
   15244:	01078793          	add	a5,a5,16
   15248:	01772023          	sw	s7,0(a4)
   1524c:	01e72223          	sw	t5,4(a4)
   15250:	04f12423          	sw	a5,72(sp)
   15254:	04b12223          	sw	a1,68(sp)
   15258:	fcb3dae3          	bge	t2,a1,1522c <_vfiprintf_r+0xd94>
   1525c:	08078663          	beqz	a5,152e8 <_vfiprintf_r+0xe50>
   15260:	04010613          	add	a2,sp,64
   15264:	00090593          	mv	a1,s2
   15268:	000a0513          	mv	a0,s4
   1526c:	8f0ff0ef          	jal	1435c <__sprint_r.part.0>
   15270:	c4051c63          	bnez	a0,146c8 <_vfiprintf_r+0x230>
   15274:	04412603          	lw	a2,68(sp)
   15278:	01000f13          	li	t5,16
   1527c:	ff098993          	add	s3,s3,-16
   15280:	04812783          	lw	a5,72(sp)
   15284:	00048713          	mv	a4,s1
   15288:	00160513          	add	a0,a2,1
   1528c:	00700393          	li	t2,7
   15290:	fb3f48e3          	blt	t5,s3,15240 <_vfiprintf_r+0xda8>
   15294:	000d8313          	mv	t1,s11
   15298:	000b8e93          	mv	t4,s7
   1529c:	00098d93          	mv	s11,s3
   152a0:	00412803          	lw	a6,4(sp)
   152a4:	00812f83          	lw	t6,8(sp)
   152a8:	00c12283          	lw	t0,12(sp)
   152ac:	01012883          	lw	a7,16(sp)
   152b0:	01412683          	lw	a3,20(sp)
   152b4:	02412983          	lw	s3,36(sp)
   152b8:	02812b83          	lw	s7,40(sp)
   152bc:	01b787b3          	add	a5,a5,s11
   152c0:	01d72023          	sw	t4,0(a4)
   152c4:	01b72223          	sw	s11,4(a4)
   152c8:	04f12423          	sw	a5,72(sp)
   152cc:	04a12223          	sw	a0,68(sp)
   152d0:	00700613          	li	a2,7
   152d4:	12a64463          	blt	a2,a0,153fc <_vfiprintf_r+0xf64>
   152d8:	00870713          	add	a4,a4,8
   152dc:	00150e93          	add	t4,a0,1
   152e0:	00050613          	mv	a2,a0
   152e4:	cb4ff06f          	j	14798 <_vfiprintf_r+0x300>
   152e8:	00000613          	li	a2,0
   152ec:	00100513          	li	a0,1
   152f0:	00048713          	mv	a4,s1
   152f4:	f45ff06f          	j	15238 <_vfiprintf_r+0xda0>
   152f8:	0136d463          	bge	a3,s3,15300 <_vfiprintf_r+0xe68>
   152fc:	00098693          	mv	a3,s3
   15300:	00dd0d33          	add	s10,s10,a3
   15304:	dc8ff06f          	j	148cc <_vfiprintf_r+0x434>
   15308:	ba0780e3          	beqz	a5,14ea8 <_vfiprintf_r+0xa10>
   1530c:	04010613          	add	a2,sp,64
   15310:	00090593          	mv	a1,s2
   15314:	000a0513          	mv	a0,s4
   15318:	00612823          	sw	t1,16(sp)
   1531c:	00d12623          	sw	a3,12(sp)
   15320:	01112423          	sw	a7,8(sp)
   15324:	01012223          	sw	a6,4(sp)
   15328:	834ff0ef          	jal	1435c <__sprint_r.part.0>
   1532c:	b8051e63          	bnez	a0,146c8 <_vfiprintf_r+0x230>
   15330:	04412e83          	lw	t4,68(sp)
   15334:	04812783          	lw	a5,72(sp)
   15338:	01012303          	lw	t1,16(sp)
   1533c:	00c12683          	lw	a3,12(sp)
   15340:	00812883          	lw	a7,8(sp)
   15344:	00412803          	lw	a6,4(sp)
   15348:	00048713          	mv	a4,s1
   1534c:	001e8e93          	add	t4,t4,1
   15350:	d08ff06f          	j	14858 <_vfiprintf_r+0x3c0>
   15354:	04012223          	sw	zero,68(sp)
   15358:	00048713          	mv	a4,s1
   1535c:	aa4ff06f          	j	14600 <_vfiprintf_r+0x168>
   15360:	20087613          	and	a2,a6,512
   15364:	42061463          	bnez	a2,1578c <_vfiprintf_r+0x12f4>
   15368:	41f7dd93          	sra	s11,a5,0x1f
   1536c:	00078993          	mv	s3,a5
   15370:	000d8613          	mv	a2,s11
   15374:	fa4ff06f          	j	14b18 <_vfiprintf_r+0x680>
   15378:	0108f613          	and	a2,a7,16
   1537c:	00032783          	lw	a5,0(t1)
   15380:	00430313          	add	t1,t1,4
   15384:	02061263          	bnez	a2,153a8 <_vfiprintf_r+0xf10>
   15388:	0408f613          	and	a2,a7,64
   1538c:	00060a63          	beqz	a2,153a0 <_vfiprintf_r+0xf08>
   15390:	01079993          	sll	s3,a5,0x10
   15394:	0109d993          	srl	s3,s3,0x10
   15398:	00000d93          	li	s11,0
   1539c:	ffcff06f          	j	14b98 <_vfiprintf_r+0x700>
   153a0:	2008f613          	and	a2,a7,512
   153a4:	3e061e63          	bnez	a2,157a0 <_vfiprintf_r+0x1308>
   153a8:	00078993          	mv	s3,a5
   153ac:	00000d93          	li	s11,0
   153b0:	fe8ff06f          	j	14b98 <_vfiprintf_r+0x700>
   153b4:	01067593          	and	a1,a2,16
   153b8:	00032783          	lw	a5,0(t1)
   153bc:	00430313          	add	t1,t1,4
   153c0:	02059263          	bnez	a1,153e4 <_vfiprintf_r+0xf4c>
   153c4:	04067593          	and	a1,a2,64
   153c8:	00058a63          	beqz	a1,153dc <_vfiprintf_r+0xf44>
   153cc:	01079793          	sll	a5,a5,0x10
   153d0:	0107d793          	srl	a5,a5,0x10
   153d4:	00000513          	li	a0,0
   153d8:	9c5ff06f          	j	14d9c <_vfiprintf_r+0x904>
   153dc:	20067593          	and	a1,a2,512
   153e0:	3a059063          	bnez	a1,15780 <_vfiprintf_r+0x12e8>
   153e4:	00000513          	li	a0,0
   153e8:	9b5ff06f          	j	14d9c <_vfiprintf_r+0x904>
   153ec:	00100e93          	li	t4,1
   153f0:	00000613          	li	a2,0
   153f4:	00048713          	mv	a4,s1
   153f8:	c50ff06f          	j	14848 <_vfiprintf_r+0x3b0>
   153fc:	24078c63          	beqz	a5,15654 <_vfiprintf_r+0x11bc>
   15400:	04010613          	add	a2,sp,64
   15404:	00090593          	mv	a1,s2
   15408:	000a0513          	mv	a0,s4
   1540c:	02612223          	sw	t1,36(sp)
   15410:	00d12a23          	sw	a3,20(sp)
   15414:	01112823          	sw	a7,16(sp)
   15418:	00512623          	sw	t0,12(sp)
   1541c:	01f12423          	sw	t6,8(sp)
   15420:	01012223          	sw	a6,4(sp)
   15424:	f39fe0ef          	jal	1435c <__sprint_r.part.0>
   15428:	aa051063          	bnez	a0,146c8 <_vfiprintf_r+0x230>
   1542c:	04412603          	lw	a2,68(sp)
   15430:	04812783          	lw	a5,72(sp)
   15434:	02412303          	lw	t1,36(sp)
   15438:	01412683          	lw	a3,20(sp)
   1543c:	01012883          	lw	a7,16(sp)
   15440:	00c12283          	lw	t0,12(sp)
   15444:	00812f83          	lw	t6,8(sp)
   15448:	00412803          	lw	a6,4(sp)
   1544c:	00048713          	mv	a4,s1
   15450:	00160e93          	add	t4,a2,1
   15454:	b44ff06f          	j	14798 <_vfiprintf_r+0x300>
   15458:	40087793          	and	a5,a6,1024
   1545c:	00000613          	li	a2,0
   15460:	0f010893          	add	a7,sp,240
   15464:	01912623          	sw	s9,12(sp)
   15468:	01a12a23          	sw	s10,20(sp)
   1546c:	03412223          	sw	s4,36(sp)
   15470:	03212423          	sw	s2,40(sp)
   15474:	01812d03          	lw	s10,24(sp)
   15478:	01012223          	sw	a6,4(sp)
   1547c:	00d12423          	sw	a3,8(sp)
   15480:	00e12823          	sw	a4,16(sp)
   15484:	00078c93          	mv	s9,a5
   15488:	00060a13          	mv	s4,a2
   1548c:	00088913          	mv	s2,a7
   15490:	02612623          	sw	t1,44(sp)
   15494:	0280006f          	j	154bc <_vfiprintf_r+0x1024>
   15498:	00a00613          	li	a2,10
   1549c:	00000693          	li	a3,0
   154a0:	00098513          	mv	a0,s3
   154a4:	000d8593          	mv	a1,s11
   154a8:	391060ef          	jal	1c038 <__udivdi3>
   154ac:	2a0d8063          	beqz	s11,1574c <_vfiprintf_r+0x12b4>
   154b0:	00050993          	mv	s3,a0
   154b4:	00058d93          	mv	s11,a1
   154b8:	000c0913          	mv	s2,s8
   154bc:	00a00613          	li	a2,10
   154c0:	00000693          	li	a3,0
   154c4:	00098513          	mv	a0,s3
   154c8:	000d8593          	mv	a1,s11
   154cc:	130070ef          	jal	1c5fc <__umoddi3>
   154d0:	03050513          	add	a0,a0,48
   154d4:	fea90fa3          	sb	a0,-1(s2)
   154d8:	fff90c13          	add	s8,s2,-1
   154dc:	001a0a13          	add	s4,s4,1
   154e0:	fa0c8ce3          	beqz	s9,15498 <_vfiprintf_r+0x1000>
   154e4:	000d4783          	lbu	a5,0(s10)
   154e8:	fb4798e3          	bne	a5,s4,15498 <_vfiprintf_r+0x1000>
   154ec:	0ff00793          	li	a5,255
   154f0:	fafa04e3          	beq	s4,a5,15498 <_vfiprintf_r+0x1000>
   154f4:	180d9263          	bnez	s11,15678 <_vfiprintf_r+0x11e0>
   154f8:	00900793          	li	a5,9
   154fc:	1737ee63          	bltu	a5,s3,15678 <_vfiprintf_r+0x11e0>
   15500:	01a12c23          	sw	s10,24(sp)
   15504:	00412803          	lw	a6,4(sp)
   15508:	00812683          	lw	a3,8(sp)
   1550c:	00c12c83          	lw	s9,12(sp)
   15510:	01012703          	lw	a4,16(sp)
   15514:	01412d03          	lw	s10,20(sp)
   15518:	02412a03          	lw	s4,36(sp)
   1551c:	02812903          	lw	s2,40(sp)
   15520:	02c12303          	lw	t1,44(sp)
   15524:	cadff06f          	j	151d0 <_vfiprintf_r+0xd38>
   15528:	00000993          	li	s3,0
   1552c:	0f010c13          	add	s8,sp,240
   15530:	ef4ff06f          	j	14c24 <_vfiprintf_r+0x78c>
   15534:	00870713          	add	a4,a4,8
   15538:	00150e93          	add	t4,a0,1
   1553c:	00050613          	mv	a2,a0
   15540:	b10ff06f          	j	14850 <_vfiprintf_r+0x3b8>
   15544:	00032783          	lw	a5,0(t1)
   15548:	41fd5693          	sra	a3,s10,0x1f
   1554c:	00430313          	add	t1,t1,4
   15550:	01a7a023          	sw	s10,0(a5)
   15554:	00d7a223          	sw	a3,4(a5)
   15558:	830ff06f          	j	14588 <_vfiprintf_r+0xf0>
   1555c:	00000613          	li	a2,0
   15560:	00100e93          	li	t4,1
   15564:	00048713          	mv	a4,s1
   15568:	ae0ff06f          	j	14848 <_vfiprintf_r+0x3b0>
   1556c:	00088993          	mv	s3,a7
   15570:	00078c13          	mv	s8,a5
   15574:	eb0ff06f          	j	14c24 <_vfiprintf_r+0x78c>
   15578:	fff00c93          	li	s9,-1
   1557c:	00050b93          	mv	s7,a0
   15580:	8b4ff06f          	j	14634 <_vfiprintf_r+0x19c>
   15584:	000d8693          	mv	a3,s11
   15588:	000c0893          	mv	a7,s8
   1558c:	df0ff06f          	j	14b7c <_vfiprintf_r+0x6e4>
   15590:	0000d797          	auipc	a5,0xd
   15594:	88878793          	add	a5,a5,-1912 # 21e18 <__clzsi2+0x98>
   15598:	000c0813          	mv	a6,s8
   1559c:	00f12023          	sw	a5,0(sp)
   155a0:	02087793          	and	a5,a6,32
   155a4:	000d8693          	mv	a3,s11
   155a8:	06078463          	beqz	a5,15610 <_vfiprintf_r+0x1178>
   155ac:	00730313          	add	t1,t1,7
   155b0:	ff837313          	and	t1,t1,-8
   155b4:	00032783          	lw	a5,0(t1)
   155b8:	00432503          	lw	a0,4(t1)
   155bc:	00830313          	add	t1,t1,8
   155c0:	00187593          	and	a1,a6,1
   155c4:	00058e63          	beqz	a1,155e0 <_vfiprintf_r+0x1148>
   155c8:	00a7e5b3          	or	a1,a5,a0
   155cc:	00058a63          	beqz	a1,155e0 <_vfiprintf_r+0x1148>
   155d0:	03000593          	li	a1,48
   155d4:	02b10e23          	sb	a1,60(sp)
   155d8:	02c10ea3          	sb	a2,61(sp)
   155dc:	00286813          	or	a6,a6,2
   155e0:	bff87813          	and	a6,a6,-1025
   155e4:	e78ff06f          	j	14c5c <_vfiprintf_r+0x7c4>
   155e8:	000d8693          	mv	a3,s11
   155ec:	000c0613          	mv	a2,s8
   155f0:	f90ff06f          	j	14d80 <_vfiprintf_r+0x8e8>
   155f4:	0000d797          	auipc	a5,0xd
   155f8:	81078793          	add	a5,a5,-2032 # 21e04 <__clzsi2+0x84>
   155fc:	000c0813          	mv	a6,s8
   15600:	00f12023          	sw	a5,0(sp)
   15604:	02087793          	and	a5,a6,32
   15608:	000d8693          	mv	a3,s11
   1560c:	fa0790e3          	bnez	a5,155ac <_vfiprintf_r+0x1114>
   15610:	01087593          	and	a1,a6,16
   15614:	00032783          	lw	a5,0(t1)
   15618:	00430313          	add	t1,t1,4
   1561c:	0a059263          	bnez	a1,156c0 <_vfiprintf_r+0x1228>
   15620:	04087593          	and	a1,a6,64
   15624:	08058a63          	beqz	a1,156b8 <_vfiprintf_r+0x1220>
   15628:	01079793          	sll	a5,a5,0x10
   1562c:	0107d793          	srl	a5,a5,0x10
   15630:	00000513          	li	a0,0
   15634:	f8dff06f          	j	155c0 <_vfiprintf_r+0x1128>
   15638:	000c0513          	mv	a0,s8
   1563c:	4d0010ef          	jal	16b0c <strlen>
   15640:	00412803          	lw	a6,4(sp)
   15644:	00812683          	lw	a3,8(sp)
   15648:	00c12703          	lw	a4,12(sp)
   1564c:	00050893          	mv	a7,a0
   15650:	c40ff06f          	j	14a90 <_vfiprintf_r+0x5f8>
   15654:	03b14703          	lbu	a4,59(sp)
   15658:	10070463          	beqz	a4,15760 <_vfiprintf_r+0x12c8>
   1565c:	03b10793          	add	a5,sp,59
   15660:	04f12623          	sw	a5,76(sp)
   15664:	00100793          	li	a5,1
   15668:	04f12823          	sw	a5,80(sp)
   1566c:	00100e93          	li	t4,1
   15670:	00048713          	mv	a4,s1
   15674:	950ff06f          	j	147c4 <_vfiprintf_r+0x32c>
   15678:	01c12783          	lw	a5,28(sp)
   1567c:	02012583          	lw	a1,32(sp)
   15680:	00000a13          	li	s4,0
   15684:	40fc0c33          	sub	s8,s8,a5
   15688:	00078613          	mv	a2,a5
   1568c:	000c0513          	mv	a0,s8
   15690:	75d000ef          	jal	165ec <strncpy>
   15694:	001d4783          	lbu	a5,1(s10)
   15698:	00a00613          	li	a2,10
   1569c:	00000693          	li	a3,0
   156a0:	00f037b3          	snez	a5,a5
   156a4:	00098513          	mv	a0,s3
   156a8:	000d8593          	mv	a1,s11
   156ac:	00fd0d33          	add	s10,s10,a5
   156b0:	189060ef          	jal	1c038 <__udivdi3>
   156b4:	dfdff06f          	j	154b0 <_vfiprintf_r+0x1018>
   156b8:	20087593          	and	a1,a6,512
   156bc:	0e059863          	bnez	a1,157ac <_vfiprintf_r+0x1314>
   156c0:	00000513          	li	a0,0
   156c4:	efdff06f          	j	155c0 <_vfiprintf_r+0x1128>
   156c8:	00060813          	mv	a6,a2
   156cc:	00000613          	li	a2,0
   156d0:	dc060463          	beqz	a2,14c98 <_vfiprintf_r+0x800>
   156d4:	ac9ff06f          	j	1519c <_vfiprintf_r+0xd04>
   156d8:	ea5fa0ef          	jal	1057c <__sinit>
   156dc:	df9fe06f          	j	144d4 <_vfiprintf_r+0x3c>
   156e0:	001bc603          	lbu	a2,1(s7)
   156e4:	020c6c13          	or	s8,s8,32
   156e8:	001b8b93          	add	s7,s7,1
   156ec:	f45fe06f          	j	14630 <_vfiprintf_r+0x198>
   156f0:	001bc603          	lbu	a2,1(s7)
   156f4:	200c6c13          	or	s8,s8,512
   156f8:	001b8b93          	add	s7,s7,1
   156fc:	f35fe06f          	j	14630 <_vfiprintf_r+0x198>
   15700:	00032783          	lw	a5,0(t1)
   15704:	00430313          	add	t1,t1,4
   15708:	01a7a023          	sw	s10,0(a5)
   1570c:	e7dfe06f          	j	14588 <_vfiprintf_r+0xf0>
   15710:	00600793          	li	a5,6
   15714:	000c8893          	mv	a7,s9
   15718:	0597e063          	bltu	a5,s9,15758 <_vfiprintf_r+0x12c0>
   1571c:	00088993          	mv	s3,a7
   15720:	000d8313          	mv	t1,s11
   15724:	0000cc17          	auipc	s8,0xc
   15728:	708c0c13          	add	s8,s8,1800 # 21e2c <__clzsi2+0xac>
   1572c:	844ff06f          	j	14770 <_vfiprintf_r+0x2d8>
   15730:	00000793          	li	a5,0
   15734:	00000513          	li	a0,0
   15738:	a65ff06f          	j	1519c <_vfiprintf_r+0xd04>
   1573c:	00100e93          	li	t4,1
   15740:	00000613          	li	a2,0
   15744:	00048713          	mv	a4,s1
   15748:	908ff06f          	j	14850 <_vfiprintf_r+0x3b8>
   1574c:	00900793          	li	a5,9
   15750:	d737e0e3          	bltu	a5,s3,154b0 <_vfiprintf_r+0x1018>
   15754:	dadff06f          	j	15500 <_vfiprintf_r+0x1068>
   15758:	00600893          	li	a7,6
   1575c:	fc1ff06f          	j	1571c <_vfiprintf_r+0x1284>
   15760:	00000613          	li	a2,0
   15764:	00100e93          	li	t4,1
   15768:	00048713          	mv	a4,s1
   1576c:	864ff06f          	j	147d0 <_vfiprintf_r+0x338>
   15770:	00032783          	lw	a5,0(t1)
   15774:	00430313          	add	t1,t1,4
   15778:	01a79023          	sh	s10,0(a5)
   1577c:	e0dfe06f          	j	14588 <_vfiprintf_r+0xf0>
   15780:	0ff7f793          	zext.b	a5,a5
   15784:	00000513          	li	a0,0
   15788:	e14ff06f          	j	14d9c <_vfiprintf_r+0x904>
   1578c:	01879993          	sll	s3,a5,0x18
   15790:	4189d993          	sra	s3,s3,0x18
   15794:	41f9dd93          	sra	s11,s3,0x1f
   15798:	000d8613          	mv	a2,s11
   1579c:	b7cff06f          	j	14b18 <_vfiprintf_r+0x680>
   157a0:	0ff7f993          	zext.b	s3,a5
   157a4:	00000d93          	li	s11,0
   157a8:	bf0ff06f          	j	14b98 <_vfiprintf_r+0x700>
   157ac:	0ff7f793          	zext.b	a5,a5
   157b0:	00000513          	li	a0,0
   157b4:	e0dff06f          	j	155c0 <_vfiprintf_r+0x1128>
   157b8:	03000793          	li	a5,48
   157bc:	c50ff06f          	j	14c0c <_vfiprintf_r+0x774>
   157c0:	00058513          	mv	a0,a1
   157c4:	0000de97          	auipc	t4,0xd
   157c8:	b48e8e93          	add	t4,t4,-1208 # 2230c <blanks.1>
   157cc:	af1ff06f          	j	152bc <_vfiprintf_r+0xe24>
   157d0:	00158513          	add	a0,a1,1
   157d4:	0000de97          	auipc	t4,0xd
   157d8:	b38e8e93          	add	t4,t4,-1224 # 2230c <blanks.1>
   157dc:	a18ff06f          	j	149f4 <_vfiprintf_r+0x55c>
   157e0:	000e8513          	mv	a0,t4
   157e4:	0000df17          	auipc	t5,0xd
   157e8:	b18f0f13          	add	t5,t5,-1256 # 222fc <zeroes.0>
   157ec:	fbcff06f          	j	14fa8 <_vfiprintf_r+0xb10>
   157f0:	fff00b93          	li	s7,-1
   157f4:	f05fe06f          	j	146f8 <_vfiprintf_r+0x260>
   157f8:	00032c83          	lw	s9,0(t1)
   157fc:	00430313          	add	t1,t1,4
   15800:	000cd463          	bgez	s9,15808 <_vfiprintf_r+0x1370>
   15804:	fff00c93          	li	s9,-1
   15808:	001bc603          	lbu	a2,1(s7)
   1580c:	00050b93          	mv	s7,a0
   15810:	e21fe06f          	j	14630 <_vfiprintf_r+0x198>

00015814 <vfiprintf>:
   15814:	00060693          	mv	a3,a2
   15818:	00058613          	mv	a2,a1
   1581c:	00050593          	mv	a1,a0
   15820:	f0c1a503          	lw	a0,-244(gp) # 237cc <_impure_ptr>
   15824:	c75fe06f          	j	14498 <_vfiprintf_r>

00015828 <__sbprintf>:
   15828:	b8010113          	add	sp,sp,-1152
   1582c:	00c59783          	lh	a5,12(a1)
   15830:	00e5d703          	lhu	a4,14(a1)
   15834:	46812c23          	sw	s0,1144(sp)
   15838:	00058413          	mv	s0,a1
   1583c:	000105b7          	lui	a1,0x10
   15840:	ffd58593          	add	a1,a1,-3 # fffd <exit-0x97>
   15844:	06442e03          	lw	t3,100(s0)
   15848:	01c42303          	lw	t1,28(s0)
   1584c:	02442883          	lw	a7,36(s0)
   15850:	01071713          	sll	a4,a4,0x10
   15854:	00b7f7b3          	and	a5,a5,a1
   15858:	00e7e7b3          	or	a5,a5,a4
   1585c:	40000813          	li	a6,1024
   15860:	00f12a23          	sw	a5,20(sp)
   15864:	00810593          	add	a1,sp,8
   15868:	07010793          	add	a5,sp,112
   1586c:	46912a23          	sw	s1,1140(sp)
   15870:	47212823          	sw	s2,1136(sp)
   15874:	46112e23          	sw	ra,1148(sp)
   15878:	00050913          	mv	s2,a0
   1587c:	07c12623          	sw	t3,108(sp)
   15880:	02612223          	sw	t1,36(sp)
   15884:	03112623          	sw	a7,44(sp)
   15888:	00f12423          	sw	a5,8(sp)
   1588c:	00f12c23          	sw	a5,24(sp)
   15890:	01012823          	sw	a6,16(sp)
   15894:	01012e23          	sw	a6,28(sp)
   15898:	02012023          	sw	zero,32(sp)
   1589c:	bfdfe0ef          	jal	14498 <_vfiprintf_r>
   158a0:	00050493          	mv	s1,a0
   158a4:	02055c63          	bgez	a0,158dc <__sbprintf+0xb4>
   158a8:	01415783          	lhu	a5,20(sp)
   158ac:	0407f793          	and	a5,a5,64
   158b0:	00078863          	beqz	a5,158c0 <__sbprintf+0x98>
   158b4:	00c45783          	lhu	a5,12(s0)
   158b8:	0407e793          	or	a5,a5,64
   158bc:	00f41623          	sh	a5,12(s0)
   158c0:	47c12083          	lw	ra,1148(sp)
   158c4:	47812403          	lw	s0,1144(sp)
   158c8:	47012903          	lw	s2,1136(sp)
   158cc:	00048513          	mv	a0,s1
   158d0:	47412483          	lw	s1,1140(sp)
   158d4:	48010113          	add	sp,sp,1152
   158d8:	00008067          	ret
   158dc:	00810593          	add	a1,sp,8
   158e0:	00090513          	mv	a0,s2
   158e4:	370000ef          	jal	15c54 <_fflush_r>
   158e8:	fc0500e3          	beqz	a0,158a8 <__sbprintf+0x80>
   158ec:	fff00493          	li	s1,-1
   158f0:	fb9ff06f          	j	158a8 <__sbprintf+0x80>

000158f4 <_fclose_r>:
   158f4:	ff010113          	add	sp,sp,-16
   158f8:	00112623          	sw	ra,12(sp)
   158fc:	01212023          	sw	s2,0(sp)
   15900:	02058863          	beqz	a1,15930 <_fclose_r+0x3c>
   15904:	00812423          	sw	s0,8(sp)
   15908:	00912223          	sw	s1,4(sp)
   1590c:	00058413          	mv	s0,a1
   15910:	00050493          	mv	s1,a0
   15914:	00050663          	beqz	a0,15920 <_fclose_r+0x2c>
   15918:	03452783          	lw	a5,52(a0)
   1591c:	0c078c63          	beqz	a5,159f4 <_fclose_r+0x100>
   15920:	00c41783          	lh	a5,12(s0)
   15924:	02079263          	bnez	a5,15948 <_fclose_r+0x54>
   15928:	00812403          	lw	s0,8(sp)
   1592c:	00412483          	lw	s1,4(sp)
   15930:	00c12083          	lw	ra,12(sp)
   15934:	00000913          	li	s2,0
   15938:	00090513          	mv	a0,s2
   1593c:	00012903          	lw	s2,0(sp)
   15940:	01010113          	add	sp,sp,16
   15944:	00008067          	ret
   15948:	00040593          	mv	a1,s0
   1594c:	00048513          	mv	a0,s1
   15950:	0b8000ef          	jal	15a08 <__sflush_r>
   15954:	02c42783          	lw	a5,44(s0)
   15958:	00050913          	mv	s2,a0
   1595c:	00078a63          	beqz	a5,15970 <_fclose_r+0x7c>
   15960:	01c42583          	lw	a1,28(s0)
   15964:	00048513          	mv	a0,s1
   15968:	000780e7          	jalr	a5
   1596c:	06054463          	bltz	a0,159d4 <_fclose_r+0xe0>
   15970:	00c45783          	lhu	a5,12(s0)
   15974:	0807f793          	and	a5,a5,128
   15978:	06079663          	bnez	a5,159e4 <_fclose_r+0xf0>
   1597c:	03042583          	lw	a1,48(s0)
   15980:	00058c63          	beqz	a1,15998 <_fclose_r+0xa4>
   15984:	04040793          	add	a5,s0,64
   15988:	00f58663          	beq	a1,a5,15994 <_fclose_r+0xa0>
   1598c:	00048513          	mv	a0,s1
   15990:	d5cfb0ef          	jal	10eec <_free_r>
   15994:	02042823          	sw	zero,48(s0)
   15998:	04442583          	lw	a1,68(s0)
   1599c:	00058863          	beqz	a1,159ac <_fclose_r+0xb8>
   159a0:	00048513          	mv	a0,s1
   159a4:	d48fb0ef          	jal	10eec <_free_r>
   159a8:	04042223          	sw	zero,68(s0)
   159ac:	bf5fa0ef          	jal	105a0 <__sfp_lock_acquire>
   159b0:	00041623          	sh	zero,12(s0)
   159b4:	bf1fa0ef          	jal	105a4 <__sfp_lock_release>
   159b8:	00c12083          	lw	ra,12(sp)
   159bc:	00812403          	lw	s0,8(sp)
   159c0:	00412483          	lw	s1,4(sp)
   159c4:	00090513          	mv	a0,s2
   159c8:	00012903          	lw	s2,0(sp)
   159cc:	01010113          	add	sp,sp,16
   159d0:	00008067          	ret
   159d4:	00c45783          	lhu	a5,12(s0)
   159d8:	fff00913          	li	s2,-1
   159dc:	0807f793          	and	a5,a5,128
   159e0:	f8078ee3          	beqz	a5,1597c <_fclose_r+0x88>
   159e4:	01042583          	lw	a1,16(s0)
   159e8:	00048513          	mv	a0,s1
   159ec:	d00fb0ef          	jal	10eec <_free_r>
   159f0:	f8dff06f          	j	1597c <_fclose_r+0x88>
   159f4:	b89fa0ef          	jal	1057c <__sinit>
   159f8:	f29ff06f          	j	15920 <_fclose_r+0x2c>

000159fc <fclose>:
   159fc:	00050593          	mv	a1,a0
   15a00:	f0c1a503          	lw	a0,-244(gp) # 237cc <_impure_ptr>
   15a04:	ef1ff06f          	j	158f4 <_fclose_r>

00015a08 <__sflush_r>:
   15a08:	00c59703          	lh	a4,12(a1)
   15a0c:	fe010113          	add	sp,sp,-32
   15a10:	00812c23          	sw	s0,24(sp)
   15a14:	01312623          	sw	s3,12(sp)
   15a18:	00112e23          	sw	ra,28(sp)
   15a1c:	00877793          	and	a5,a4,8
   15a20:	00058413          	mv	s0,a1
   15a24:	00050993          	mv	s3,a0
   15a28:	12079063          	bnez	a5,15b48 <__sflush_r+0x140>
   15a2c:	000017b7          	lui	a5,0x1
   15a30:	80078793          	add	a5,a5,-2048 # 800 <exit-0xf894>
   15a34:	0045a683          	lw	a3,4(a1)
   15a38:	00f767b3          	or	a5,a4,a5
   15a3c:	00f59623          	sh	a5,12(a1)
   15a40:	18d05263          	blez	a3,15bc4 <__sflush_r+0x1bc>
   15a44:	02842803          	lw	a6,40(s0)
   15a48:	0e080463          	beqz	a6,15b30 <__sflush_r+0x128>
   15a4c:	00912a23          	sw	s1,20(sp)
   15a50:	01371693          	sll	a3,a4,0x13
   15a54:	0009a483          	lw	s1,0(s3)
   15a58:	0009a023          	sw	zero,0(s3)
   15a5c:	01c42583          	lw	a1,28(s0)
   15a60:	1606ce63          	bltz	a3,15bdc <__sflush_r+0x1d4>
   15a64:	00000613          	li	a2,0
   15a68:	00100693          	li	a3,1
   15a6c:	00098513          	mv	a0,s3
   15a70:	000800e7          	jalr	a6
   15a74:	fff00793          	li	a5,-1
   15a78:	00050613          	mv	a2,a0
   15a7c:	1af50463          	beq	a0,a5,15c24 <__sflush_r+0x21c>
   15a80:	00c41783          	lh	a5,12(s0)
   15a84:	02842803          	lw	a6,40(s0)
   15a88:	01c42583          	lw	a1,28(s0)
   15a8c:	0047f793          	and	a5,a5,4
   15a90:	00078e63          	beqz	a5,15aac <__sflush_r+0xa4>
   15a94:	00442703          	lw	a4,4(s0)
   15a98:	03042783          	lw	a5,48(s0)
   15a9c:	40e60633          	sub	a2,a2,a4
   15aa0:	00078663          	beqz	a5,15aac <__sflush_r+0xa4>
   15aa4:	03c42783          	lw	a5,60(s0)
   15aa8:	40f60633          	sub	a2,a2,a5
   15aac:	00000693          	li	a3,0
   15ab0:	00098513          	mv	a0,s3
   15ab4:	000800e7          	jalr	a6
   15ab8:	fff00793          	li	a5,-1
   15abc:	12f51463          	bne	a0,a5,15be4 <__sflush_r+0x1dc>
   15ac0:	0009a683          	lw	a3,0(s3)
   15ac4:	01d00793          	li	a5,29
   15ac8:	00c41703          	lh	a4,12(s0)
   15acc:	16d7ea63          	bltu	a5,a3,15c40 <__sflush_r+0x238>
   15ad0:	204007b7          	lui	a5,0x20400
   15ad4:	00178793          	add	a5,a5,1 # 20400001 <__BSS_END__+0x203dc4e1>
   15ad8:	00d7d7b3          	srl	a5,a5,a3
   15adc:	0017f793          	and	a5,a5,1
   15ae0:	16078063          	beqz	a5,15c40 <__sflush_r+0x238>
   15ae4:	01042603          	lw	a2,16(s0)
   15ae8:	fffff7b7          	lui	a5,0xfffff
   15aec:	7ff78793          	add	a5,a5,2047 # fffff7ff <__BSS_END__+0xfffdbcdf>
   15af0:	00f777b3          	and	a5,a4,a5
   15af4:	00f41623          	sh	a5,12(s0)
   15af8:	00042223          	sw	zero,4(s0)
   15afc:	00c42023          	sw	a2,0(s0)
   15b00:	01371793          	sll	a5,a4,0x13
   15b04:	0007d463          	bgez	a5,15b0c <__sflush_r+0x104>
   15b08:	10068263          	beqz	a3,15c0c <__sflush_r+0x204>
   15b0c:	03042583          	lw	a1,48(s0)
   15b10:	0099a023          	sw	s1,0(s3)
   15b14:	10058463          	beqz	a1,15c1c <__sflush_r+0x214>
   15b18:	04040793          	add	a5,s0,64
   15b1c:	00f58663          	beq	a1,a5,15b28 <__sflush_r+0x120>
   15b20:	00098513          	mv	a0,s3
   15b24:	bc8fb0ef          	jal	10eec <_free_r>
   15b28:	01412483          	lw	s1,20(sp)
   15b2c:	02042823          	sw	zero,48(s0)
   15b30:	00000513          	li	a0,0
   15b34:	01c12083          	lw	ra,28(sp)
   15b38:	01812403          	lw	s0,24(sp)
   15b3c:	00c12983          	lw	s3,12(sp)
   15b40:	02010113          	add	sp,sp,32
   15b44:	00008067          	ret
   15b48:	01212823          	sw	s2,16(sp)
   15b4c:	0105a903          	lw	s2,16(a1)
   15b50:	08090263          	beqz	s2,15bd4 <__sflush_r+0x1cc>
   15b54:	00912a23          	sw	s1,20(sp)
   15b58:	0005a483          	lw	s1,0(a1)
   15b5c:	00377713          	and	a4,a4,3
   15b60:	0125a023          	sw	s2,0(a1)
   15b64:	412484b3          	sub	s1,s1,s2
   15b68:	00000793          	li	a5,0
   15b6c:	00071463          	bnez	a4,15b74 <__sflush_r+0x16c>
   15b70:	0145a783          	lw	a5,20(a1)
   15b74:	00f42423          	sw	a5,8(s0)
   15b78:	00904863          	bgtz	s1,15b88 <__sflush_r+0x180>
   15b7c:	0540006f          	j	15bd0 <__sflush_r+0x1c8>
   15b80:	00a90933          	add	s2,s2,a0
   15b84:	04905663          	blez	s1,15bd0 <__sflush_r+0x1c8>
   15b88:	02442783          	lw	a5,36(s0)
   15b8c:	01c42583          	lw	a1,28(s0)
   15b90:	00048693          	mv	a3,s1
   15b94:	00090613          	mv	a2,s2
   15b98:	00098513          	mv	a0,s3
   15b9c:	000780e7          	jalr	a5
   15ba0:	40a484b3          	sub	s1,s1,a0
   15ba4:	fca04ee3          	bgtz	a0,15b80 <__sflush_r+0x178>
   15ba8:	00c41703          	lh	a4,12(s0)
   15bac:	01012903          	lw	s2,16(sp)
   15bb0:	04076713          	or	a4,a4,64
   15bb4:	01412483          	lw	s1,20(sp)
   15bb8:	00e41623          	sh	a4,12(s0)
   15bbc:	fff00513          	li	a0,-1
   15bc0:	f75ff06f          	j	15b34 <__sflush_r+0x12c>
   15bc4:	03c5a683          	lw	a3,60(a1)
   15bc8:	e6d04ee3          	bgtz	a3,15a44 <__sflush_r+0x3c>
   15bcc:	f65ff06f          	j	15b30 <__sflush_r+0x128>
   15bd0:	01412483          	lw	s1,20(sp)
   15bd4:	01012903          	lw	s2,16(sp)
   15bd8:	f59ff06f          	j	15b30 <__sflush_r+0x128>
   15bdc:	05042603          	lw	a2,80(s0)
   15be0:	eadff06f          	j	15a8c <__sflush_r+0x84>
   15be4:	00c41703          	lh	a4,12(s0)
   15be8:	01042683          	lw	a3,16(s0)
   15bec:	fffff7b7          	lui	a5,0xfffff
   15bf0:	7ff78793          	add	a5,a5,2047 # fffff7ff <__BSS_END__+0xfffdbcdf>
   15bf4:	00f777b3          	and	a5,a4,a5
   15bf8:	00f41623          	sh	a5,12(s0)
   15bfc:	00042223          	sw	zero,4(s0)
   15c00:	00d42023          	sw	a3,0(s0)
   15c04:	01371793          	sll	a5,a4,0x13
   15c08:	f007d2e3          	bgez	a5,15b0c <__sflush_r+0x104>
   15c0c:	03042583          	lw	a1,48(s0)
   15c10:	04a42823          	sw	a0,80(s0)
   15c14:	0099a023          	sw	s1,0(s3)
   15c18:	f00590e3          	bnez	a1,15b18 <__sflush_r+0x110>
   15c1c:	01412483          	lw	s1,20(sp)
   15c20:	f11ff06f          	j	15b30 <__sflush_r+0x128>
   15c24:	0009a783          	lw	a5,0(s3)
   15c28:	e4078ce3          	beqz	a5,15a80 <__sflush_r+0x78>
   15c2c:	01d00713          	li	a4,29
   15c30:	00e78c63          	beq	a5,a4,15c48 <__sflush_r+0x240>
   15c34:	01600713          	li	a4,22
   15c38:	00e78863          	beq	a5,a4,15c48 <__sflush_r+0x240>
   15c3c:	00c41703          	lh	a4,12(s0)
   15c40:	04076713          	or	a4,a4,64
   15c44:	f71ff06f          	j	15bb4 <__sflush_r+0x1ac>
   15c48:	0099a023          	sw	s1,0(s3)
   15c4c:	01412483          	lw	s1,20(sp)
   15c50:	ee1ff06f          	j	15b30 <__sflush_r+0x128>

00015c54 <_fflush_r>:
   15c54:	fe010113          	add	sp,sp,-32
   15c58:	00812c23          	sw	s0,24(sp)
   15c5c:	00112e23          	sw	ra,28(sp)
   15c60:	00050413          	mv	s0,a0
   15c64:	00050663          	beqz	a0,15c70 <_fflush_r+0x1c>
   15c68:	03452783          	lw	a5,52(a0)
   15c6c:	02078a63          	beqz	a5,15ca0 <_fflush_r+0x4c>
   15c70:	00c59783          	lh	a5,12(a1)
   15c74:	00079c63          	bnez	a5,15c8c <_fflush_r+0x38>
   15c78:	01c12083          	lw	ra,28(sp)
   15c7c:	01812403          	lw	s0,24(sp)
   15c80:	00000513          	li	a0,0
   15c84:	02010113          	add	sp,sp,32
   15c88:	00008067          	ret
   15c8c:	00040513          	mv	a0,s0
   15c90:	01812403          	lw	s0,24(sp)
   15c94:	01c12083          	lw	ra,28(sp)
   15c98:	02010113          	add	sp,sp,32
   15c9c:	d6dff06f          	j	15a08 <__sflush_r>
   15ca0:	00b12623          	sw	a1,12(sp)
   15ca4:	8d9fa0ef          	jal	1057c <__sinit>
   15ca8:	00c12583          	lw	a1,12(sp)
   15cac:	fc5ff06f          	j	15c70 <_fflush_r+0x1c>

00015cb0 <fflush>:
   15cb0:	06050063          	beqz	a0,15d10 <fflush+0x60>
   15cb4:	00050593          	mv	a1,a0
   15cb8:	f0c1a503          	lw	a0,-244(gp) # 237cc <_impure_ptr>
   15cbc:	00050663          	beqz	a0,15cc8 <fflush+0x18>
   15cc0:	03452783          	lw	a5,52(a0)
   15cc4:	00078c63          	beqz	a5,15cdc <fflush+0x2c>
   15cc8:	00c59783          	lh	a5,12(a1)
   15ccc:	00079663          	bnez	a5,15cd8 <fflush+0x28>
   15cd0:	00000513          	li	a0,0
   15cd4:	00008067          	ret
   15cd8:	d31ff06f          	j	15a08 <__sflush_r>
   15cdc:	fe010113          	add	sp,sp,-32
   15ce0:	00b12623          	sw	a1,12(sp)
   15ce4:	00a12423          	sw	a0,8(sp)
   15ce8:	00112e23          	sw	ra,28(sp)
   15cec:	891fa0ef          	jal	1057c <__sinit>
   15cf0:	00c12583          	lw	a1,12(sp)
   15cf4:	00812503          	lw	a0,8(sp)
   15cf8:	00c59783          	lh	a5,12(a1)
   15cfc:	02079863          	bnez	a5,15d2c <fflush+0x7c>
   15d00:	01c12083          	lw	ra,28(sp)
   15d04:	00000513          	li	a0,0
   15d08:	02010113          	add	sp,sp,32
   15d0c:	00008067          	ret
   15d10:	0000d617          	auipc	a2,0xd
   15d14:	3b060613          	add	a2,a2,944 # 230c0 <__sglue>
   15d18:	00000597          	auipc	a1,0x0
   15d1c:	f3c58593          	add	a1,a1,-196 # 15c54 <_fflush_r>
   15d20:	0000d517          	auipc	a0,0xd
   15d24:	3b050513          	add	a0,a0,944 # 230d0 <_impure_data>
   15d28:	8b1fa06f          	j	105d8 <_fwalk_sglue>
   15d2c:	01c12083          	lw	ra,28(sp)
   15d30:	02010113          	add	sp,sp,32
   15d34:	cd5ff06f          	j	15a08 <__sflush_r>

00015d38 <__sfvwrite_r>:
   15d38:	00862783          	lw	a5,8(a2)
   15d3c:	2c078463          	beqz	a5,16004 <__sfvwrite_r+0x2cc>
   15d40:	00c59683          	lh	a3,12(a1)
   15d44:	fd010113          	add	sp,sp,-48
   15d48:	02812423          	sw	s0,40(sp)
   15d4c:	01412c23          	sw	s4,24(sp)
   15d50:	01612823          	sw	s6,16(sp)
   15d54:	02112623          	sw	ra,44(sp)
   15d58:	0086f793          	and	a5,a3,8
   15d5c:	00060b13          	mv	s6,a2
   15d60:	00050a13          	mv	s4,a0
   15d64:	00058413          	mv	s0,a1
   15d68:	08078e63          	beqz	a5,15e04 <__sfvwrite_r+0xcc>
   15d6c:	0105a783          	lw	a5,16(a1)
   15d70:	08078a63          	beqz	a5,15e04 <__sfvwrite_r+0xcc>
   15d74:	02912223          	sw	s1,36(sp)
   15d78:	03212023          	sw	s2,32(sp)
   15d7c:	01312e23          	sw	s3,28(sp)
   15d80:	01512a23          	sw	s5,20(sp)
   15d84:	0026f793          	and	a5,a3,2
   15d88:	000b2483          	lw	s1,0(s6)
   15d8c:	0a078463          	beqz	a5,15e34 <__sfvwrite_r+0xfc>
   15d90:	02442783          	lw	a5,36(s0)
   15d94:	01c42583          	lw	a1,28(s0)
   15d98:	80000ab7          	lui	s5,0x80000
   15d9c:	00000993          	li	s3,0
   15da0:	00000913          	li	s2,0
   15da4:	c00a8a93          	add	s5,s5,-1024 # 7ffffc00 <__BSS_END__+0x7ffdc0e0>
   15da8:	00098613          	mv	a2,s3
   15dac:	000a0513          	mv	a0,s4
   15db0:	04090263          	beqz	s2,15df4 <__sfvwrite_r+0xbc>
   15db4:	00090693          	mv	a3,s2
   15db8:	012af463          	bgeu	s5,s2,15dc0 <__sfvwrite_r+0x88>
   15dbc:	000a8693          	mv	a3,s5
   15dc0:	000780e7          	jalr	a5
   15dc4:	46a05263          	blez	a0,16228 <__sfvwrite_r+0x4f0>
   15dc8:	008b2783          	lw	a5,8(s6)
   15dcc:	00a989b3          	add	s3,s3,a0
   15dd0:	40a90933          	sub	s2,s2,a0
   15dd4:	40a787b3          	sub	a5,a5,a0
   15dd8:	00fb2423          	sw	a5,8(s6)
   15ddc:	1a078663          	beqz	a5,15f88 <__sfvwrite_r+0x250>
   15de0:	02442783          	lw	a5,36(s0)
   15de4:	01c42583          	lw	a1,28(s0)
   15de8:	00098613          	mv	a2,s3
   15dec:	000a0513          	mv	a0,s4
   15df0:	fc0912e3          	bnez	s2,15db4 <__sfvwrite_r+0x7c>
   15df4:	0004a983          	lw	s3,0(s1)
   15df8:	0044a903          	lw	s2,4(s1)
   15dfc:	00848493          	add	s1,s1,8
   15e00:	fa9ff06f          	j	15da8 <__sfvwrite_r+0x70>
   15e04:	00040593          	mv	a1,s0
   15e08:	000a0513          	mv	a0,s4
   15e0c:	440000ef          	jal	1624c <__swsetup_r>
   15e10:	1c051c63          	bnez	a0,15fe8 <__sfvwrite_r+0x2b0>
   15e14:	00c41683          	lh	a3,12(s0)
   15e18:	02912223          	sw	s1,36(sp)
   15e1c:	03212023          	sw	s2,32(sp)
   15e20:	01312e23          	sw	s3,28(sp)
   15e24:	01512a23          	sw	s5,20(sp)
   15e28:	0026f793          	and	a5,a3,2
   15e2c:	000b2483          	lw	s1,0(s6)
   15e30:	f60790e3          	bnez	a5,15d90 <__sfvwrite_r+0x58>
   15e34:	01712623          	sw	s7,12(sp)
   15e38:	01812423          	sw	s8,8(sp)
   15e3c:	0016f793          	and	a5,a3,1
   15e40:	1c079663          	bnez	a5,1600c <__sfvwrite_r+0x2d4>
   15e44:	00042783          	lw	a5,0(s0)
   15e48:	00842703          	lw	a4,8(s0)
   15e4c:	80000ab7          	lui	s5,0x80000
   15e50:	01912223          	sw	s9,4(sp)
   15e54:	00000b93          	li	s7,0
   15e58:	00000993          	li	s3,0
   15e5c:	fffa8a93          	add	s5,s5,-1 # 7fffffff <__BSS_END__+0x7ffdc4df>
   15e60:	00078513          	mv	a0,a5
   15e64:	00070c13          	mv	s8,a4
   15e68:	10098263          	beqz	s3,15f6c <__sfvwrite_r+0x234>
   15e6c:	2006f613          	and	a2,a3,512
   15e70:	28060863          	beqz	a2,16100 <__sfvwrite_r+0x3c8>
   15e74:	00070c93          	mv	s9,a4
   15e78:	32e9e863          	bltu	s3,a4,161a8 <__sfvwrite_r+0x470>
   15e7c:	4806f713          	and	a4,a3,1152
   15e80:	08070a63          	beqz	a4,15f14 <__sfvwrite_r+0x1dc>
   15e84:	01442603          	lw	a2,20(s0)
   15e88:	01042583          	lw	a1,16(s0)
   15e8c:	00161713          	sll	a4,a2,0x1
   15e90:	00c70733          	add	a4,a4,a2
   15e94:	40b78933          	sub	s2,a5,a1
   15e98:	01f75c13          	srl	s8,a4,0x1f
   15e9c:	00ec0c33          	add	s8,s8,a4
   15ea0:	00190793          	add	a5,s2,1
   15ea4:	401c5c13          	sra	s8,s8,0x1
   15ea8:	013787b3          	add	a5,a5,s3
   15eac:	000c0613          	mv	a2,s8
   15eb0:	00fc7663          	bgeu	s8,a5,15ebc <__sfvwrite_r+0x184>
   15eb4:	00078c13          	mv	s8,a5
   15eb8:	00078613          	mv	a2,a5
   15ebc:	4006f693          	and	a3,a3,1024
   15ec0:	32068063          	beqz	a3,161e0 <__sfvwrite_r+0x4a8>
   15ec4:	00060593          	mv	a1,a2
   15ec8:	000a0513          	mv	a0,s4
   15ecc:	b24fb0ef          	jal	111f0 <_malloc_r>
   15ed0:	00050c93          	mv	s9,a0
   15ed4:	34050e63          	beqz	a0,16230 <__sfvwrite_r+0x4f8>
   15ed8:	01042583          	lw	a1,16(s0)
   15edc:	00090613          	mv	a2,s2
   15ee0:	289000ef          	jal	16968 <memcpy>
   15ee4:	00c45783          	lhu	a5,12(s0)
   15ee8:	b7f7f793          	and	a5,a5,-1153
   15eec:	0807e793          	or	a5,a5,128
   15ef0:	00f41623          	sh	a5,12(s0)
   15ef4:	012c8533          	add	a0,s9,s2
   15ef8:	412c07b3          	sub	a5,s8,s2
   15efc:	01942823          	sw	s9,16(s0)
   15f00:	01842a23          	sw	s8,20(s0)
   15f04:	00a42023          	sw	a0,0(s0)
   15f08:	00098c13          	mv	s8,s3
   15f0c:	00f42423          	sw	a5,8(s0)
   15f10:	00098c93          	mv	s9,s3
   15f14:	000c8613          	mv	a2,s9
   15f18:	000b8593          	mv	a1,s7
   15f1c:	141000ef          	jal	1685c <memmove>
   15f20:	00842703          	lw	a4,8(s0)
   15f24:	00042783          	lw	a5,0(s0)
   15f28:	00098913          	mv	s2,s3
   15f2c:	41870733          	sub	a4,a4,s8
   15f30:	019787b3          	add	a5,a5,s9
   15f34:	00e42423          	sw	a4,8(s0)
   15f38:	00f42023          	sw	a5,0(s0)
   15f3c:	00000993          	li	s3,0
   15f40:	008b2783          	lw	a5,8(s6)
   15f44:	012b8bb3          	add	s7,s7,s2
   15f48:	412787b3          	sub	a5,a5,s2
   15f4c:	00fb2423          	sw	a5,8(s6)
   15f50:	02078663          	beqz	a5,15f7c <__sfvwrite_r+0x244>
   15f54:	00042783          	lw	a5,0(s0)
   15f58:	00842703          	lw	a4,8(s0)
   15f5c:	00c41683          	lh	a3,12(s0)
   15f60:	00078513          	mv	a0,a5
   15f64:	00070c13          	mv	s8,a4
   15f68:	f00992e3          	bnez	s3,15e6c <__sfvwrite_r+0x134>
   15f6c:	0004ab83          	lw	s7,0(s1)
   15f70:	0044a983          	lw	s3,4(s1)
   15f74:	00848493          	add	s1,s1,8
   15f78:	ee9ff06f          	j	15e60 <__sfvwrite_r+0x128>
   15f7c:	00c12b83          	lw	s7,12(sp)
   15f80:	00812c03          	lw	s8,8(sp)
   15f84:	00412c83          	lw	s9,4(sp)
   15f88:	02c12083          	lw	ra,44(sp)
   15f8c:	02812403          	lw	s0,40(sp)
   15f90:	02412483          	lw	s1,36(sp)
   15f94:	02012903          	lw	s2,32(sp)
   15f98:	01c12983          	lw	s3,28(sp)
   15f9c:	01412a83          	lw	s5,20(sp)
   15fa0:	01812a03          	lw	s4,24(sp)
   15fa4:	01012b03          	lw	s6,16(sp)
   15fa8:	00000513          	li	a0,0
   15fac:	03010113          	add	sp,sp,48
   15fb0:	00008067          	ret
   15fb4:	00040593          	mv	a1,s0
   15fb8:	000a0513          	mv	a0,s4
   15fbc:	c99ff0ef          	jal	15c54 <_fflush_r>
   15fc0:	0a050e63          	beqz	a0,1607c <__sfvwrite_r+0x344>
   15fc4:	00c41783          	lh	a5,12(s0)
   15fc8:	00c12b83          	lw	s7,12(sp)
   15fcc:	00812c03          	lw	s8,8(sp)
   15fd0:	02412483          	lw	s1,36(sp)
   15fd4:	02012903          	lw	s2,32(sp)
   15fd8:	01c12983          	lw	s3,28(sp)
   15fdc:	01412a83          	lw	s5,20(sp)
   15fe0:	0407e793          	or	a5,a5,64
   15fe4:	00f41623          	sh	a5,12(s0)
   15fe8:	02c12083          	lw	ra,44(sp)
   15fec:	02812403          	lw	s0,40(sp)
   15ff0:	01812a03          	lw	s4,24(sp)
   15ff4:	01012b03          	lw	s6,16(sp)
   15ff8:	fff00513          	li	a0,-1
   15ffc:	03010113          	add	sp,sp,48
   16000:	00008067          	ret
   16004:	00000513          	li	a0,0
   16008:	00008067          	ret
   1600c:	00000a93          	li	s5,0
   16010:	00000513          	li	a0,0
   16014:	00000c13          	li	s8,0
   16018:	00000993          	li	s3,0
   1601c:	08098263          	beqz	s3,160a0 <__sfvwrite_r+0x368>
   16020:	08050a63          	beqz	a0,160b4 <__sfvwrite_r+0x37c>
   16024:	000a8793          	mv	a5,s5
   16028:	00098b93          	mv	s7,s3
   1602c:	0137f463          	bgeu	a5,s3,16034 <__sfvwrite_r+0x2fc>
   16030:	00078b93          	mv	s7,a5
   16034:	00042503          	lw	a0,0(s0)
   16038:	01042783          	lw	a5,16(s0)
   1603c:	00842903          	lw	s2,8(s0)
   16040:	01442683          	lw	a3,20(s0)
   16044:	00a7f663          	bgeu	a5,a0,16050 <__sfvwrite_r+0x318>
   16048:	00d90933          	add	s2,s2,a3
   1604c:	09794463          	blt	s2,s7,160d4 <__sfvwrite_r+0x39c>
   16050:	16dbc263          	blt	s7,a3,161b4 <__sfvwrite_r+0x47c>
   16054:	02442783          	lw	a5,36(s0)
   16058:	01c42583          	lw	a1,28(s0)
   1605c:	000c0613          	mv	a2,s8
   16060:	000a0513          	mv	a0,s4
   16064:	000780e7          	jalr	a5
   16068:	00050913          	mv	s2,a0
   1606c:	f4a05ce3          	blez	a0,15fc4 <__sfvwrite_r+0x28c>
   16070:	412a8ab3          	sub	s5,s5,s2
   16074:	00100513          	li	a0,1
   16078:	f20a8ee3          	beqz	s5,15fb4 <__sfvwrite_r+0x27c>
   1607c:	008b2783          	lw	a5,8(s6)
   16080:	012c0c33          	add	s8,s8,s2
   16084:	412989b3          	sub	s3,s3,s2
   16088:	412787b3          	sub	a5,a5,s2
   1608c:	00fb2423          	sw	a5,8(s6)
   16090:	f80796e3          	bnez	a5,1601c <__sfvwrite_r+0x2e4>
   16094:	00c12b83          	lw	s7,12(sp)
   16098:	00812c03          	lw	s8,8(sp)
   1609c:	eedff06f          	j	15f88 <__sfvwrite_r+0x250>
   160a0:	0044a983          	lw	s3,4(s1)
   160a4:	00048793          	mv	a5,s1
   160a8:	00848493          	add	s1,s1,8
   160ac:	fe098ae3          	beqz	s3,160a0 <__sfvwrite_r+0x368>
   160b0:	0007ac03          	lw	s8,0(a5)
   160b4:	00098613          	mv	a2,s3
   160b8:	00a00593          	li	a1,10
   160bc:	000c0513          	mv	a0,s8
   160c0:	468000ef          	jal	16528 <memchr>
   160c4:	14050c63          	beqz	a0,1621c <__sfvwrite_r+0x4e4>
   160c8:	00150513          	add	a0,a0,1
   160cc:	41850ab3          	sub	s5,a0,s8
   160d0:	f55ff06f          	j	16024 <__sfvwrite_r+0x2ec>
   160d4:	000c0593          	mv	a1,s8
   160d8:	00090613          	mv	a2,s2
   160dc:	780000ef          	jal	1685c <memmove>
   160e0:	00042783          	lw	a5,0(s0)
   160e4:	00040593          	mv	a1,s0
   160e8:	000a0513          	mv	a0,s4
   160ec:	012787b3          	add	a5,a5,s2
   160f0:	00f42023          	sw	a5,0(s0)
   160f4:	b61ff0ef          	jal	15c54 <_fflush_r>
   160f8:	f6050ce3          	beqz	a0,16070 <__sfvwrite_r+0x338>
   160fc:	ec9ff06f          	j	15fc4 <__sfvwrite_r+0x28c>
   16100:	01042683          	lw	a3,16(s0)
   16104:	04f6e463          	bltu	a3,a5,1614c <__sfvwrite_r+0x414>
   16108:	01442583          	lw	a1,20(s0)
   1610c:	04b9e063          	bltu	s3,a1,1614c <__sfvwrite_r+0x414>
   16110:	00098913          	mv	s2,s3
   16114:	013af463          	bgeu	s5,s3,1611c <__sfvwrite_r+0x3e4>
   16118:	000a8913          	mv	s2,s5
   1611c:	00090513          	mv	a0,s2
   16120:	4310b0ef          	jal	21d50 <__modsi3>
   16124:	02442783          	lw	a5,36(s0)
   16128:	01c42583          	lw	a1,28(s0)
   1612c:	40a906b3          	sub	a3,s2,a0
   16130:	000b8613          	mv	a2,s7
   16134:	000a0513          	mv	a0,s4
   16138:	000780e7          	jalr	a5
   1613c:	00050913          	mv	s2,a0
   16140:	04a05a63          	blez	a0,16194 <__sfvwrite_r+0x45c>
   16144:	412989b3          	sub	s3,s3,s2
   16148:	df9ff06f          	j	15f40 <__sfvwrite_r+0x208>
   1614c:	00070913          	mv	s2,a4
   16150:	00e9f463          	bgeu	s3,a4,16158 <__sfvwrite_r+0x420>
   16154:	00098913          	mv	s2,s3
   16158:	00078513          	mv	a0,a5
   1615c:	00090613          	mv	a2,s2
   16160:	000b8593          	mv	a1,s7
   16164:	6f8000ef          	jal	1685c <memmove>
   16168:	00842703          	lw	a4,8(s0)
   1616c:	00042783          	lw	a5,0(s0)
   16170:	41270733          	sub	a4,a4,s2
   16174:	012787b3          	add	a5,a5,s2
   16178:	00e42423          	sw	a4,8(s0)
   1617c:	00f42023          	sw	a5,0(s0)
   16180:	fc0712e3          	bnez	a4,16144 <__sfvwrite_r+0x40c>
   16184:	00040593          	mv	a1,s0
   16188:	000a0513          	mv	a0,s4
   1618c:	ac9ff0ef          	jal	15c54 <_fflush_r>
   16190:	fa050ae3          	beqz	a0,16144 <__sfvwrite_r+0x40c>
   16194:	00c41783          	lh	a5,12(s0)
   16198:	00c12b83          	lw	s7,12(sp)
   1619c:	00812c03          	lw	s8,8(sp)
   161a0:	00412c83          	lw	s9,4(sp)
   161a4:	e2dff06f          	j	15fd0 <__sfvwrite_r+0x298>
   161a8:	00098c13          	mv	s8,s3
   161ac:	00098c93          	mv	s9,s3
   161b0:	d65ff06f          	j	15f14 <__sfvwrite_r+0x1dc>
   161b4:	000b8613          	mv	a2,s7
   161b8:	000c0593          	mv	a1,s8
   161bc:	6a0000ef          	jal	1685c <memmove>
   161c0:	00842703          	lw	a4,8(s0)
   161c4:	00042783          	lw	a5,0(s0)
   161c8:	000b8913          	mv	s2,s7
   161cc:	41770733          	sub	a4,a4,s7
   161d0:	017787b3          	add	a5,a5,s7
   161d4:	00e42423          	sw	a4,8(s0)
   161d8:	00f42023          	sw	a5,0(s0)
   161dc:	e95ff06f          	j	16070 <__sfvwrite_r+0x338>
   161e0:	000a0513          	mv	a0,s4
   161e4:	614040ef          	jal	1a7f8 <_realloc_r>
   161e8:	00050c93          	mv	s9,a0
   161ec:	d00514e3          	bnez	a0,15ef4 <__sfvwrite_r+0x1bc>
   161f0:	01042583          	lw	a1,16(s0)
   161f4:	000a0513          	mv	a0,s4
   161f8:	cf5fa0ef          	jal	10eec <_free_r>
   161fc:	00c41783          	lh	a5,12(s0)
   16200:	00c00713          	li	a4,12
   16204:	00c12b83          	lw	s7,12(sp)
   16208:	00812c03          	lw	s8,8(sp)
   1620c:	00412c83          	lw	s9,4(sp)
   16210:	00ea2023          	sw	a4,0(s4)
   16214:	f7f7f793          	and	a5,a5,-129
   16218:	db9ff06f          	j	15fd0 <__sfvwrite_r+0x298>
   1621c:	00198793          	add	a5,s3,1
   16220:	00078a93          	mv	s5,a5
   16224:	e05ff06f          	j	16028 <__sfvwrite_r+0x2f0>
   16228:	00c41783          	lh	a5,12(s0)
   1622c:	da5ff06f          	j	15fd0 <__sfvwrite_r+0x298>
   16230:	00c00713          	li	a4,12
   16234:	00c41783          	lh	a5,12(s0)
   16238:	00c12b83          	lw	s7,12(sp)
   1623c:	00812c03          	lw	s8,8(sp)
   16240:	00412c83          	lw	s9,4(sp)
   16244:	00ea2023          	sw	a4,0(s4)
   16248:	d89ff06f          	j	15fd0 <__sfvwrite_r+0x298>

0001624c <__swsetup_r>:
   1624c:	ff010113          	add	sp,sp,-16
   16250:	00812423          	sw	s0,8(sp)
   16254:	00912223          	sw	s1,4(sp)
   16258:	00112623          	sw	ra,12(sp)
   1625c:	f0c1a783          	lw	a5,-244(gp) # 237cc <_impure_ptr>
   16260:	00050493          	mv	s1,a0
   16264:	00058413          	mv	s0,a1
   16268:	00078663          	beqz	a5,16274 <__swsetup_r+0x28>
   1626c:	0347a703          	lw	a4,52(a5)
   16270:	0e070c63          	beqz	a4,16368 <__swsetup_r+0x11c>
   16274:	00c41783          	lh	a5,12(s0)
   16278:	0087f713          	and	a4,a5,8
   1627c:	06070a63          	beqz	a4,162f0 <__swsetup_r+0xa4>
   16280:	01042703          	lw	a4,16(s0)
   16284:	08070663          	beqz	a4,16310 <__swsetup_r+0xc4>
   16288:	0017f693          	and	a3,a5,1
   1628c:	02068863          	beqz	a3,162bc <__swsetup_r+0x70>
   16290:	01442683          	lw	a3,20(s0)
   16294:	00042423          	sw	zero,8(s0)
   16298:	00000513          	li	a0,0
   1629c:	40d006b3          	neg	a3,a3
   162a0:	00d42c23          	sw	a3,24(s0)
   162a4:	02070a63          	beqz	a4,162d8 <__swsetup_r+0x8c>
   162a8:	00c12083          	lw	ra,12(sp)
   162ac:	00812403          	lw	s0,8(sp)
   162b0:	00412483          	lw	s1,4(sp)
   162b4:	01010113          	add	sp,sp,16
   162b8:	00008067          	ret
   162bc:	0027f693          	and	a3,a5,2
   162c0:	00000613          	li	a2,0
   162c4:	00069463          	bnez	a3,162cc <__swsetup_r+0x80>
   162c8:	01442603          	lw	a2,20(s0)
   162cc:	00c42423          	sw	a2,8(s0)
   162d0:	00000513          	li	a0,0
   162d4:	fc071ae3          	bnez	a4,162a8 <__swsetup_r+0x5c>
   162d8:	0807f713          	and	a4,a5,128
   162dc:	fc0706e3          	beqz	a4,162a8 <__swsetup_r+0x5c>
   162e0:	0407e793          	or	a5,a5,64
   162e4:	00f41623          	sh	a5,12(s0)
   162e8:	fff00513          	li	a0,-1
   162ec:	fbdff06f          	j	162a8 <__swsetup_r+0x5c>
   162f0:	0107f713          	and	a4,a5,16
   162f4:	08070063          	beqz	a4,16374 <__swsetup_r+0x128>
   162f8:	0047f713          	and	a4,a5,4
   162fc:	02071c63          	bnez	a4,16334 <__swsetup_r+0xe8>
   16300:	01042703          	lw	a4,16(s0)
   16304:	0087e793          	or	a5,a5,8
   16308:	00f41623          	sh	a5,12(s0)
   1630c:	f6071ee3          	bnez	a4,16288 <__swsetup_r+0x3c>
   16310:	2807f693          	and	a3,a5,640
   16314:	20000613          	li	a2,512
   16318:	f6c688e3          	beq	a3,a2,16288 <__swsetup_r+0x3c>
   1631c:	00040593          	mv	a1,s0
   16320:	00048513          	mv	a0,s1
   16324:	37d040ef          	jal	1aea0 <__smakebuf_r>
   16328:	00c41783          	lh	a5,12(s0)
   1632c:	01042703          	lw	a4,16(s0)
   16330:	f59ff06f          	j	16288 <__swsetup_r+0x3c>
   16334:	03042583          	lw	a1,48(s0)
   16338:	00058e63          	beqz	a1,16354 <__swsetup_r+0x108>
   1633c:	04040713          	add	a4,s0,64
   16340:	00e58863          	beq	a1,a4,16350 <__swsetup_r+0x104>
   16344:	00048513          	mv	a0,s1
   16348:	ba5fa0ef          	jal	10eec <_free_r>
   1634c:	00c41783          	lh	a5,12(s0)
   16350:	02042823          	sw	zero,48(s0)
   16354:	01042703          	lw	a4,16(s0)
   16358:	fdb7f793          	and	a5,a5,-37
   1635c:	00042223          	sw	zero,4(s0)
   16360:	00e42023          	sw	a4,0(s0)
   16364:	fa1ff06f          	j	16304 <__swsetup_r+0xb8>
   16368:	00078513          	mv	a0,a5
   1636c:	a10fa0ef          	jal	1057c <__sinit>
   16370:	f05ff06f          	j	16274 <__swsetup_r+0x28>
   16374:	00900713          	li	a4,9
   16378:	00e4a023          	sw	a4,0(s1)
   1637c:	0407e793          	or	a5,a5,64
   16380:	00f41623          	sh	a5,12(s0)
   16384:	fff00513          	li	a0,-1
   16388:	f21ff06f          	j	162a8 <__swsetup_r+0x5c>

0001638c <__fputwc>:
   1638c:	fe010113          	add	sp,sp,-32
   16390:	00812c23          	sw	s0,24(sp)
   16394:	00912a23          	sw	s1,20(sp)
   16398:	01212823          	sw	s2,16(sp)
   1639c:	00112e23          	sw	ra,28(sp)
   163a0:	00050913          	mv	s2,a0
   163a4:	00058493          	mv	s1,a1
   163a8:	00060413          	mv	s0,a2
   163ac:	368000ef          	jal	16714 <__locale_mb_cur_max>
   163b0:	00100793          	li	a5,1
   163b4:	00f51c63          	bne	a0,a5,163cc <__fputwc+0x40>
   163b8:	fff48793          	add	a5,s1,-1
   163bc:	0fe00713          	li	a4,254
   163c0:	00f76663          	bltu	a4,a5,163cc <__fputwc+0x40>
   163c4:	00910623          	sb	s1,12(sp)
   163c8:	0240006f          	j	163ec <__fputwc+0x60>
   163cc:	05c40693          	add	a3,s0,92
   163d0:	00048613          	mv	a2,s1
   163d4:	00c10593          	add	a1,sp,12
   163d8:	00090513          	mv	a0,s2
   163dc:	1c5040ef          	jal	1ada0 <_wcrtomb_r>
   163e0:	fff00793          	li	a5,-1
   163e4:	08f50463          	beq	a0,a5,1646c <__fputwc+0xe0>
   163e8:	02050c63          	beqz	a0,16420 <__fputwc+0x94>
   163ec:	00842783          	lw	a5,8(s0)
   163f0:	00c14583          	lbu	a1,12(sp)
   163f4:	fff78793          	add	a5,a5,-1
   163f8:	00f42423          	sw	a5,8(s0)
   163fc:	0007da63          	bgez	a5,16410 <__fputwc+0x84>
   16400:	01842703          	lw	a4,24(s0)
   16404:	02e7cc63          	blt	a5,a4,1643c <__fputwc+0xb0>
   16408:	00a00793          	li	a5,10
   1640c:	02f58863          	beq	a1,a5,1643c <__fputwc+0xb0>
   16410:	00042783          	lw	a5,0(s0)
   16414:	00178713          	add	a4,a5,1
   16418:	00e42023          	sw	a4,0(s0)
   1641c:	00b78023          	sb	a1,0(a5)
   16420:	01c12083          	lw	ra,28(sp)
   16424:	01812403          	lw	s0,24(sp)
   16428:	01012903          	lw	s2,16(sp)
   1642c:	00048513          	mv	a0,s1
   16430:	01412483          	lw	s1,20(sp)
   16434:	02010113          	add	sp,sp,32
   16438:	00008067          	ret
   1643c:	00040613          	mv	a2,s0
   16440:	00090513          	mv	a0,s2
   16444:	4cd040ef          	jal	1b110 <__swbuf_r>
   16448:	fff00793          	li	a5,-1
   1644c:	fcf51ae3          	bne	a0,a5,16420 <__fputwc+0x94>
   16450:	fff00513          	li	a0,-1
   16454:	01c12083          	lw	ra,28(sp)
   16458:	01812403          	lw	s0,24(sp)
   1645c:	01412483          	lw	s1,20(sp)
   16460:	01012903          	lw	s2,16(sp)
   16464:	02010113          	add	sp,sp,32
   16468:	00008067          	ret
   1646c:	00c45783          	lhu	a5,12(s0)
   16470:	fff00513          	li	a0,-1
   16474:	0407e793          	or	a5,a5,64
   16478:	00f41623          	sh	a5,12(s0)
   1647c:	fd9ff06f          	j	16454 <__fputwc+0xc8>

00016480 <_fputwc_r>:
   16480:	00c61783          	lh	a5,12(a2)
   16484:	01279713          	sll	a4,a5,0x12
   16488:	02074063          	bltz	a4,164a8 <_fputwc_r+0x28>
   1648c:	06462703          	lw	a4,100(a2)
   16490:	000026b7          	lui	a3,0x2
   16494:	00d7e7b3          	or	a5,a5,a3
   16498:	000026b7          	lui	a3,0x2
   1649c:	00d76733          	or	a4,a4,a3
   164a0:	00f61623          	sh	a5,12(a2)
   164a4:	06e62223          	sw	a4,100(a2)
   164a8:	ee5ff06f          	j	1638c <__fputwc>

000164ac <fputwc>:
   164ac:	fe010113          	add	sp,sp,-32
   164b0:	00812c23          	sw	s0,24(sp)
   164b4:	00112e23          	sw	ra,28(sp)
   164b8:	f0c1a403          	lw	s0,-244(gp) # 237cc <_impure_ptr>
   164bc:	00058613          	mv	a2,a1
   164c0:	00050593          	mv	a1,a0
   164c4:	00040663          	beqz	s0,164d0 <fputwc+0x24>
   164c8:	03442783          	lw	a5,52(s0)
   164cc:	04078063          	beqz	a5,1650c <fputwc+0x60>
   164d0:	00c61783          	lh	a5,12(a2)
   164d4:	01279713          	sll	a4,a5,0x12
   164d8:	02074063          	bltz	a4,164f8 <fputwc+0x4c>
   164dc:	06462703          	lw	a4,100(a2)
   164e0:	000026b7          	lui	a3,0x2
   164e4:	00d7e7b3          	or	a5,a5,a3
   164e8:	000026b7          	lui	a3,0x2
   164ec:	00d76733          	or	a4,a4,a3
   164f0:	00f61623          	sh	a5,12(a2)
   164f4:	06e62223          	sw	a4,100(a2)
   164f8:	00040513          	mv	a0,s0
   164fc:	01812403          	lw	s0,24(sp)
   16500:	01c12083          	lw	ra,28(sp)
   16504:	02010113          	add	sp,sp,32
   16508:	e85ff06f          	j	1638c <__fputwc>
   1650c:	00a12423          	sw	a0,8(sp)
   16510:	00040513          	mv	a0,s0
   16514:	00c12623          	sw	a2,12(sp)
   16518:	864fa0ef          	jal	1057c <__sinit>
   1651c:	00c12603          	lw	a2,12(sp)
   16520:	00812583          	lw	a1,8(sp)
   16524:	fadff06f          	j	164d0 <fputwc+0x24>

00016528 <memchr>:
   16528:	00357793          	and	a5,a0,3
   1652c:	0ff5f693          	zext.b	a3,a1
   16530:	02078a63          	beqz	a5,16564 <memchr+0x3c>
   16534:	fff60793          	add	a5,a2,-1
   16538:	02060e63          	beqz	a2,16574 <memchr+0x4c>
   1653c:	fff00613          	li	a2,-1
   16540:	0180006f          	j	16558 <memchr+0x30>
   16544:	00150513          	add	a0,a0,1
   16548:	00357713          	and	a4,a0,3
   1654c:	00070e63          	beqz	a4,16568 <memchr+0x40>
   16550:	fff78793          	add	a5,a5,-1
   16554:	02c78063          	beq	a5,a2,16574 <memchr+0x4c>
   16558:	00054703          	lbu	a4,0(a0)
   1655c:	fed714e3          	bne	a4,a3,16544 <memchr+0x1c>
   16560:	00008067          	ret
   16564:	00060793          	mv	a5,a2
   16568:	00300713          	li	a4,3
   1656c:	00f76863          	bltu	a4,a5,1657c <memchr+0x54>
   16570:	06079063          	bnez	a5,165d0 <memchr+0xa8>
   16574:	00000513          	li	a0,0
   16578:	00008067          	ret
   1657c:	0ff5f593          	zext.b	a1,a1
   16580:	00859713          	sll	a4,a1,0x8
   16584:	00b705b3          	add	a1,a4,a1
   16588:	01059713          	sll	a4,a1,0x10
   1658c:	feff08b7          	lui	a7,0xfeff0
   16590:	80808837          	lui	a6,0x80808
   16594:	00e585b3          	add	a1,a1,a4
   16598:	eff88893          	add	a7,a7,-257 # fefefeff <__BSS_END__+0xfefcc3df>
   1659c:	08080813          	add	a6,a6,128 # 80808080 <__BSS_END__+0x807e4560>
   165a0:	00300313          	li	t1,3
   165a4:	0100006f          	j	165b4 <memchr+0x8c>
   165a8:	ffc78793          	add	a5,a5,-4
   165ac:	00450513          	add	a0,a0,4
   165b0:	fcf370e3          	bgeu	t1,a5,16570 <memchr+0x48>
   165b4:	00052703          	lw	a4,0(a0)
   165b8:	00e5c733          	xor	a4,a1,a4
   165bc:	01170633          	add	a2,a4,a7
   165c0:	fff74713          	not	a4,a4
   165c4:	00e67733          	and	a4,a2,a4
   165c8:	01077733          	and	a4,a4,a6
   165cc:	fc070ee3          	beqz	a4,165a8 <memchr+0x80>
   165d0:	00f507b3          	add	a5,a0,a5
   165d4:	00c0006f          	j	165e0 <memchr+0xb8>
   165d8:	00150513          	add	a0,a0,1
   165dc:	f8f50ce3          	beq	a0,a5,16574 <memchr+0x4c>
   165e0:	00054703          	lbu	a4,0(a0)
   165e4:	fed71ae3          	bne	a4,a3,165d8 <memchr+0xb0>
   165e8:	00008067          	ret

000165ec <strncpy>:
   165ec:	00a5e7b3          	or	a5,a1,a0
   165f0:	0037f793          	and	a5,a5,3
   165f4:	00079663          	bnez	a5,16600 <strncpy+0x14>
   165f8:	00300793          	li	a5,3
   165fc:	04c7e663          	bltu	a5,a2,16648 <strncpy+0x5c>
   16600:	00050713          	mv	a4,a0
   16604:	01c0006f          	j	16620 <strncpy+0x34>
   16608:	fff5c683          	lbu	a3,-1(a1)
   1660c:	fff60813          	add	a6,a2,-1
   16610:	fed78fa3          	sb	a3,-1(a5)
   16614:	00068e63          	beqz	a3,16630 <strncpy+0x44>
   16618:	00078713          	mv	a4,a5
   1661c:	00080613          	mv	a2,a6
   16620:	00158593          	add	a1,a1,1
   16624:	00170793          	add	a5,a4,1
   16628:	fe0610e3          	bnez	a2,16608 <strncpy+0x1c>
   1662c:	00008067          	ret
   16630:	00c70733          	add	a4,a4,a2
   16634:	06080063          	beqz	a6,16694 <strncpy+0xa8>
   16638:	00178793          	add	a5,a5,1
   1663c:	fe078fa3          	sb	zero,-1(a5)
   16640:	fee79ce3          	bne	a5,a4,16638 <strncpy+0x4c>
   16644:	00008067          	ret
   16648:	feff0337          	lui	t1,0xfeff0
   1664c:	808088b7          	lui	a7,0x80808
   16650:	00050713          	mv	a4,a0
   16654:	eff30313          	add	t1,t1,-257 # fefefeff <__BSS_END__+0xfefcc3df>
   16658:	08088893          	add	a7,a7,128 # 80808080 <__BSS_END__+0x807e4560>
   1665c:	00300e13          	li	t3,3
   16660:	0180006f          	j	16678 <strncpy+0x8c>
   16664:	00d72023          	sw	a3,0(a4)
   16668:	ffc60613          	add	a2,a2,-4
   1666c:	00470713          	add	a4,a4,4
   16670:	00458593          	add	a1,a1,4
   16674:	face76e3          	bgeu	t3,a2,16620 <strncpy+0x34>
   16678:	0005a683          	lw	a3,0(a1)
   1667c:	006687b3          	add	a5,a3,t1
   16680:	fff6c813          	not	a6,a3
   16684:	0107f7b3          	and	a5,a5,a6
   16688:	0117f7b3          	and	a5,a5,a7
   1668c:	fc078ce3          	beqz	a5,16664 <strncpy+0x78>
   16690:	f91ff06f          	j	16620 <strncpy+0x34>
   16694:	00008067          	ret

00016698 <_setlocale_r>:
   16698:	04060063          	beqz	a2,166d8 <_setlocale_r+0x40>
   1669c:	ff010113          	add	sp,sp,-16
   166a0:	0000b597          	auipc	a1,0xb
   166a4:	79c58593          	add	a1,a1,1948 # 21e3c <__clzsi2+0xbc>
   166a8:	00060513          	mv	a0,a2
   166ac:	00812423          	sw	s0,8(sp)
   166b0:	00112623          	sw	ra,12(sp)
   166b4:	00060413          	mv	s0,a2
   166b8:	4e0000ef          	jal	16b98 <strcmp>
   166bc:	02051463          	bnez	a0,166e4 <_setlocale_r+0x4c>
   166c0:	0000b517          	auipc	a0,0xb
   166c4:	77850513          	add	a0,a0,1912 # 21e38 <__clzsi2+0xb8>
   166c8:	00c12083          	lw	ra,12(sp)
   166cc:	00812403          	lw	s0,8(sp)
   166d0:	01010113          	add	sp,sp,16
   166d4:	00008067          	ret
   166d8:	0000b517          	auipc	a0,0xb
   166dc:	76050513          	add	a0,a0,1888 # 21e38 <__clzsi2+0xb8>
   166e0:	00008067          	ret
   166e4:	0000b597          	auipc	a1,0xb
   166e8:	75458593          	add	a1,a1,1876 # 21e38 <__clzsi2+0xb8>
   166ec:	00040513          	mv	a0,s0
   166f0:	4a8000ef          	jal	16b98 <strcmp>
   166f4:	fc0506e3          	beqz	a0,166c0 <_setlocale_r+0x28>
   166f8:	0000b597          	auipc	a1,0xb
   166fc:	7dc58593          	add	a1,a1,2012 # 21ed4 <__clzsi2+0x154>
   16700:	00040513          	mv	a0,s0
   16704:	494000ef          	jal	16b98 <strcmp>
   16708:	fa050ce3          	beqz	a0,166c0 <_setlocale_r+0x28>
   1670c:	00000513          	li	a0,0
   16710:	fb9ff06f          	j	166c8 <_setlocale_r+0x30>

00016714 <__locale_mb_cur_max>:
   16714:	e601c503          	lbu	a0,-416(gp) # 23720 <__global_locale+0x128>
   16718:	00008067          	ret

0001671c <setlocale>:
   1671c:	04058063          	beqz	a1,1675c <setlocale+0x40>
   16720:	ff010113          	add	sp,sp,-16
   16724:	00812423          	sw	s0,8(sp)
   16728:	00058413          	mv	s0,a1
   1672c:	00040513          	mv	a0,s0
   16730:	0000b597          	auipc	a1,0xb
   16734:	70c58593          	add	a1,a1,1804 # 21e3c <__clzsi2+0xbc>
   16738:	00112623          	sw	ra,12(sp)
   1673c:	45c000ef          	jal	16b98 <strcmp>
   16740:	02051463          	bnez	a0,16768 <setlocale+0x4c>
   16744:	0000b517          	auipc	a0,0xb
   16748:	6f450513          	add	a0,a0,1780 # 21e38 <__clzsi2+0xb8>
   1674c:	00c12083          	lw	ra,12(sp)
   16750:	00812403          	lw	s0,8(sp)
   16754:	01010113          	add	sp,sp,16
   16758:	00008067          	ret
   1675c:	0000b517          	auipc	a0,0xb
   16760:	6dc50513          	add	a0,a0,1756 # 21e38 <__clzsi2+0xb8>
   16764:	00008067          	ret
   16768:	0000b597          	auipc	a1,0xb
   1676c:	6d058593          	add	a1,a1,1744 # 21e38 <__clzsi2+0xb8>
   16770:	00040513          	mv	a0,s0
   16774:	424000ef          	jal	16b98 <strcmp>
   16778:	fc0506e3          	beqz	a0,16744 <setlocale+0x28>
   1677c:	0000b597          	auipc	a1,0xb
   16780:	75858593          	add	a1,a1,1880 # 21ed4 <__clzsi2+0x154>
   16784:	00040513          	mv	a0,s0
   16788:	410000ef          	jal	16b98 <strcmp>
   1678c:	fa050ce3          	beqz	a0,16744 <setlocale+0x28>
   16790:	00000513          	li	a0,0
   16794:	fb9ff06f          	j	1674c <setlocale+0x30>

00016798 <__localeconv_l>:
   16798:	0f050513          	add	a0,a0,240
   1679c:	00008067          	ret

000167a0 <_localeconv_r>:
   167a0:	e2818513          	add	a0,gp,-472 # 236e8 <__global_locale+0xf0>
   167a4:	00008067          	ret

000167a8 <localeconv>:
   167a8:	e2818513          	add	a0,gp,-472 # 236e8 <__global_locale+0xf0>
   167ac:	00008067          	ret

000167b0 <_sbrk_r>:
   167b0:	ff010113          	add	sp,sp,-16
   167b4:	00812423          	sw	s0,8(sp)
   167b8:	00050413          	mv	s0,a0
   167bc:	00058513          	mv	a0,a1
   167c0:	f001ae23          	sw	zero,-228(gp) # 237dc <errno>
   167c4:	00112623          	sw	ra,12(sp)
   167c8:	5b8050ef          	jal	1bd80 <_sbrk>
   167cc:	fff00793          	li	a5,-1
   167d0:	00f50a63          	beq	a0,a5,167e4 <_sbrk_r+0x34>
   167d4:	00c12083          	lw	ra,12(sp)
   167d8:	00812403          	lw	s0,8(sp)
   167dc:	01010113          	add	sp,sp,16
   167e0:	00008067          	ret
   167e4:	f1c1a783          	lw	a5,-228(gp) # 237dc <errno>
   167e8:	fe0786e3          	beqz	a5,167d4 <_sbrk_r+0x24>
   167ec:	00c12083          	lw	ra,12(sp)
   167f0:	00f42023          	sw	a5,0(s0)
   167f4:	00812403          	lw	s0,8(sp)
   167f8:	01010113          	add	sp,sp,16
   167fc:	00008067          	ret

00016800 <__libc_fini_array>:
   16800:	ff010113          	add	sp,sp,-16
   16804:	00812423          	sw	s0,8(sp)
   16808:	0000d797          	auipc	a5,0xd
   1680c:	8b478793          	add	a5,a5,-1868 # 230bc <__do_global_dtors_aux_fini_array_entry>
   16810:	0000d417          	auipc	s0,0xd
   16814:	8b040413          	add	s0,s0,-1872 # 230c0 <__sglue>
   16818:	40f40433          	sub	s0,s0,a5
   1681c:	00912223          	sw	s1,4(sp)
   16820:	00112623          	sw	ra,12(sp)
   16824:	40245493          	sra	s1,s0,0x2
   16828:	02048063          	beqz	s1,16848 <__libc_fini_array+0x48>
   1682c:	ffc40413          	add	s0,s0,-4
   16830:	00f40433          	add	s0,s0,a5
   16834:	00042783          	lw	a5,0(s0)
   16838:	fff48493          	add	s1,s1,-1
   1683c:	ffc40413          	add	s0,s0,-4
   16840:	000780e7          	jalr	a5
   16844:	fe0498e3          	bnez	s1,16834 <__libc_fini_array+0x34>
   16848:	00c12083          	lw	ra,12(sp)
   1684c:	00812403          	lw	s0,8(sp)
   16850:	00412483          	lw	s1,4(sp)
   16854:	01010113          	add	sp,sp,16
   16858:	00008067          	ret

0001685c <memmove>:
   1685c:	02a5f663          	bgeu	a1,a0,16888 <memmove+0x2c>
   16860:	00c58733          	add	a4,a1,a2
   16864:	02e57263          	bgeu	a0,a4,16888 <memmove+0x2c>
   16868:	00c507b3          	add	a5,a0,a2
   1686c:	04060663          	beqz	a2,168b8 <memmove+0x5c>
   16870:	fff74683          	lbu	a3,-1(a4)
   16874:	fff78793          	add	a5,a5,-1
   16878:	fff70713          	add	a4,a4,-1
   1687c:	00d78023          	sb	a3,0(a5)
   16880:	fef518e3          	bne	a0,a5,16870 <memmove+0x14>
   16884:	00008067          	ret
   16888:	00f00793          	li	a5,15
   1688c:	02c7e863          	bltu	a5,a2,168bc <memmove+0x60>
   16890:	00050793          	mv	a5,a0
   16894:	fff60693          	add	a3,a2,-1
   16898:	0c060263          	beqz	a2,1695c <memmove+0x100>
   1689c:	00168693          	add	a3,a3,1 # 2001 <exit-0xe093>
   168a0:	00d786b3          	add	a3,a5,a3
   168a4:	0005c703          	lbu	a4,0(a1)
   168a8:	00178793          	add	a5,a5,1
   168ac:	00158593          	add	a1,a1,1
   168b0:	fee78fa3          	sb	a4,-1(a5)
   168b4:	fed798e3          	bne	a5,a3,168a4 <memmove+0x48>
   168b8:	00008067          	ret
   168bc:	00b567b3          	or	a5,a0,a1
   168c0:	0037f793          	and	a5,a5,3
   168c4:	08079663          	bnez	a5,16950 <memmove+0xf4>
   168c8:	ff060893          	add	a7,a2,-16
   168cc:	ff08f893          	and	a7,a7,-16
   168d0:	01088893          	add	a7,a7,16
   168d4:	011506b3          	add	a3,a0,a7
   168d8:	00058713          	mv	a4,a1
   168dc:	00050793          	mv	a5,a0
   168e0:	00072803          	lw	a6,0(a4)
   168e4:	01070713          	add	a4,a4,16
   168e8:	01078793          	add	a5,a5,16
   168ec:	ff07a823          	sw	a6,-16(a5)
   168f0:	ff472803          	lw	a6,-12(a4)
   168f4:	ff07aa23          	sw	a6,-12(a5)
   168f8:	ff872803          	lw	a6,-8(a4)
   168fc:	ff07ac23          	sw	a6,-8(a5)
   16900:	ffc72803          	lw	a6,-4(a4)
   16904:	ff07ae23          	sw	a6,-4(a5)
   16908:	fcd79ce3          	bne	a5,a3,168e0 <memmove+0x84>
   1690c:	00c67813          	and	a6,a2,12
   16910:	011585b3          	add	a1,a1,a7
   16914:	00f67713          	and	a4,a2,15
   16918:	04080463          	beqz	a6,16960 <memmove+0x104>
   1691c:	ffc70813          	add	a6,a4,-4
   16920:	ffc87813          	and	a6,a6,-4
   16924:	00480813          	add	a6,a6,4
   16928:	010687b3          	add	a5,a3,a6
   1692c:	00058713          	mv	a4,a1
   16930:	00072883          	lw	a7,0(a4)
   16934:	00468693          	add	a3,a3,4
   16938:	00470713          	add	a4,a4,4
   1693c:	ff16ae23          	sw	a7,-4(a3)
   16940:	fef698e3          	bne	a3,a5,16930 <memmove+0xd4>
   16944:	00367613          	and	a2,a2,3
   16948:	010585b3          	add	a1,a1,a6
   1694c:	f49ff06f          	j	16894 <memmove+0x38>
   16950:	fff60693          	add	a3,a2,-1
   16954:	00050793          	mv	a5,a0
   16958:	f45ff06f          	j	1689c <memmove+0x40>
   1695c:	00008067          	ret
   16960:	00070613          	mv	a2,a4
   16964:	f31ff06f          	j	16894 <memmove+0x38>

00016968 <memcpy>:
   16968:	00a5c7b3          	xor	a5,a1,a0
   1696c:	0037f793          	and	a5,a5,3
   16970:	00c508b3          	add	a7,a0,a2
   16974:	06079463          	bnez	a5,169dc <memcpy+0x74>
   16978:	00300793          	li	a5,3
   1697c:	06c7f063          	bgeu	a5,a2,169dc <memcpy+0x74>
   16980:	00357793          	and	a5,a0,3
   16984:	00050713          	mv	a4,a0
   16988:	06079a63          	bnez	a5,169fc <memcpy+0x94>
   1698c:	ffc8f613          	and	a2,a7,-4
   16990:	40e606b3          	sub	a3,a2,a4
   16994:	02000793          	li	a5,32
   16998:	08d7ce63          	blt	a5,a3,16a34 <memcpy+0xcc>
   1699c:	00058693          	mv	a3,a1
   169a0:	00070793          	mv	a5,a4
   169a4:	02c77863          	bgeu	a4,a2,169d4 <memcpy+0x6c>
   169a8:	0006a803          	lw	a6,0(a3)
   169ac:	00478793          	add	a5,a5,4
   169b0:	00468693          	add	a3,a3,4
   169b4:	ff07ae23          	sw	a6,-4(a5)
   169b8:	fec7e8e3          	bltu	a5,a2,169a8 <memcpy+0x40>
   169bc:	fff60793          	add	a5,a2,-1
   169c0:	40e787b3          	sub	a5,a5,a4
   169c4:	ffc7f793          	and	a5,a5,-4
   169c8:	00478793          	add	a5,a5,4
   169cc:	00f70733          	add	a4,a4,a5
   169d0:	00f585b3          	add	a1,a1,a5
   169d4:	01176863          	bltu	a4,a7,169e4 <memcpy+0x7c>
   169d8:	00008067          	ret
   169dc:	00050713          	mv	a4,a0
   169e0:	05157863          	bgeu	a0,a7,16a30 <memcpy+0xc8>
   169e4:	0005c783          	lbu	a5,0(a1)
   169e8:	00170713          	add	a4,a4,1
   169ec:	00158593          	add	a1,a1,1
   169f0:	fef70fa3          	sb	a5,-1(a4)
   169f4:	fee898e3          	bne	a7,a4,169e4 <memcpy+0x7c>
   169f8:	00008067          	ret
   169fc:	0005c683          	lbu	a3,0(a1)
   16a00:	00170713          	add	a4,a4,1
   16a04:	00377793          	and	a5,a4,3
   16a08:	fed70fa3          	sb	a3,-1(a4)
   16a0c:	00158593          	add	a1,a1,1
   16a10:	f6078ee3          	beqz	a5,1698c <memcpy+0x24>
   16a14:	0005c683          	lbu	a3,0(a1)
   16a18:	00170713          	add	a4,a4,1
   16a1c:	00377793          	and	a5,a4,3
   16a20:	fed70fa3          	sb	a3,-1(a4)
   16a24:	00158593          	add	a1,a1,1
   16a28:	fc079ae3          	bnez	a5,169fc <memcpy+0x94>
   16a2c:	f61ff06f          	j	1698c <memcpy+0x24>
   16a30:	00008067          	ret
   16a34:	ff010113          	add	sp,sp,-16
   16a38:	00812623          	sw	s0,12(sp)
   16a3c:	02000413          	li	s0,32
   16a40:	0005a383          	lw	t2,0(a1)
   16a44:	0045a283          	lw	t0,4(a1)
   16a48:	0085af83          	lw	t6,8(a1)
   16a4c:	00c5af03          	lw	t5,12(a1)
   16a50:	0105ae83          	lw	t4,16(a1)
   16a54:	0145ae03          	lw	t3,20(a1)
   16a58:	0185a303          	lw	t1,24(a1)
   16a5c:	01c5a803          	lw	a6,28(a1)
   16a60:	0205a683          	lw	a3,32(a1)
   16a64:	02470713          	add	a4,a4,36
   16a68:	40e607b3          	sub	a5,a2,a4
   16a6c:	fc772e23          	sw	t2,-36(a4)
   16a70:	fe572023          	sw	t0,-32(a4)
   16a74:	fff72223          	sw	t6,-28(a4)
   16a78:	ffe72423          	sw	t5,-24(a4)
   16a7c:	ffd72623          	sw	t4,-20(a4)
   16a80:	ffc72823          	sw	t3,-16(a4)
   16a84:	fe672a23          	sw	t1,-12(a4)
   16a88:	ff072c23          	sw	a6,-8(a4)
   16a8c:	fed72e23          	sw	a3,-4(a4)
   16a90:	02458593          	add	a1,a1,36
   16a94:	faf446e3          	blt	s0,a5,16a40 <memcpy+0xd8>
   16a98:	00058693          	mv	a3,a1
   16a9c:	00070793          	mv	a5,a4
   16aa0:	02c77863          	bgeu	a4,a2,16ad0 <memcpy+0x168>
   16aa4:	0006a803          	lw	a6,0(a3)
   16aa8:	00478793          	add	a5,a5,4
   16aac:	00468693          	add	a3,a3,4
   16ab0:	ff07ae23          	sw	a6,-4(a5)
   16ab4:	fec7e8e3          	bltu	a5,a2,16aa4 <memcpy+0x13c>
   16ab8:	fff60793          	add	a5,a2,-1
   16abc:	40e787b3          	sub	a5,a5,a4
   16ac0:	ffc7f793          	and	a5,a5,-4
   16ac4:	00478793          	add	a5,a5,4
   16ac8:	00f70733          	add	a4,a4,a5
   16acc:	00f585b3          	add	a1,a1,a5
   16ad0:	01176863          	bltu	a4,a7,16ae0 <memcpy+0x178>
   16ad4:	00c12403          	lw	s0,12(sp)
   16ad8:	01010113          	add	sp,sp,16
   16adc:	00008067          	ret
   16ae0:	0005c783          	lbu	a5,0(a1)
   16ae4:	00170713          	add	a4,a4,1
   16ae8:	00158593          	add	a1,a1,1
   16aec:	fef70fa3          	sb	a5,-1(a4)
   16af0:	fee882e3          	beq	a7,a4,16ad4 <memcpy+0x16c>
   16af4:	0005c783          	lbu	a5,0(a1)
   16af8:	00170713          	add	a4,a4,1
   16afc:	00158593          	add	a1,a1,1
   16b00:	fef70fa3          	sb	a5,-1(a4)
   16b04:	fce89ee3          	bne	a7,a4,16ae0 <memcpy+0x178>
   16b08:	fcdff06f          	j	16ad4 <memcpy+0x16c>

00016b0c <strlen>:
   16b0c:	00357793          	and	a5,a0,3
   16b10:	00050713          	mv	a4,a0
   16b14:	04079c63          	bnez	a5,16b6c <strlen+0x60>
   16b18:	7f7f86b7          	lui	a3,0x7f7f8
   16b1c:	f7f68693          	add	a3,a3,-129 # 7f7f7f7f <__BSS_END__+0x7f7d445f>
   16b20:	fff00593          	li	a1,-1
   16b24:	00072603          	lw	a2,0(a4)
   16b28:	00470713          	add	a4,a4,4
   16b2c:	00d677b3          	and	a5,a2,a3
   16b30:	00d787b3          	add	a5,a5,a3
   16b34:	00c7e7b3          	or	a5,a5,a2
   16b38:	00d7e7b3          	or	a5,a5,a3
   16b3c:	feb784e3          	beq	a5,a1,16b24 <strlen+0x18>
   16b40:	ffc74683          	lbu	a3,-4(a4)
   16b44:	40a707b3          	sub	a5,a4,a0
   16b48:	04068463          	beqz	a3,16b90 <strlen+0x84>
   16b4c:	ffd74683          	lbu	a3,-3(a4)
   16b50:	02068c63          	beqz	a3,16b88 <strlen+0x7c>
   16b54:	ffe74503          	lbu	a0,-2(a4)
   16b58:	00a03533          	snez	a0,a0
   16b5c:	00f50533          	add	a0,a0,a5
   16b60:	ffe50513          	add	a0,a0,-2
   16b64:	00008067          	ret
   16b68:	fa0688e3          	beqz	a3,16b18 <strlen+0xc>
   16b6c:	00074783          	lbu	a5,0(a4)
   16b70:	00170713          	add	a4,a4,1
   16b74:	00377693          	and	a3,a4,3
   16b78:	fe0798e3          	bnez	a5,16b68 <strlen+0x5c>
   16b7c:	40a70733          	sub	a4,a4,a0
   16b80:	fff70513          	add	a0,a4,-1
   16b84:	00008067          	ret
   16b88:	ffd78513          	add	a0,a5,-3
   16b8c:	00008067          	ret
   16b90:	ffc78513          	add	a0,a5,-4
   16b94:	00008067          	ret

00016b98 <strcmp>:
   16b98:	00b56733          	or	a4,a0,a1
   16b9c:	fff00393          	li	t2,-1
   16ba0:	00377713          	and	a4,a4,3
   16ba4:	10071063          	bnez	a4,16ca4 <strcmp+0x10c>
   16ba8:	7f7f87b7          	lui	a5,0x7f7f8
   16bac:	f7f78793          	add	a5,a5,-129 # 7f7f7f7f <__BSS_END__+0x7f7d445f>
   16bb0:	00052603          	lw	a2,0(a0)
   16bb4:	0005a683          	lw	a3,0(a1)
   16bb8:	00f672b3          	and	t0,a2,a5
   16bbc:	00f66333          	or	t1,a2,a5
   16bc0:	00f282b3          	add	t0,t0,a5
   16bc4:	0062e2b3          	or	t0,t0,t1
   16bc8:	10729263          	bne	t0,t2,16ccc <strcmp+0x134>
   16bcc:	08d61663          	bne	a2,a3,16c58 <strcmp+0xc0>
   16bd0:	00452603          	lw	a2,4(a0)
   16bd4:	0045a683          	lw	a3,4(a1)
   16bd8:	00f672b3          	and	t0,a2,a5
   16bdc:	00f66333          	or	t1,a2,a5
   16be0:	00f282b3          	add	t0,t0,a5
   16be4:	0062e2b3          	or	t0,t0,t1
   16be8:	0c729e63          	bne	t0,t2,16cc4 <strcmp+0x12c>
   16bec:	06d61663          	bne	a2,a3,16c58 <strcmp+0xc0>
   16bf0:	00852603          	lw	a2,8(a0)
   16bf4:	0085a683          	lw	a3,8(a1)
   16bf8:	00f672b3          	and	t0,a2,a5
   16bfc:	00f66333          	or	t1,a2,a5
   16c00:	00f282b3          	add	t0,t0,a5
   16c04:	0062e2b3          	or	t0,t0,t1
   16c08:	0c729863          	bne	t0,t2,16cd8 <strcmp+0x140>
   16c0c:	04d61663          	bne	a2,a3,16c58 <strcmp+0xc0>
   16c10:	00c52603          	lw	a2,12(a0)
   16c14:	00c5a683          	lw	a3,12(a1)
   16c18:	00f672b3          	and	t0,a2,a5
   16c1c:	00f66333          	or	t1,a2,a5
   16c20:	00f282b3          	add	t0,t0,a5
   16c24:	0062e2b3          	or	t0,t0,t1
   16c28:	0c729263          	bne	t0,t2,16cec <strcmp+0x154>
   16c2c:	02d61663          	bne	a2,a3,16c58 <strcmp+0xc0>
   16c30:	01052603          	lw	a2,16(a0)
   16c34:	0105a683          	lw	a3,16(a1)
   16c38:	00f672b3          	and	t0,a2,a5
   16c3c:	00f66333          	or	t1,a2,a5
   16c40:	00f282b3          	add	t0,t0,a5
   16c44:	0062e2b3          	or	t0,t0,t1
   16c48:	0a729c63          	bne	t0,t2,16d00 <strcmp+0x168>
   16c4c:	01450513          	add	a0,a0,20
   16c50:	01458593          	add	a1,a1,20
   16c54:	f4d60ee3          	beq	a2,a3,16bb0 <strcmp+0x18>
   16c58:	01061713          	sll	a4,a2,0x10
   16c5c:	01069793          	sll	a5,a3,0x10
   16c60:	00f71e63          	bne	a4,a5,16c7c <strcmp+0xe4>
   16c64:	01065713          	srl	a4,a2,0x10
   16c68:	0106d793          	srl	a5,a3,0x10
   16c6c:	40f70533          	sub	a0,a4,a5
   16c70:	0ff57593          	zext.b	a1,a0
   16c74:	02059063          	bnez	a1,16c94 <strcmp+0xfc>
   16c78:	00008067          	ret
   16c7c:	01075713          	srl	a4,a4,0x10
   16c80:	0107d793          	srl	a5,a5,0x10
   16c84:	40f70533          	sub	a0,a4,a5
   16c88:	0ff57593          	zext.b	a1,a0
   16c8c:	00059463          	bnez	a1,16c94 <strcmp+0xfc>
   16c90:	00008067          	ret
   16c94:	0ff77713          	zext.b	a4,a4
   16c98:	0ff7f793          	zext.b	a5,a5
   16c9c:	40f70533          	sub	a0,a4,a5
   16ca0:	00008067          	ret
   16ca4:	00054603          	lbu	a2,0(a0)
   16ca8:	0005c683          	lbu	a3,0(a1)
   16cac:	00150513          	add	a0,a0,1
   16cb0:	00158593          	add	a1,a1,1
   16cb4:	00d61463          	bne	a2,a3,16cbc <strcmp+0x124>
   16cb8:	fe0616e3          	bnez	a2,16ca4 <strcmp+0x10c>
   16cbc:	40d60533          	sub	a0,a2,a3
   16cc0:	00008067          	ret
   16cc4:	00450513          	add	a0,a0,4
   16cc8:	00458593          	add	a1,a1,4
   16ccc:	fcd61ce3          	bne	a2,a3,16ca4 <strcmp+0x10c>
   16cd0:	00000513          	li	a0,0
   16cd4:	00008067          	ret
   16cd8:	00850513          	add	a0,a0,8
   16cdc:	00858593          	add	a1,a1,8
   16ce0:	fcd612e3          	bne	a2,a3,16ca4 <strcmp+0x10c>
   16ce4:	00000513          	li	a0,0
   16ce8:	00008067          	ret
   16cec:	00c50513          	add	a0,a0,12
   16cf0:	00c58593          	add	a1,a1,12
   16cf4:	fad618e3          	bne	a2,a3,16ca4 <strcmp+0x10c>
   16cf8:	00000513          	li	a0,0
   16cfc:	00008067          	ret
   16d00:	01050513          	add	a0,a0,16
   16d04:	01058593          	add	a1,a1,16
   16d08:	f8d61ee3          	bne	a2,a3,16ca4 <strcmp+0x10c>
   16d0c:	00000513          	li	a0,0
   16d10:	00008067          	ret

00016d14 <frexpl>:
   16d14:	f9010113          	add	sp,sp,-112
   16d18:	07212023          	sw	s2,96(sp)
   16d1c:	00c5a903          	lw	s2,12(a1)
   16d20:	05412c23          	sw	s4,88(sp)
   16d24:	05512a23          	sw	s5,84(sp)
   16d28:	05612823          	sw	s6,80(sp)
   16d2c:	0045aa83          	lw	s5,4(a1)
   16d30:	0005ab03          	lw	s6,0(a1)
   16d34:	0085aa03          	lw	s4,8(a1)
   16d38:	05312e23          	sw	s3,92(sp)
   16d3c:	000089b7          	lui	s3,0x8
   16d40:	06812423          	sw	s0,104(sp)
   16d44:	06912223          	sw	s1,100(sp)
   16d48:	06112623          	sw	ra,108(sp)
   16d4c:	01095493          	srl	s1,s2,0x10
   16d50:	fff98993          	add	s3,s3,-1 # 7fff <exit-0x8095>
   16d54:	03612823          	sw	s6,48(sp)
   16d58:	03512a23          	sw	s5,52(sp)
   16d5c:	03412c23          	sw	s4,56(sp)
   16d60:	03212e23          	sw	s2,60(sp)
   16d64:	0134f4b3          	and	s1,s1,s3
   16d68:	00062023          	sw	zero,0(a2)
   16d6c:	00050413          	mv	s0,a0
   16d70:	09348063          	beq	s1,s3,16df0 <frexpl+0xdc>
   16d74:	01010593          	add	a1,sp,16
   16d78:	02010513          	add	a0,sp,32
   16d7c:	05712623          	sw	s7,76(sp)
   16d80:	03612023          	sw	s6,32(sp)
   16d84:	00060b93          	mv	s7,a2
   16d88:	03512223          	sw	s5,36(sp)
   16d8c:	03412423          	sw	s4,40(sp)
   16d90:	03212623          	sw	s2,44(sp)
   16d94:	00012823          	sw	zero,16(sp)
   16d98:	00012a23          	sw	zero,20(sp)
   16d9c:	00012c23          	sw	zero,24(sp)
   16da0:	00012e23          	sw	zero,28(sp)
   16da4:	665070ef          	jal	1ec08 <__eqtf2>
   16da8:	0e050e63          	beqz	a0,16ea4 <frexpl+0x190>
   16dac:	00000693          	li	a3,0
   16db0:	06048e63          	beqz	s1,16e2c <frexpl+0x118>
   16db4:	ffffc737          	lui	a4,0xffffc
   16db8:	00270713          	add	a4,a4,2 # ffffc002 <__BSS_END__+0xfffd84e2>
   16dbc:	03c12903          	lw	s2,60(sp)
   16dc0:	00e484b3          	add	s1,s1,a4
   16dc4:	800107b7          	lui	a5,0x80010
   16dc8:	00d484b3          	add	s1,s1,a3
   16dcc:	fff78793          	add	a5,a5,-1 # 8000ffff <__BSS_END__+0x7ffec4df>
   16dd0:	009ba023          	sw	s1,0(s7)
   16dd4:	03012b03          	lw	s6,48(sp)
   16dd8:	03412a83          	lw	s5,52(sp)
   16ddc:	03812a03          	lw	s4,56(sp)
   16de0:	04c12b83          	lw	s7,76(sp)
   16de4:	00f97933          	and	s2,s2,a5
   16de8:	3ffe07b7          	lui	a5,0x3ffe0
   16dec:	00f96933          	or	s2,s2,a5
   16df0:	01642023          	sw	s6,0(s0)
   16df4:	01542223          	sw	s5,4(s0)
   16df8:	01442423          	sw	s4,8(s0)
   16dfc:	01242623          	sw	s2,12(s0)
   16e00:	06c12083          	lw	ra,108(sp)
   16e04:	00040513          	mv	a0,s0
   16e08:	06812403          	lw	s0,104(sp)
   16e0c:	06412483          	lw	s1,100(sp)
   16e10:	06012903          	lw	s2,96(sp)
   16e14:	05c12983          	lw	s3,92(sp)
   16e18:	05812a03          	lw	s4,88(sp)
   16e1c:	05412a83          	lw	s5,84(sp)
   16e20:	05012b03          	lw	s6,80(sp)
   16e24:	07010113          	add	sp,sp,112
   16e28:	00008067          	ret
   16e2c:	0000b797          	auipc	a5,0xb
   16e30:	33478793          	add	a5,a5,820 # 22160 <blanks.1+0x44>
   16e34:	0007a603          	lw	a2,0(a5)
   16e38:	0047a683          	lw	a3,4(a5)
   16e3c:	0087a703          	lw	a4,8(a5)
   16e40:	00c7a783          	lw	a5,12(a5)
   16e44:	00c12023          	sw	a2,0(sp)
   16e48:	01010593          	add	a1,sp,16
   16e4c:	00010613          	mv	a2,sp
   16e50:	02010513          	add	a0,sp,32
   16e54:	00d12223          	sw	a3,4(sp)
   16e58:	00e12423          	sw	a4,8(sp)
   16e5c:	00f12623          	sw	a5,12(sp)
   16e60:	01612823          	sw	s6,16(sp)
   16e64:	01512a23          	sw	s5,20(sp)
   16e68:	01412c23          	sw	s4,24(sp)
   16e6c:	01212e23          	sw	s2,28(sp)
   16e70:	0c4080ef          	jal	1ef34 <__multf3>
   16e74:	02012703          	lw	a4,32(sp)
   16e78:	02c12783          	lw	a5,44(sp)
   16e7c:	f8e00693          	li	a3,-114
   16e80:	02e12823          	sw	a4,48(sp)
   16e84:	02412703          	lw	a4,36(sp)
   16e88:	0107d493          	srl	s1,a5,0x10
   16e8c:	02f12e23          	sw	a5,60(sp)
   16e90:	02e12a23          	sw	a4,52(sp)
   16e94:	02812703          	lw	a4,40(sp)
   16e98:	0134f4b3          	and	s1,s1,s3
   16e9c:	02e12c23          	sw	a4,56(sp)
   16ea0:	f15ff06f          	j	16db4 <frexpl+0xa0>
   16ea4:	04c12b83          	lw	s7,76(sp)
   16ea8:	f49ff06f          	j	16df0 <frexpl+0xdc>

00016eac <__register_exitproc>:
   16eac:	f2018713          	add	a4,gp,-224 # 237e0 <__atexit>
   16eb0:	00072783          	lw	a5,0(a4)
   16eb4:	04078c63          	beqz	a5,16f0c <__register_exitproc+0x60>
   16eb8:	0047a703          	lw	a4,4(a5)
   16ebc:	01f00813          	li	a6,31
   16ec0:	06e84e63          	blt	a6,a4,16f3c <__register_exitproc+0x90>
   16ec4:	00271813          	sll	a6,a4,0x2
   16ec8:	02050663          	beqz	a0,16ef4 <__register_exitproc+0x48>
   16ecc:	01078333          	add	t1,a5,a6
   16ed0:	08c32423          	sw	a2,136(t1)
   16ed4:	1887a883          	lw	a7,392(a5)
   16ed8:	00100613          	li	a2,1
   16edc:	00e61633          	sll	a2,a2,a4
   16ee0:	00c8e8b3          	or	a7,a7,a2
   16ee4:	1917a423          	sw	a7,392(a5)
   16ee8:	10d32423          	sw	a3,264(t1)
   16eec:	00200693          	li	a3,2
   16ef0:	02d50463          	beq	a0,a3,16f18 <__register_exitproc+0x6c>
   16ef4:	00170713          	add	a4,a4,1
   16ef8:	00e7a223          	sw	a4,4(a5)
   16efc:	010787b3          	add	a5,a5,a6
   16f00:	00b7a423          	sw	a1,8(a5)
   16f04:	00000513          	li	a0,0
   16f08:	00008067          	ret
   16f0c:	0bc18793          	add	a5,gp,188 # 2397c <__atexit0>
   16f10:	00f72023          	sw	a5,0(a4)
   16f14:	fa5ff06f          	j	16eb8 <__register_exitproc+0xc>
   16f18:	18c7a683          	lw	a3,396(a5)
   16f1c:	00170713          	add	a4,a4,1
   16f20:	00e7a223          	sw	a4,4(a5)
   16f24:	00c6e6b3          	or	a3,a3,a2
   16f28:	18d7a623          	sw	a3,396(a5)
   16f2c:	010787b3          	add	a5,a5,a6
   16f30:	00b7a423          	sw	a1,8(a5)
   16f34:	00000513          	li	a0,0
   16f38:	00008067          	ret
   16f3c:	fff00513          	li	a0,-1
   16f40:	00008067          	ret

00016f44 <_ldtoa_r>:
   16f44:	0000b897          	auipc	a7,0xb
   16f48:	3d888893          	add	a7,a7,984 # 2231c <blanks.1+0x10>
   16f4c:	0008af83          	lw	t6,0(a7)
   16f50:	0048af03          	lw	t5,4(a7)
   16f54:	0088ae83          	lw	t4,8(a7)
   16f58:	00c8ae03          	lw	t3,12(a7)
   16f5c:	0108a303          	lw	t1,16(a7)
   16f60:	03852883          	lw	a7,56(a0)
   16f64:	f4010113          	add	sp,sp,-192
   16f68:	0b212823          	sw	s2,176(sp)
   16f6c:	0b312623          	sw	s3,172(sp)
   16f70:	0b412423          	sw	s4,168(sp)
   16f74:	0b612023          	sw	s6,160(sp)
   16f78:	09712e23          	sw	s7,156(sp)
   16f7c:	09812c23          	sw	s8,152(sp)
   16f80:	09912a23          	sw	s9,148(sp)
   16f84:	09a12823          	sw	s10,144(sp)
   16f88:	0a112e23          	sw	ra,188(sp)
   16f8c:	0a812c23          	sw	s0,184(sp)
   16f90:	0a912a23          	sw	s1,180(sp)
   16f94:	0b512223          	sw	s5,164(sp)
   16f98:	09b12623          	sw	s11,140(sp)
   16f9c:	07f12623          	sw	t6,108(sp)
   16fa0:	07e12823          	sw	t5,112(sp)
   16fa4:	07d12a23          	sw	t4,116(sp)
   16fa8:	07c12c23          	sw	t3,120(sp)
   16fac:	06612e23          	sw	t1,124(sp)
   16fb0:	02c12023          	sw	a2,32(sp)
   16fb4:	02d12223          	sw	a3,36(sp)
   16fb8:	0005aa03          	lw	s4,0(a1)
   16fbc:	0045a983          	lw	s3,4(a1)
   16fc0:	0085a903          	lw	s2,8(a1)
   16fc4:	00c5ac03          	lw	s8,12(a1)
   16fc8:	00050b13          	mv	s6,a0
   16fcc:	00070b93          	mv	s7,a4
   16fd0:	00078c93          	mv	s9,a5
   16fd4:	00080d13          	mv	s10,a6
   16fd8:	02088263          	beqz	a7,16ffc <_ldtoa_r+0xb8>
   16fdc:	03c52683          	lw	a3,60(a0)
   16fe0:	00100713          	li	a4,1
   16fe4:	00088593          	mv	a1,a7
   16fe8:	00d71733          	sll	a4,a4,a3
   16fec:	00d8a223          	sw	a3,4(a7)
   16ff0:	00e8a423          	sw	a4,8(a7)
   16ff4:	5c4020ef          	jal	195b8 <_Bfree>
   16ff8:	020b2c23          	sw	zero,56(s6)
   16ffc:	07812603          	lw	a2,120(sp)
   17000:	01fc5693          	srl	a3,s8,0x1f
   17004:	001c1a93          	sll	s5,s8,0x1
   17008:	40165713          	sra	a4,a2,0x1
   1700c:	ffffc4b7          	lui	s1,0xffffc
   17010:	001c1413          	sll	s0,s8,0x1
   17014:	00d77733          	and	a4,a4,a3
   17018:	011ada93          	srl	s5,s5,0x11
   1701c:	f9148493          	add	s1,s1,-111 # ffffbf91 <__BSS_END__+0xfffd8471>
   17020:	010c1d93          	sll	s11,s8,0x10
   17024:	00dca023          	sw	a3,0(s9)
   17028:	00145413          	srl	s0,s0,0x1
   1702c:	00c74733          	xor	a4,a4,a2
   17030:	010ddd93          	srl	s11,s11,0x10
   17034:	009a87b3          	add	a5,s5,s1
   17038:	03010593          	add	a1,sp,48
   1703c:	04010513          	add	a0,sp,64
   17040:	05412023          	sw	s4,64(sp)
   17044:	05312223          	sw	s3,68(sp)
   17048:	05212423          	sw	s2,72(sp)
   1704c:	04812623          	sw	s0,76(sp)
   17050:	03412823          	sw	s4,48(sp)
   17054:	03312a23          	sw	s3,52(sp)
   17058:	03212c23          	sw	s2,56(sp)
   1705c:	02812e23          	sw	s0,60(sp)
   17060:	06e12c23          	sw	a4,120(sp)
   17064:	00f12e23          	sw	a5,28(sp)
   17068:	05412e23          	sw	s4,92(sp)
   1706c:	07312023          	sw	s3,96(sp)
   17070:	07212223          	sw	s2,100(sp)
   17074:	07b12423          	sw	s11,104(sp)
   17078:	7500a0ef          	jal	217c8 <__unordtf2>
   1707c:	18051e63          	bnez	a0,17218 <_ldtoa_r+0x2d4>
   17080:	0000b797          	auipc	a5,0xb
   17084:	0f078793          	add	a5,a5,240 # 22170 <blanks.1+0x54>
   17088:	0007a603          	lw	a2,0(a5)
   1708c:	0047a683          	lw	a3,4(a5)
   17090:	0087a483          	lw	s1,8(a5)
   17094:	00c7ac83          	lw	s9,12(a5)
   17098:	03010593          	add	a1,sp,48
   1709c:	04010513          	add	a0,sp,64
   170a0:	05412023          	sw	s4,64(sp)
   170a4:	05312223          	sw	s3,68(sp)
   170a8:	05212423          	sw	s2,72(sp)
   170ac:	04812623          	sw	s0,76(sp)
   170b0:	02c12823          	sw	a2,48(sp)
   170b4:	02c12623          	sw	a2,44(sp)
   170b8:	02d12a23          	sw	a3,52(sp)
   170bc:	02d12423          	sw	a3,40(sp)
   170c0:	02912c23          	sw	s1,56(sp)
   170c4:	03912e23          	sw	s9,60(sp)
   170c8:	7000a0ef          	jal	217c8 <__unordtf2>
   170cc:	08051c63          	bnez	a0,17164 <_ldtoa_r+0x220>
   170d0:	03010593          	add	a1,sp,48
   170d4:	04010513          	add	a0,sp,64
   170d8:	52d070ef          	jal	1ee04 <__letf2>
   170dc:	08a05463          	blez	a0,17164 <_ldtoa_r+0x220>
   170e0:	00300793          	li	a5,3
   170e4:	04f12c23          	sw	a5,88(sp)
   170e8:	02012783          	lw	a5,32(sp)
   170ec:	02412803          	lw	a6,36(sp)
   170f0:	01c12603          	lw	a2,28(sp)
   170f4:	05810713          	add	a4,sp,88
   170f8:	01a12023          	sw	s10,0(sp)
   170fc:	000b8893          	mv	a7,s7
   17100:	05c10693          	add	a3,sp,92
   17104:	06c10593          	add	a1,sp,108
   17108:	000b0513          	mv	a0,s6
   1710c:	238000ef          	jal	17344 <__gdtoa>
   17110:	000ba703          	lw	a4,0(s7)
   17114:	ffff87b7          	lui	a5,0xffff8
   17118:	00f71863          	bne	a4,a5,17128 <_ldtoa_r+0x1e4>
   1711c:	800007b7          	lui	a5,0x80000
   17120:	fff78793          	add	a5,a5,-1 # 7fffffff <__BSS_END__+0x7ffdc4df>
   17124:	00fba023          	sw	a5,0(s7)
   17128:	0bc12083          	lw	ra,188(sp)
   1712c:	0b812403          	lw	s0,184(sp)
   17130:	0b412483          	lw	s1,180(sp)
   17134:	0b012903          	lw	s2,176(sp)
   17138:	0ac12983          	lw	s3,172(sp)
   1713c:	0a812a03          	lw	s4,168(sp)
   17140:	0a412a83          	lw	s5,164(sp)
   17144:	0a012b03          	lw	s6,160(sp)
   17148:	09c12b83          	lw	s7,156(sp)
   1714c:	09812c03          	lw	s8,152(sp)
   17150:	09412c83          	lw	s9,148(sp)
   17154:	09012d03          	lw	s10,144(sp)
   17158:	08c12d83          	lw	s11,140(sp)
   1715c:	0c010113          	add	sp,sp,192
   17160:	00008067          	ret
   17164:	0000b797          	auipc	a5,0xb
   17168:	01c78793          	add	a5,a5,28 # 22180 <blanks.1+0x64>
   1716c:	0007a603          	lw	a2,0(a5)
   17170:	0047a683          	lw	a3,4(a5)
   17174:	0087a703          	lw	a4,8(a5)
   17178:	00c7a783          	lw	a5,12(a5)
   1717c:	03010593          	add	a1,sp,48
   17180:	04010513          	add	a0,sp,64
   17184:	05412023          	sw	s4,64(sp)
   17188:	05312223          	sw	s3,68(sp)
   1718c:	05212423          	sw	s2,72(sp)
   17190:	04812623          	sw	s0,76(sp)
   17194:	02c12823          	sw	a2,48(sp)
   17198:	02d12a23          	sw	a3,52(sp)
   1719c:	02e12c23          	sw	a4,56(sp)
   171a0:	02f12e23          	sw	a5,60(sp)
   171a4:	331070ef          	jal	1ecd4 <__getf2>
   171a8:	00054e63          	bltz	a0,171c4 <_ldtoa_r+0x280>
   171ac:	000107b7          	lui	a5,0x10
   171b0:	00fdedb3          	or	s11,s11,a5
   171b4:	00100793          	li	a5,1
   171b8:	04f12c23          	sw	a5,88(sp)
   171bc:	07b12423          	sw	s11,104(sp)
   171c0:	f29ff06f          	j	170e8 <_ldtoa_r+0x1a4>
   171c4:	03010593          	add	a1,sp,48
   171c8:	04010513          	add	a0,sp,64
   171cc:	05412023          	sw	s4,64(sp)
   171d0:	05312223          	sw	s3,68(sp)
   171d4:	05212423          	sw	s2,72(sp)
   171d8:	05812623          	sw	s8,76(sp)
   171dc:	02012823          	sw	zero,48(sp)
   171e0:	02012a23          	sw	zero,52(sp)
   171e4:	02012c23          	sw	zero,56(sp)
   171e8:	02012e23          	sw	zero,60(sp)
   171ec:	21d070ef          	jal	1ec08 <__eqtf2>
   171f0:	00051663          	bnez	a0,171fc <_ldtoa_r+0x2b8>
   171f4:	04012c23          	sw	zero,88(sp)
   171f8:	ef1ff06f          	j	170e8 <_ldtoa_r+0x1a4>
   171fc:	ffffc4b7          	lui	s1,0xffffc
   17200:	00200793          	li	a5,2
   17204:	f9248493          	add	s1,s1,-110 # ffffbf92 <__BSS_END__+0xfffd8472>
   17208:	04f12c23          	sw	a5,88(sp)
   1720c:	009a87b3          	add	a5,s5,s1
   17210:	00f12e23          	sw	a5,28(sp)
   17214:	ed5ff06f          	j	170e8 <_ldtoa_r+0x1a4>
   17218:	00400793          	li	a5,4
   1721c:	04f12c23          	sw	a5,88(sp)
   17220:	ec9ff06f          	j	170e8 <_ldtoa_r+0x1a4>

00017224 <_ldcheck>:
   17224:	fb010113          	add	sp,sp,-80
   17228:	04912223          	sw	s1,68(sp)
   1722c:	00c52483          	lw	s1,12(a0)
   17230:	05212023          	sw	s2,64(sp)
   17234:	03312e23          	sw	s3,60(sp)
   17238:	00852903          	lw	s2,8(a0)
   1723c:	00452983          	lw	s3,4(a0)
   17240:	03412c23          	sw	s4,56(sp)
   17244:	00052a03          	lw	s4,0(a0)
   17248:	00149493          	sll	s1,s1,0x1
   1724c:	0014d493          	srl	s1,s1,0x1
   17250:	00010593          	mv	a1,sp
   17254:	01010513          	add	a0,sp,16
   17258:	04112623          	sw	ra,76(sp)
   1725c:	01412823          	sw	s4,16(sp)
   17260:	01312a23          	sw	s3,20(sp)
   17264:	01212c23          	sw	s2,24(sp)
   17268:	00912e23          	sw	s1,28(sp)
   1726c:	01412023          	sw	s4,0(sp)
   17270:	01312223          	sw	s3,4(sp)
   17274:	01212423          	sw	s2,8(sp)
   17278:	00912623          	sw	s1,12(sp)
   1727c:	54c0a0ef          	jal	217c8 <__unordtf2>
   17280:	0a051263          	bnez	a0,17324 <_ldcheck+0x100>
   17284:	0000b797          	auipc	a5,0xb
   17288:	eec78793          	add	a5,a5,-276 # 22170 <blanks.1+0x54>
   1728c:	03512a23          	sw	s5,52(sp)
   17290:	03612823          	sw	s6,48(sp)
   17294:	03712623          	sw	s7,44(sp)
   17298:	03812423          	sw	s8,40(sp)
   1729c:	0047ab83          	lw	s7,4(a5)
   172a0:	0007ac03          	lw	s8,0(a5)
   172a4:	0087ab03          	lw	s6,8(a5)
   172a8:	00c7aa83          	lw	s5,12(a5)
   172ac:	00010593          	mv	a1,sp
   172b0:	01010513          	add	a0,sp,16
   172b4:	04812423          	sw	s0,72(sp)
   172b8:	01812023          	sw	s8,0(sp)
   172bc:	01712223          	sw	s7,4(sp)
   172c0:	01612423          	sw	s6,8(sp)
   172c4:	01512623          	sw	s5,12(sp)
   172c8:	00100413          	li	s0,1
   172cc:	4fc0a0ef          	jal	217c8 <__unordtf2>
   172d0:	04050063          	beqz	a0,17310 <_ldcheck+0xec>
   172d4:	04c12083          	lw	ra,76(sp)
   172d8:	00144513          	xor	a0,s0,1
   172dc:	04812403          	lw	s0,72(sp)
   172e0:	0ff57513          	zext.b	a0,a0
   172e4:	03412a83          	lw	s5,52(sp)
   172e8:	03012b03          	lw	s6,48(sp)
   172ec:	02c12b83          	lw	s7,44(sp)
   172f0:	02812c03          	lw	s8,40(sp)
   172f4:	04412483          	lw	s1,68(sp)
   172f8:	04012903          	lw	s2,64(sp)
   172fc:	03c12983          	lw	s3,60(sp)
   17300:	03812a03          	lw	s4,56(sp)
   17304:	00151513          	sll	a0,a0,0x1
   17308:	05010113          	add	sp,sp,80
   1730c:	00008067          	ret
   17310:	00010593          	mv	a1,sp
   17314:	01010513          	add	a0,sp,16
   17318:	2ed070ef          	jal	1ee04 <__letf2>
   1731c:	00152413          	slti	s0,a0,1
   17320:	fb5ff06f          	j	172d4 <_ldcheck+0xb0>
   17324:	04c12083          	lw	ra,76(sp)
   17328:	04412483          	lw	s1,68(sp)
   1732c:	04012903          	lw	s2,64(sp)
   17330:	03c12983          	lw	s3,60(sp)
   17334:	03812a03          	lw	s4,56(sp)
   17338:	00100513          	li	a0,1
   1733c:	05010113          	add	sp,sp,80
   17340:	00008067          	ret

00017344 <__gdtoa>:
   17344:	f4010113          	add	sp,sp,-192
   17348:	0b612023          	sw	s6,160(sp)
   1734c:	00072b03          	lw	s6,0(a4)
   17350:	0b212823          	sw	s2,176(sp)
   17354:	0a112e23          	sw	ra,188(sp)
   17358:	fcfb7313          	and	t1,s6,-49
   1735c:	00672023          	sw	t1,0(a4)
   17360:	00070913          	mv	s2,a4
   17364:	0c012703          	lw	a4,192(sp)
   17368:	00fb7313          	and	t1,s6,15
   1736c:	00300e13          	li	t3,3
   17370:	00e12423          	sw	a4,8(sp)
   17374:	00a12023          	sw	a0,0(sp)
   17378:	00c12823          	sw	a2,16(sp)
   1737c:	01012a23          	sw	a6,20(sp)
   17380:	01112223          	sw	a7,4(sp)
   17384:	7fc30663          	beq	t1,t3,17b70 <__gdtoa+0x82c>
   17388:	09812c23          	sw	s8,152(sp)
   1738c:	00cb7c13          	and	s8,s6,12
   17390:	720c1e63          	bnez	s8,17acc <__gdtoa+0x788>
   17394:	78030c63          	beqz	t1,17b2c <__gdtoa+0x7e8>
   17398:	0b512223          	sw	s5,164(sp)
   1739c:	0005aa83          	lw	s5,0(a1)
   173a0:	0b312623          	sw	s3,172(sp)
   173a4:	09a12823          	sw	s10,144(sp)
   173a8:	09b12623          	sw	s11,140(sp)
   173ac:	00068993          	mv	s3,a3
   173b0:	02000693          	li	a3,32
   173b4:	00058d93          	mv	s11,a1
   173b8:	00078d13          	mv	s10,a5
   173bc:	00000593          	li	a1,0
   173c0:	02000793          	li	a5,32
   173c4:	0156d863          	bge	a3,s5,173d4 <__gdtoa+0x90>
   173c8:	00179793          	sll	a5,a5,0x1
   173cc:	00158593          	add	a1,a1,1
   173d0:	ff57cce3          	blt	a5,s5,173c8 <__gdtoa+0x84>
   173d4:	00012503          	lw	a0,0(sp)
   173d8:	12c020ef          	jal	19504 <_Balloc>
   173dc:	00a12623          	sw	a0,12(sp)
   173e0:	3c0508e3          	beqz	a0,17fb0 <__gdtoa+0xc6c>
   173e4:	00c12783          	lw	a5,12(sp)
   173e8:	fffa8513          	add	a0,s5,-1
   173ec:	40555513          	sra	a0,a0,0x5
   173f0:	00251593          	sll	a1,a0,0x2
   173f4:	01478693          	add	a3,a5,20
   173f8:	0b412423          	sw	s4,168(sp)
   173fc:	09912a23          	sw	s9,148(sp)
   17400:	00b985b3          	add	a1,s3,a1
   17404:	00098793          	mv	a5,s3
   17408:	0007a703          	lw	a4,0(a5)
   1740c:	00478793          	add	a5,a5,4
   17410:	00468693          	add	a3,a3,4
   17414:	fee6ae23          	sw	a4,-4(a3)
   17418:	fef5f8e3          	bgeu	a1,a5,17408 <__gdtoa+0xc4>
   1741c:	00158593          	add	a1,a1,1
   17420:	00198793          	add	a5,s3,1
   17424:	00400693          	li	a3,4
   17428:	00f5e663          	bltu	a1,a5,17434 <__gdtoa+0xf0>
   1742c:	00251513          	sll	a0,a0,0x2
   17430:	00450693          	add	a3,a0,4
   17434:	00c12783          	lw	a5,12(sp)
   17438:	4026dc93          	sra	s9,a3,0x2
   1743c:	00d786b3          	add	a3,a5,a3
   17440:	00c0006f          	j	1744c <__gdtoa+0x108>
   17444:	ffc68693          	add	a3,a3,-4
   17448:	7a0c8063          	beqz	s9,17be8 <__gdtoa+0x8a4>
   1744c:	0106a783          	lw	a5,16(a3)
   17450:	000c8a13          	mv	s4,s9
   17454:	fffc8c93          	add	s9,s9,-1
   17458:	fe0786e3          	beqz	a5,17444 <__gdtoa+0x100>
   1745c:	00c12703          	lw	a4,12(sp)
   17460:	004c8793          	add	a5,s9,4
   17464:	00279793          	sll	a5,a5,0x2
   17468:	00f707b3          	add	a5,a4,a5
   1746c:	0047a503          	lw	a0,4(a5)
   17470:	01472823          	sw	s4,16(a4)
   17474:	005a1a13          	sll	s4,s4,0x5
   17478:	424020ef          	jal	1989c <__hi0bits>
   1747c:	40aa0cb3          	sub	s9,s4,a0
   17480:	00c12503          	lw	a0,12(sp)
   17484:	7ad010ef          	jal	19430 <__trailz_D2A>
   17488:	01012783          	lw	a5,16(sp)
   1748c:	06a12e23          	sw	a0,124(sp)
   17490:	02f12023          	sw	a5,32(sp)
   17494:	78051e63          	bnez	a0,17c30 <__gdtoa+0x8ec>
   17498:	00c12783          	lw	a5,12(sp)
   1749c:	0107a683          	lw	a3,16(a5)
   174a0:	66068463          	beqz	a3,17b08 <__gdtoa+0x7c4>
   174a4:	00c12503          	lw	a0,12(sp)
   174a8:	07c10593          	add	a1,sp,124
   174ac:	0a812c23          	sw	s0,184(sp)
   174b0:	0a912a23          	sw	s1,180(sp)
   174b4:	09712e23          	sw	s7,156(sp)
   174b8:	6b5020ef          	jal	1a36c <__b2d>
   174bc:	00c59a13          	sll	s4,a1,0xc
   174c0:	00ca5a13          	srl	s4,s4,0xc
   174c4:	3ff006b7          	lui	a3,0x3ff00
   174c8:	00da64b3          	or	s1,s4,a3
   174cc:	02012703          	lw	a4,32(sp)
   174d0:	0000c697          	auipc	a3,0xc
   174d4:	29868693          	add	a3,a3,664 # 23768 <__SDATA_BEGIN__>
   174d8:	0006a603          	lw	a2,0(a3)
   174dc:	0046a683          	lw	a3,4(a3)
   174e0:	01970733          	add	a4,a4,s9
   174e4:	00050793          	mv	a5,a0
   174e8:	00048593          	mv	a1,s1
   174ec:	fff70a13          	add	s4,a4,-1
   174f0:	04f12423          	sw	a5,72(sp)
   174f4:	00e12e23          	sw	a4,28(sp)
   174f8:	02a12c23          	sw	a0,56(sp)
   174fc:	63d060ef          	jal	1e338 <__subdf3>
   17500:	0000c697          	auipc	a3,0xc
   17504:	27068693          	add	a3,a3,624 # 23770 <__SDATA_BEGIN__+0x8>
   17508:	0006a603          	lw	a2,0(a3)
   1750c:	0046a683          	lw	a3,4(a3)
   17510:	778060ef          	jal	1dc88 <__muldf3>
   17514:	0000c697          	auipc	a3,0xc
   17518:	26468693          	add	a3,a3,612 # 23778 <__SDATA_BEGIN__+0x10>
   1751c:	0006a603          	lw	a2,0(a3)
   17520:	0046a683          	lw	a3,4(a3)
   17524:	5a8050ef          	jal	1cacc <__adddf3>
   17528:	00050b93          	mv	s7,a0
   1752c:	000a0513          	mv	a0,s4
   17530:	00058413          	mv	s0,a1
   17534:	62c070ef          	jal	1eb60 <__floatsidf>
   17538:	0000c697          	auipc	a3,0xc
   1753c:	24868693          	add	a3,a3,584 # 23780 <__SDATA_BEGIN__+0x18>
   17540:	0006a603          	lw	a2,0(a3)
   17544:	0046a683          	lw	a3,4(a3)
   17548:	740060ef          	jal	1dc88 <__muldf3>
   1754c:	00050613          	mv	a2,a0
   17550:	00058693          	mv	a3,a1
   17554:	000b8513          	mv	a0,s7
   17558:	00040593          	mv	a1,s0
   1755c:	570050ef          	jal	1cacc <__adddf3>
   17560:	00050b93          	mv	s7,a0
   17564:	00058413          	mv	s0,a1
   17568:	000a0513          	mv	a0,s4
   1756c:	000a5863          	bgez	s4,1757c <__gdtoa+0x238>
   17570:	01c12703          	lw	a4,28(sp)
   17574:	00100513          	li	a0,1
   17578:	40e50533          	sub	a0,a0,a4
   1757c:	bcb50513          	add	a0,a0,-1077
   17580:	02a05c63          	blez	a0,175b8 <__gdtoa+0x274>
   17584:	5dc070ef          	jal	1eb60 <__floatsidf>
   17588:	0000c697          	auipc	a3,0xc
   1758c:	20068693          	add	a3,a3,512 # 23788 <__SDATA_BEGIN__+0x20>
   17590:	0006a603          	lw	a2,0(a3)
   17594:	0046a683          	lw	a3,4(a3)
   17598:	6f0060ef          	jal	1dc88 <__muldf3>
   1759c:	00050613          	mv	a2,a0
   175a0:	00058693          	mv	a3,a1
   175a4:	000b8513          	mv	a0,s7
   175a8:	00040593          	mv	a1,s0
   175ac:	520050ef          	jal	1cacc <__adddf3>
   175b0:	00050b93          	mv	s7,a0
   175b4:	00058413          	mv	s0,a1
   175b8:	00040593          	mv	a1,s0
   175bc:	000b8513          	mv	a0,s7
   175c0:	520070ef          	jal	1eae0 <__fixdfsi>
   175c4:	00050813          	mv	a6,a0
   175c8:	00040593          	mv	a1,s0
   175cc:	000b8513          	mv	a0,s7
   175d0:	00000613          	li	a2,0
   175d4:	00000693          	li	a3,0
   175d8:	01012c23          	sw	a6,24(sp)
   175dc:	5d0060ef          	jal	1dbac <__ledf2>
   175e0:	02055463          	bgez	a0,17608 <__gdtoa+0x2c4>
   175e4:	01812503          	lw	a0,24(sp)
   175e8:	578070ef          	jal	1eb60 <__floatsidf>
   175ec:	000b8613          	mv	a2,s7
   175f0:	00040693          	mv	a3,s0
   175f4:	450060ef          	jal	1da44 <__eqdf2>
   175f8:	01812783          	lw	a5,24(sp)
   175fc:	00a03533          	snez	a0,a0
   17600:	40a787b3          	sub	a5,a5,a0
   17604:	00f12c23          	sw	a5,24(sp)
   17608:	014a1613          	sll	a2,s4,0x14
   1760c:	01812783          	lw	a5,24(sp)
   17610:	00960833          	add	a6,a2,s1
   17614:	414c8433          	sub	s0,s9,s4
   17618:	01600693          	li	a3,22
   1761c:	05012023          	sw	a6,64(sp)
   17620:	fff40b93          	add	s7,s0,-1
   17624:	5cf6e863          	bltu	a3,a5,17bf4 <__gdtoa+0x8b0>
   17628:	0000b317          	auipc	t1,0xb
   1762c:	d6830313          	add	t1,t1,-664 # 22390 <__mprec_tens>
   17630:	00379693          	sll	a3,a5,0x3
   17634:	00d306b3          	add	a3,t1,a3
   17638:	03812883          	lw	a7,56(sp)
   1763c:	0006a503          	lw	a0,0(a3)
   17640:	0046a583          	lw	a1,4(a3)
   17644:	00088613          	mv	a2,a7
   17648:	00080693          	mv	a3,a6
   1764c:	484060ef          	jal	1dad0 <__gedf2>
   17650:	1aa044e3          	bgtz	a0,17ff8 <__gdtoa+0xcb4>
   17654:	02012e23          	sw	zero,60(sp)
   17658:	02012223          	sw	zero,36(sp)
   1765c:	00804a63          	bgtz	s0,17670 <__gdtoa+0x32c>
   17660:	00100693          	li	a3,1
   17664:	408687b3          	sub	a5,a3,s0
   17668:	02f12223          	sw	a5,36(sp)
   1766c:	00000b93          	li	s7,0
   17670:	01812783          	lw	a5,24(sp)
   17674:	02012623          	sw	zero,44(sp)
   17678:	00fb8bb3          	add	s7,s7,a5
   1767c:	02f12823          	sw	a5,48(sp)
   17680:	00900693          	li	a3,9
   17684:	5da6e863          	bltu	a3,s10,17c54 <__gdtoa+0x910>
   17688:	00500693          	li	a3,5
   1768c:	19a6c0e3          	blt	a3,s10,1800c <__gdtoa+0xcc8>
   17690:	01c12783          	lw	a5,28(sp)
   17694:	00400613          	li	a2,4
   17698:	3fd78a13          	add	s4,a5,1021
   1769c:	7f8a3a13          	sltiu	s4,s4,2040
   176a0:	00cd1463          	bne	s10,a2,176a8 <__gdtoa+0x364>
   176a4:	0a00106f          	j	18744 <__gdtoa+0x1400>
   176a8:	00dd1463          	bne	s10,a3,176b0 <__gdtoa+0x36c>
   176ac:	08c0106f          	j	18738 <__gdtoa+0x13f4>
   176b0:	00200693          	li	a3,2
   176b4:	00dd1463          	bne	s10,a3,176bc <__gdtoa+0x378>
   176b8:	0980106f          	j	18750 <__gdtoa+0x140c>
   176bc:	00300693          	li	a3,3
   176c0:	02012a23          	sw	zero,52(sp)
   176c4:	5add1063          	bne	s10,a3,17c64 <__gdtoa+0x920>
   176c8:	03012783          	lw	a5,48(sp)
   176cc:	01412703          	lw	a4,20(sp)
   176d0:	00e787b3          	add	a5,a5,a4
   176d4:	04f12623          	sw	a5,76(sp)
   176d8:	00178793          	add	a5,a5,1
   176dc:	00f12e23          	sw	a5,28(sp)
   176e0:	62f058e3          	blez	a5,18510 <__gdtoa+0x11cc>
   176e4:	00078693          	mv	a3,a5
   176e8:	00078593          	mv	a1,a5
   176ec:	00012503          	lw	a0,0(sp)
   176f0:	06d12e23          	sw	a3,124(sp)
   176f4:	0cd010ef          	jal	18fc0 <__rv_alloc_D2A>
   176f8:	00050f13          	mv	t5,a0
   176fc:	4c050063          	beqz	a0,17bbc <__gdtoa+0x878>
   17700:	00cda783          	lw	a5,12(s11)
   17704:	fff78793          	add	a5,a5,-1
   17708:	02f12423          	sw	a5,40(sp)
   1770c:	5a078663          	beqz	a5,17cb8 <__gdtoa+0x974>
   17710:	0c07cee3          	bltz	a5,17fec <__gdtoa+0xca8>
   17714:	100b7e93          	and	t4,s6,256
   17718:	580e9863          	bnez	t4,17ca8 <__gdtoa+0x964>
   1771c:	02012783          	lw	a5,32(sp)
   17720:	0007c863          	bltz	a5,17730 <__gdtoa+0x3ec>
   17724:	03012783          	lw	a5,48(sp)
   17728:	00e00693          	li	a3,14
   1772c:	10f6d4e3          	bge	a3,a5,18034 <__gdtoa+0xcf0>
   17730:	03412783          	lw	a5,52(sp)
   17734:	0a0784e3          	beqz	a5,17fdc <__gdtoa+0xc98>
   17738:	02012783          	lw	a5,32(sp)
   1773c:	419a8e33          	sub	t3,s5,s9
   17740:	004da683          	lw	a3,4(s11)
   17744:	001e0613          	add	a2,t3,1
   17748:	06c12e23          	sw	a2,124(sp)
   1774c:	41c78e33          	sub	t3,a5,t3
   17750:	62de52e3          	bge	t3,a3,18574 <__gdtoa+0x1230>
   17754:	ffdd0613          	add	a2,s10,-3
   17758:	ffd67613          	and	a2,a2,-3
   1775c:	500604e3          	beqz	a2,18464 <__gdtoa+0x1120>
   17760:	40d786b3          	sub	a3,a5,a3
   17764:	00168693          	add	a3,a3,1
   17768:	06d12e23          	sw	a3,124(sp)
   1776c:	00100613          	li	a2,1
   17770:	01a65c63          	bge	a2,s10,17788 <__gdtoa+0x444>
   17774:	01c12783          	lw	a5,28(sp)
   17778:	00f05863          	blez	a5,17788 <__gdtoa+0x444>
   1777c:	01c12783          	lw	a5,28(sp)
   17780:	00d7d463          	bge	a5,a3,17788 <__gdtoa+0x444>
   17784:	6400106f          	j	18dc4 <__gdtoa+0x1a80>
   17788:	02412783          	lw	a5,36(sp)
   1778c:	02c12483          	lw	s1,44(sp)
   17790:	00db8bb3          	add	s7,s7,a3
   17794:	00078a93          	mv	s5,a5
   17798:	00f687b3          	add	a5,a3,a5
   1779c:	02f12223          	sw	a5,36(sp)
   177a0:	00012503          	lw	a0,0(sp)
   177a4:	00100593          	li	a1,1
   177a8:	03e12023          	sw	t5,32(sp)
   177ac:	248020ef          	jal	199f4 <__i2b>
   177b0:	02012f03          	lw	t5,32(sp)
   177b4:	00050a13          	mv	s4,a0
   177b8:	40050263          	beqz	a0,17bbc <__gdtoa+0x878>
   177bc:	020a8663          	beqz	s5,177e8 <__gdtoa+0x4a4>
   177c0:	03705463          	blez	s7,177e8 <__gdtoa+0x4a4>
   177c4:	000a8693          	mv	a3,s5
   177c8:	015bd463          	bge	s7,s5,177d0 <__gdtoa+0x48c>
   177cc:	000b8693          	mv	a3,s7
   177d0:	02412783          	lw	a5,36(sp)
   177d4:	06d12e23          	sw	a3,124(sp)
   177d8:	40da8ab3          	sub	s5,s5,a3
   177dc:	40d787b3          	sub	a5,a5,a3
   177e0:	02f12223          	sw	a5,36(sp)
   177e4:	40db8bb3          	sub	s7,s7,a3
   177e8:	02c12783          	lw	a5,44(sp)
   177ec:	02078863          	beqz	a5,1781c <__gdtoa+0x4d8>
   177f0:	03412783          	lw	a5,52(sp)
   177f4:	00078463          	beqz	a5,177fc <__gdtoa+0x4b8>
   177f8:	660490e3          	bnez	s1,18658 <__gdtoa+0x1314>
   177fc:	02c12603          	lw	a2,44(sp)
   17800:	00c12583          	lw	a1,12(sp)
   17804:	00012503          	lw	a0,0(sp)
   17808:	03e12023          	sw	t5,32(sp)
   1780c:	560020ef          	jal	19d6c <__pow5mult>
   17810:	00a12623          	sw	a0,12(sp)
   17814:	02012f03          	lw	t5,32(sp)
   17818:	3a050263          	beqz	a0,17bbc <__gdtoa+0x878>
   1781c:	00012503          	lw	a0,0(sp)
   17820:	00100593          	li	a1,1
   17824:	03e12023          	sw	t5,32(sp)
   17828:	1cc020ef          	jal	199f4 <__i2b>
   1782c:	00050313          	mv	t1,a0
   17830:	38050663          	beqz	a0,17bbc <__gdtoa+0x878>
   17834:	01812783          	lw	a5,24(sp)
   17838:	02012f03          	lw	t5,32(sp)
   1783c:	4e0790e3          	bnez	a5,1851c <__gdtoa+0x11d8>
   17840:	00100693          	li	a3,1
   17844:	1da6d0e3          	bge	a3,s10,18204 <__gdtoa+0xec0>
   17848:	01f00b13          	li	s6,31
   1784c:	02412783          	lw	a5,36(sp)
   17850:	417b0b33          	sub	s6,s6,s7
   17854:	ffcb0b13          	add	s6,s6,-4
   17858:	01fb7b13          	and	s6,s6,31
   1785c:	00fb0633          	add	a2,s6,a5
   17860:	07612e23          	sw	s6,124(sp)
   17864:	000b0793          	mv	a5,s6
   17868:	2ac044e3          	bgtz	a2,18310 <__gdtoa+0xfcc>
   1786c:	00fb8633          	add	a2,s7,a5
   17870:	32c04863          	bgtz	a2,17ba0 <__gdtoa+0x85c>
   17874:	03c12783          	lw	a5,60(sp)
   17878:	2c0792e3          	bnez	a5,1833c <__gdtoa+0xff8>
   1787c:	01c12783          	lw	a5,28(sp)
   17880:	40f058e3          	blez	a5,18490 <__gdtoa+0x114c>
   17884:	03412783          	lw	a5,52(sp)
   17888:	30078ee3          	beqz	a5,183a4 <__gdtoa+0x1060>
   1788c:	015b0633          	add	a2,s6,s5
   17890:	66c048e3          	bgtz	a2,18700 <__gdtoa+0x13bc>
   17894:	01812783          	lw	a5,24(sp)
   17898:	000a0a93          	mv	s5,s4
   1789c:	00078463          	beqz	a5,178a4 <__gdtoa+0x560>
   178a0:	6e50006f          	j	18784 <__gdtoa+0x1440>
   178a4:	01212a23          	sw	s2,20(sp)
   178a8:	00c12483          	lw	s1,12(sp)
   178ac:	00012903          	lw	s2,0(sp)
   178b0:	000f0d93          	mv	s11,t5
   178b4:	00100793          	li	a5,1
   178b8:	00200413          	li	s0,2
   178bc:	00030c13          	mv	s8,t1
   178c0:	01e12823          	sw	t5,16(sp)
   178c4:	0b00006f          	j	17974 <__gdtoa+0x630>
   178c8:	00090513          	mv	a0,s2
   178cc:	4ed010ef          	jal	195b8 <_Bfree>
   178d0:	000b5463          	bgez	s6,178d8 <__gdtoa+0x594>
   178d4:	06c0106f          	j	18940 <__gdtoa+0x15fc>
   178d8:	016d6b33          	or	s6,s10,s6
   178dc:	000b1a63          	bnez	s6,178f0 <__gdtoa+0x5ac>
   178e0:	0009a783          	lw	a5,0(s3)
   178e4:	0017f793          	and	a5,a5,1
   178e8:	00079463          	bnez	a5,178f0 <__gdtoa+0x5ac>
   178ec:	0540106f          	j	18940 <__gdtoa+0x15fc>
   178f0:	02812783          	lw	a5,40(sp)
   178f4:	00878463          	beq	a5,s0,178fc <__gdtoa+0x5b8>
   178f8:	3c80106f          	j	18cc0 <__gdtoa+0x197c>
   178fc:	019d8023          	sb	s9,0(s11)
   17900:	07c12783          	lw	a5,124(sp)
   17904:	01c12703          	lw	a4,28(sp)
   17908:	001d8d93          	add	s11,s11,1
   1790c:	00f71463          	bne	a4,a5,17914 <__gdtoa+0x5d0>
   17910:	2d40106f          	j	18be4 <__gdtoa+0x18a0>
   17914:	00048593          	mv	a1,s1
   17918:	00000693          	li	a3,0
   1791c:	00a00613          	li	a2,10
   17920:	00090513          	mv	a0,s2
   17924:	4b9010ef          	jal	195dc <__multadd>
   17928:	00050493          	mv	s1,a0
   1792c:	28050863          	beqz	a0,17bbc <__gdtoa+0x878>
   17930:	00000693          	li	a3,0
   17934:	00a00613          	li	a2,10
   17938:	000a0593          	mv	a1,s4
   1793c:	00090513          	mv	a0,s2
   17940:	135a00e3          	beq	s4,s5,18260 <__gdtoa+0xf1c>
   17944:	499010ef          	jal	195dc <__multadd>
   17948:	00050a13          	mv	s4,a0
   1794c:	26050863          	beqz	a0,17bbc <__gdtoa+0x878>
   17950:	000a8593          	mv	a1,s5
   17954:	00000693          	li	a3,0
   17958:	00a00613          	li	a2,10
   1795c:	00090513          	mv	a0,s2
   17960:	47d010ef          	jal	195dc <__multadd>
   17964:	00050a93          	mv	s5,a0
   17968:	24050a63          	beqz	a0,17bbc <__gdtoa+0x878>
   1796c:	07c12783          	lw	a5,124(sp)
   17970:	00178793          	add	a5,a5,1
   17974:	000c0593          	mv	a1,s8
   17978:	00048513          	mv	a0,s1
   1797c:	06f12e23          	sw	a5,124(sp)
   17980:	75c010ef          	jal	190dc <__quorem_D2A>
   17984:	00050b93          	mv	s7,a0
   17988:	000a0593          	mv	a1,s4
   1798c:	00048513          	mv	a0,s1
   17990:	6bc020ef          	jal	1a04c <__mcmp>
   17994:	000c0593          	mv	a1,s8
   17998:	00050b13          	mv	s6,a0
   1799c:	000a8613          	mv	a2,s5
   179a0:	00090513          	mv	a0,s2
   179a4:	700020ef          	jal	1a0a4 <__mdiff>
   179a8:	030b8c93          	add	s9,s7,48
   179ac:	00050593          	mv	a1,a0
   179b0:	20050663          	beqz	a0,17bbc <__gdtoa+0x878>
   179b4:	00c52783          	lw	a5,12(a0)
   179b8:	f00798e3          	bnez	a5,178c8 <__gdtoa+0x584>
   179bc:	00a12623          	sw	a0,12(sp)
   179c0:	00048513          	mv	a0,s1
   179c4:	688020ef          	jal	1a04c <__mcmp>
   179c8:	00c12583          	lw	a1,12(sp)
   179cc:	00050693          	mv	a3,a0
   179d0:	00090513          	mv	a0,s2
   179d4:	00d12623          	sw	a3,12(sp)
   179d8:	3e1010ef          	jal	195b8 <_Bfree>
   179dc:	00c12683          	lw	a3,12(sp)
   179e0:	00dd6733          	or	a4,s10,a3
   179e4:	00070463          	beqz	a4,179ec <__gdtoa+0x6a8>
   179e8:	5680106f          	j	18f50 <__gdtoa+0x1c0c>
   179ec:	0009a783          	lw	a5,0(s3)
   179f0:	0017f793          	and	a5,a5,1
   179f4:	080790e3          	bnez	a5,18274 <__gdtoa+0xf30>
   179f8:	02812783          	lw	a5,40(sp)
   179fc:	00079463          	bnez	a5,17a04 <__gdtoa+0x6c0>
   17a00:	4280106f          	j	18e28 <__gdtoa+0x1ae4>
   17a04:	ef604ce3          	bgtz	s6,178fc <__gdtoa+0x5b8>
   17a08:	0104a603          	lw	a2,16(s1)
   17a0c:	00912623          	sw	s1,12(sp)
   17a10:	00100693          	li	a3,1
   17a14:	000c0313          	mv	t1,s8
   17a18:	01012f03          	lw	t5,16(sp)
   17a1c:	01412903          	lw	s2,20(sp)
   17a20:	00070c13          	mv	s8,a4
   17a24:	00048793          	mv	a5,s1
   17a28:	00c6c463          	blt	a3,a2,17a30 <__gdtoa+0x6ec>
   17a2c:	4ec0106f          	j	18f18 <__gdtoa+0x1bd4>
   17a30:	02812783          	lw	a5,40(sp)
   17a34:	00200693          	li	a3,2
   17a38:	00d79463          	bne	a5,a3,17a40 <__gdtoa+0x6fc>
   17a3c:	4ac0106f          	j	18ee8 <__gdtoa+0x1ba4>
   17a40:	00c12483          	lw	s1,12(sp)
   17a44:	00012b83          	lw	s7,0(sp)
   17a48:	00030b13          	mv	s6,t1
   17a4c:	000f0c13          	mv	s8,t5
   17a50:	0240006f          	j	17a74 <__gdtoa+0x730>
   17a54:	389010ef          	jal	195dc <__multadd>
   17a58:	000b0593          	mv	a1,s6
   17a5c:	00050493          	mv	s1,a0
   17a60:	14050e63          	beqz	a0,17bbc <__gdtoa+0x878>
   17a64:	678010ef          	jal	190dc <__quorem_D2A>
   17a68:	03050c93          	add	s9,a0,48
   17a6c:	00098d93          	mv	s11,s3
   17a70:	00040a93          	mv	s5,s0
   17a74:	000a8593          	mv	a1,s5
   17a78:	000b0513          	mv	a0,s6
   17a7c:	5d0020ef          	jal	1a04c <__mcmp>
   17a80:	00050793          	mv	a5,a0
   17a84:	00000693          	li	a3,0
   17a88:	00a00613          	li	a2,10
   17a8c:	000a8593          	mv	a1,s5
   17a90:	000b8513          	mv	a0,s7
   17a94:	001d8993          	add	s3,s11,1
   17a98:	00f04463          	bgtz	a5,17aa0 <__gdtoa+0x75c>
   17a9c:	42c0106f          	j	18ec8 <__gdtoa+0x1b84>
   17aa0:	ff998fa3          	sb	s9,-1(s3)
   17aa4:	339010ef          	jal	195dc <__multadd>
   17aa8:	00050413          	mv	s0,a0
   17aac:	00000693          	li	a3,0
   17ab0:	00a00613          	li	a2,10
   17ab4:	00048593          	mv	a1,s1
   17ab8:	000b8513          	mv	a0,s7
   17abc:	10040063          	beqz	s0,17bbc <__gdtoa+0x878>
   17ac0:	f95a1ae3          	bne	s4,s5,17a54 <__gdtoa+0x710>
   17ac4:	00040a13          	mv	s4,s0
   17ac8:	f8dff06f          	j	17a54 <__gdtoa+0x710>
   17acc:	00400793          	li	a5,4
   17ad0:	10f31863          	bne	t1,a5,17be0 <__gdtoa+0x89c>
   17ad4:	00412703          	lw	a4,4(sp)
   17ad8:	00812603          	lw	a2,8(sp)
   17adc:	09812c03          	lw	s8,152(sp)
   17ae0:	0bc12083          	lw	ra,188(sp)
   17ae4:	0b012903          	lw	s2,176(sp)
   17ae8:	0a012b03          	lw	s6,160(sp)
   17aec:	ffff87b7          	lui	a5,0xffff8
   17af0:	00f72023          	sw	a5,0(a4)
   17af4:	00300693          	li	a3,3
   17af8:	0000a597          	auipc	a1,0xa
   17afc:	35c58593          	add	a1,a1,860 # 21e54 <__clzsi2+0xd4>
   17b00:	0c010113          	add	sp,sp,192
   17b04:	50c0106f          	j	19010 <__nrv_alloc_D2A>
   17b08:	00012503          	lw	a0,0(sp)
   17b0c:	00078593          	mv	a1,a5
   17b10:	2a9010ef          	jal	195b8 <_Bfree>
   17b14:	0ac12983          	lw	s3,172(sp)
   17b18:	0a812a03          	lw	s4,168(sp)
   17b1c:	0a412a83          	lw	s5,164(sp)
   17b20:	09412c83          	lw	s9,148(sp)
   17b24:	09012d03          	lw	s10,144(sp)
   17b28:	08c12d83          	lw	s11,140(sp)
   17b2c:	00412703          	lw	a4,4(sp)
   17b30:	00812603          	lw	a2,8(sp)
   17b34:	00012503          	lw	a0,0(sp)
   17b38:	00100793          	li	a5,1
   17b3c:	00f72023          	sw	a5,0(a4)
   17b40:	00100693          	li	a3,1
   17b44:	0000a597          	auipc	a1,0xa
   17b48:	2f058593          	add	a1,a1,752 # 21e34 <__clzsi2+0xb4>
   17b4c:	4c4010ef          	jal	19010 <__nrv_alloc_D2A>
   17b50:	00050f13          	mv	t5,a0
   17b54:	0bc12083          	lw	ra,188(sp)
   17b58:	09812c03          	lw	s8,152(sp)
   17b5c:	0b012903          	lw	s2,176(sp)
   17b60:	0a012b03          	lw	s6,160(sp)
   17b64:	000f0513          	mv	a0,t5
   17b68:	0c010113          	add	sp,sp,192
   17b6c:	00008067          	ret
   17b70:	00412703          	lw	a4,4(sp)
   17b74:	00812603          	lw	a2,8(sp)
   17b78:	0bc12083          	lw	ra,188(sp)
   17b7c:	0b012903          	lw	s2,176(sp)
   17b80:	0a012b03          	lw	s6,160(sp)
   17b84:	ffff87b7          	lui	a5,0xffff8
   17b88:	00f72023          	sw	a5,0(a4)
   17b8c:	00800693          	li	a3,8
   17b90:	0000a597          	auipc	a1,0xa
   17b94:	2b858593          	add	a1,a1,696 # 21e48 <__clzsi2+0xc8>
   17b98:	0c010113          	add	sp,sp,192
   17b9c:	4740106f          	j	19010 <__nrv_alloc_D2A>
   17ba0:	00012503          	lw	a0,0(sp)
   17ba4:	00030593          	mv	a1,t1
   17ba8:	01e12823          	sw	t5,16(sp)
   17bac:	310020ef          	jal	19ebc <__lshift>
   17bb0:	01012f03          	lw	t5,16(sp)
   17bb4:	00050313          	mv	t1,a0
   17bb8:	ca051ee3          	bnez	a0,17874 <__gdtoa+0x530>
   17bbc:	0b812403          	lw	s0,184(sp)
   17bc0:	0b412483          	lw	s1,180(sp)
   17bc4:	0ac12983          	lw	s3,172(sp)
   17bc8:	0a812a03          	lw	s4,168(sp)
   17bcc:	0a412a83          	lw	s5,164(sp)
   17bd0:	09c12b83          	lw	s7,156(sp)
   17bd4:	09412c83          	lw	s9,148(sp)
   17bd8:	09012d03          	lw	s10,144(sp)
   17bdc:	08c12d83          	lw	s11,140(sp)
   17be0:	00000f13          	li	t5,0
   17be4:	f71ff06f          	j	17b54 <__gdtoa+0x810>
   17be8:	00c12783          	lw	a5,12(sp)
   17bec:	0007a823          	sw	zero,16(a5) # ffff8010 <__BSS_END__+0xfffd44f0>
   17bf0:	891ff06f          	j	17480 <__gdtoa+0x13c>
   17bf4:	00100793          	li	a5,1
   17bf8:	02f12e23          	sw	a5,60(sp)
   17bfc:	02012223          	sw	zero,36(sp)
   17c00:	3c0bc463          	bltz	s7,17fc8 <__gdtoa+0xc84>
   17c04:	01812783          	lw	a5,24(sp)
   17c08:	a607d4e3          	bgez	a5,17670 <__gdtoa+0x32c>
   17c0c:	01812783          	lw	a5,24(sp)
   17c10:	02412703          	lw	a4,36(sp)
   17c14:	00012c23          	sw	zero,24(sp)
   17c18:	02f12823          	sw	a5,48(sp)
   17c1c:	40f70733          	sub	a4,a4,a5
   17c20:	02e12223          	sw	a4,36(sp)
   17c24:	40f00733          	neg	a4,a5
   17c28:	02e12623          	sw	a4,44(sp)
   17c2c:	a55ff06f          	j	17680 <__gdtoa+0x33c>
   17c30:	00050593          	mv	a1,a0
   17c34:	00c12503          	lw	a0,12(sp)
   17c38:	714010ef          	jal	1934c <__rshift_D2A>
   17c3c:	07c12683          	lw	a3,124(sp)
   17c40:	01012783          	lw	a5,16(sp)
   17c44:	40dc8cb3          	sub	s9,s9,a3
   17c48:	00f687b3          	add	a5,a3,a5
   17c4c:	02f12023          	sw	a5,32(sp)
   17c50:	849ff06f          	j	17498 <__gdtoa+0x154>
   17c54:	01c12783          	lw	a5,28(sp)
   17c58:	00000d13          	li	s10,0
   17c5c:	3fd78793          	add	a5,a5,1021
   17c60:	7f87ba13          	sltiu	s4,a5,2040
   17c64:	000a8513          	mv	a0,s5
   17c68:	6f9060ef          	jal	1eb60 <__floatsidf>
   17c6c:	0000c697          	auipc	a3,0xc
   17c70:	b2468693          	add	a3,a3,-1244 # 23790 <__SDATA_BEGIN__+0x28>
   17c74:	0006a603          	lw	a2,0(a3)
   17c78:	0046a683          	lw	a3,4(a3)
   17c7c:	00c060ef          	jal	1dc88 <__muldf3>
   17c80:	661060ef          	jal	1eae0 <__fixdfsi>
   17c84:	00100793          	li	a5,1
   17c88:	00350593          	add	a1,a0,3
   17c8c:	02f12a23          	sw	a5,52(sp)
   17c90:	fff00793          	li	a5,-1
   17c94:	00058693          	mv	a3,a1
   17c98:	00012a23          	sw	zero,20(sp)
   17c9c:	04f12623          	sw	a5,76(sp)
   17ca0:	00f12e23          	sw	a5,28(sp)
   17ca4:	a49ff06f          	j	176ec <__gdtoa+0x3a8>
   17ca8:	02812783          	lw	a5,40(sp)
   17cac:	00300693          	li	a3,3
   17cb0:	40f687b3          	sub	a5,a3,a5
   17cb4:	02f12423          	sw	a5,40(sp)
   17cb8:	01c12483          	lw	s1,28(sp)
   17cbc:	00e00693          	li	a3,14
   17cc0:	a496eee3          	bltu	a3,s1,1771c <__gdtoa+0x3d8>
   17cc4:	a40a0ce3          	beqz	s4,1771c <__gdtoa+0x3d8>
   17cc8:	03012783          	lw	a5,48(sp)
   17ccc:	02812703          	lw	a4,40(sp)
   17cd0:	00e7e6b3          	or	a3,a5,a4
   17cd4:	a40694e3          	bnez	a3,1771c <__gdtoa+0x3d8>
   17cd8:	03812403          	lw	s0,56(sp)
   17cdc:	04012a03          	lw	s4,64(sp)
   17ce0:	03c12783          	lw	a5,60(sp)
   17ce4:	06012e23          	sw	zero,124(sp)
   17ce8:	02812423          	sw	s0,40(sp)
   17cec:	03412c23          	sw	s4,56(sp)
   17cf0:	02078863          	beqz	a5,17d20 <__gdtoa+0x9dc>
   17cf4:	0000c697          	auipc	a3,0xc
   17cf8:	aa468693          	add	a3,a3,-1372 # 23798 <__SDATA_BEGIN__+0x30>
   17cfc:	0006a603          	lw	a2,0(a3)
   17d00:	0046a683          	lw	a3,4(a3)
   17d04:	00040513          	mv	a0,s0
   17d08:	000a0593          	mv	a1,s4
   17d0c:	05e12823          	sw	t5,80(sp)
   17d10:	69d050ef          	jal	1dbac <__ledf2>
   17d14:	05012f03          	lw	t5,80(sp)
   17d18:	00055463          	bgez	a0,17d20 <__gdtoa+0x9dc>
   17d1c:	6ed0006f          	j	18c08 <__gdtoa+0x18c4>
   17d20:	02812783          	lw	a5,40(sp)
   17d24:	05e12823          	sw	t5,80(sp)
   17d28:	00078613          	mv	a2,a5
   17d2c:	00078513          	mv	a0,a5
   17d30:	03812783          	lw	a5,56(sp)
   17d34:	00078693          	mv	a3,a5
   17d38:	00078593          	mv	a1,a5
   17d3c:	591040ef          	jal	1cacc <__adddf3>
   17d40:	0000c697          	auipc	a3,0xc
   17d44:	a7068693          	add	a3,a3,-1424 # 237b0 <__SDATA_BEGIN__+0x48>
   17d48:	0006a603          	lw	a2,0(a3)
   17d4c:	0046a683          	lw	a3,4(a3)
   17d50:	57d040ef          	jal	1cacc <__adddf3>
   17d54:	01c12783          	lw	a5,28(sp)
   17d58:	fcc00737          	lui	a4,0xfcc00
   17d5c:	05012f03          	lw	t5,80(sp)
   17d60:	00050b13          	mv	s6,a0
   17d64:	00b70a33          	add	s4,a4,a1
   17d68:	2a078ce3          	beqz	a5,18820 <__gdtoa+0x14dc>
   17d6c:	01c12783          	lw	a5,28(sp)
   17d70:	02812e83          	lw	t4,40(sp)
   17d74:	03812803          	lw	a6,56(sp)
   17d78:	04012a23          	sw	zero,84(sp)
   17d7c:	04f12823          	sw	a5,80(sp)
   17d80:	05012783          	lw	a5,80(sp)
   17d84:	03412703          	lw	a4,52(sp)
   17d88:	0000a317          	auipc	t1,0xa
   17d8c:	60830313          	add	t1,t1,1544 # 22390 <__mprec_tens>
   17d90:	fff78693          	add	a3,a5,-1
   17d94:	00369693          	sll	a3,a3,0x3
   17d98:	00d306b3          	add	a3,t1,a3
   17d9c:	05012e23          	sw	a6,92(sp)
   17da0:	05d12c23          	sw	t4,88(sp)
   17da4:	0006a603          	lw	a2,0(a3)
   17da8:	000b0493          	mv	s1,s6
   17dac:	0046a683          	lw	a3,4(a3)
   17db0:	480704e3          	beqz	a4,18a38 <__gdtoa+0x16f4>
   17db4:	0000c597          	auipc	a1,0xc
   17db8:	a0c58593          	add	a1,a1,-1524 # 237c0 <__SDATA_BEGIN__+0x58>
   17dbc:	0005a503          	lw	a0,0(a1)
   17dc0:	0045a583          	lw	a1,4(a1)
   17dc4:	06612423          	sw	t1,104(sp)
   17dc8:	001f0b13          	add	s6,t5,1
   17dcc:	07e12023          	sw	t5,96(sp)
   17dd0:	490050ef          	jal	1d260 <__divdf3>
   17dd4:	00048613          	mv	a2,s1
   17dd8:	000a0693          	mv	a3,s4
   17ddc:	55c060ef          	jal	1e338 <__subdf3>
   17de0:	05812e83          	lw	t4,88(sp)
   17de4:	05c12803          	lw	a6,92(sp)
   17de8:	00050613          	mv	a2,a0
   17dec:	00058693          	mv	a3,a1
   17df0:	000e8513          	mv	a0,t4
   17df4:	00080593          	mv	a1,a6
   17df8:	05d12423          	sw	t4,72(sp)
   17dfc:	05012023          	sw	a6,64(sp)
   17e00:	04c12c23          	sw	a2,88(sp)
   17e04:	04d12e23          	sw	a3,92(sp)
   17e08:	4d9060ef          	jal	1eae0 <__fixdfsi>
   17e0c:	00050413          	mv	s0,a0
   17e10:	551060ef          	jal	1eb60 <__floatsidf>
   17e14:	04012803          	lw	a6,64(sp)
   17e18:	04812e83          	lw	t4,72(sp)
   17e1c:	00050613          	mv	a2,a0
   17e20:	00058693          	mv	a3,a1
   17e24:	000e8513          	mv	a0,t4
   17e28:	00080593          	mv	a1,a6
   17e2c:	50c060ef          	jal	1e338 <__subdf3>
   17e30:	06012f03          	lw	t5,96(sp)
   17e34:	00050613          	mv	a2,a0
   17e38:	00058693          	mv	a3,a1
   17e3c:	00050493          	mv	s1,a0
   17e40:	00058a13          	mv	s4,a1
   17e44:	05812503          	lw	a0,88(sp)
   17e48:	05c12583          	lw	a1,92(sp)
   17e4c:	03040793          	add	a5,s0,48
   17e50:	00ff0023          	sb	a5,0(t5)
   17e54:	05e12023          	sw	t5,64(sp)
   17e58:	479050ef          	jal	1dad0 <__gedf2>
   17e5c:	04012f03          	lw	t5,64(sp)
   17e60:	00a05463          	blez	a0,17e68 <__gdtoa+0xb24>
   17e64:	71d0006f          	j	18d80 <__gdtoa+0x1a3c>
   17e68:	0000c697          	auipc	a3,0xc
   17e6c:	93068693          	add	a3,a3,-1744 # 23798 <__SDATA_BEGIN__+0x30>
   17e70:	0006a783          	lw	a5,0(a3)
   17e74:	0046a803          	lw	a6,4(a3)
   17e78:	07712023          	sw	s7,96(sp)
   17e7c:	07512223          	sw	s5,100(sp)
   17e80:	05012b83          	lw	s7,80(sp)
   17e84:	05812403          	lw	s0,88(sp)
   17e88:	05c12a83          	lw	s5,92(sp)
   17e8c:	04f12023          	sw	a5,64(sp)
   17e90:	05012223          	sw	a6,68(sp)
   17e94:	05e12423          	sw	t5,72(sp)
   17e98:	05212823          	sw	s2,80(sp)
   17e9c:	0940006f          	j	17f30 <__gdtoa+0xbec>
   17ea0:	07c12783          	lw	a5,124(sp)
   17ea4:	00178793          	add	a5,a5,1
   17ea8:	06f12e23          	sw	a5,124(sp)
   17eac:	0177c463          	blt	a5,s7,17eb4 <__gdtoa+0xb70>
   17eb0:	7450006f          	j	18df4 <__gdtoa+0x1ab0>
   17eb4:	0000c917          	auipc	s2,0xc
   17eb8:	8ec90913          	add	s2,s2,-1812 # 237a0 <__SDATA_BEGIN__+0x38>
   17ebc:	00092603          	lw	a2,0(s2)
   17ec0:	00492683          	lw	a3,4(s2)
   17ec4:	001b0b13          	add	s6,s6,1
   17ec8:	5c1050ef          	jal	1dc88 <__muldf3>
   17ecc:	00092603          	lw	a2,0(s2)
   17ed0:	00492683          	lw	a3,4(s2)
   17ed4:	00050413          	mv	s0,a0
   17ed8:	00058a93          	mv	s5,a1
   17edc:	00048513          	mv	a0,s1
   17ee0:	000a0593          	mv	a1,s4
   17ee4:	5a5050ef          	jal	1dc88 <__muldf3>
   17ee8:	00058a13          	mv	s4,a1
   17eec:	00050913          	mv	s2,a0
   17ef0:	3f1060ef          	jal	1eae0 <__fixdfsi>
   17ef4:	00050493          	mv	s1,a0
   17ef8:	469060ef          	jal	1eb60 <__floatsidf>
   17efc:	00050613          	mv	a2,a0
   17f00:	00058693          	mv	a3,a1
   17f04:	00090513          	mv	a0,s2
   17f08:	000a0593          	mv	a1,s4
   17f0c:	42c060ef          	jal	1e338 <__subdf3>
   17f10:	03048793          	add	a5,s1,48
   17f14:	00040613          	mv	a2,s0
   17f18:	000a8693          	mv	a3,s5
   17f1c:	fefb0fa3          	sb	a5,-1(s6)
   17f20:	00050493          	mv	s1,a0
   17f24:	00058a13          	mv	s4,a1
   17f28:	485050ef          	jal	1dbac <__ledf2>
   17f2c:	640546e3          	bltz	a0,18d78 <__gdtoa+0x1a34>
   17f30:	04012503          	lw	a0,64(sp)
   17f34:	04412583          	lw	a1,68(sp)
   17f38:	00048613          	mv	a2,s1
   17f3c:	000a0693          	mv	a3,s4
   17f40:	3f8060ef          	jal	1e338 <__subdf3>
   17f44:	00050613          	mv	a2,a0
   17f48:	00058693          	mv	a3,a1
   17f4c:	00040513          	mv	a0,s0
   17f50:	000a8593          	mv	a1,s5
   17f54:	37d050ef          	jal	1dad0 <__gedf2>
   17f58:	00050793          	mv	a5,a0
   17f5c:	000a8593          	mv	a1,s5
   17f60:	00040513          	mv	a0,s0
   17f64:	f2f05ee3          	blez	a5,17ea0 <__gdtoa+0xb5c>
   17f68:	05412783          	lw	a5,84(sp)
   17f6c:	04812f03          	lw	t5,72(sp)
   17f70:	05012903          	lw	s2,80(sp)
   17f74:	fffb4703          	lbu	a4,-1(s6)
   17f78:	00178413          	add	s0,a5,1
   17f7c:	03900693          	li	a3,57
   17f80:	0100006f          	j	17f90 <__gdtoa+0xc4c>
   17f84:	2aff04e3          	beq	t5,a5,18a2c <__gdtoa+0x16e8>
   17f88:	fff7c703          	lbu	a4,-1(a5)
   17f8c:	00078b13          	mv	s6,a5
   17f90:	fffb0793          	add	a5,s6,-1
   17f94:	fed708e3          	beq	a4,a3,17f84 <__gdtoa+0xc40>
   17f98:	00170693          	add	a3,a4,1 # fcc00001 <__BSS_END__+0xfcbdc4e1>
   17f9c:	0ff6f693          	zext.b	a3,a3
   17fa0:	00d78023          	sb	a3,0(a5)
   17fa4:	00040493          	mv	s1,s0
   17fa8:	02000c13          	li	s8,32
   17fac:	1f80006f          	j	181a4 <__gdtoa+0xe60>
   17fb0:	0ac12983          	lw	s3,172(sp)
   17fb4:	0a412a83          	lw	s5,164(sp)
   17fb8:	09012d03          	lw	s10,144(sp)
   17fbc:	08c12d83          	lw	s11,140(sp)
   17fc0:	00000f13          	li	t5,0
   17fc4:	b91ff06f          	j	17b54 <__gdtoa+0x810>
   17fc8:	00100693          	li	a3,1
   17fcc:	408687b3          	sub	a5,a3,s0
   17fd0:	02f12223          	sw	a5,36(sp)
   17fd4:	00000b93          	li	s7,0
   17fd8:	c2dff06f          	j	17c04 <__gdtoa+0x8c0>
   17fdc:	02c12483          	lw	s1,44(sp)
   17fe0:	02412a83          	lw	s5,36(sp)
   17fe4:	00000a13          	li	s4,0
   17fe8:	fd4ff06f          	j	177bc <__gdtoa+0x478>
   17fec:	00200793          	li	a5,2
   17ff0:	02f12423          	sw	a5,40(sp)
   17ff4:	f20ff06f          	j	17714 <__gdtoa+0x3d0>
   17ff8:	01812783          	lw	a5,24(sp)
   17ffc:	02012e23          	sw	zero,60(sp)
   18000:	fff78793          	add	a5,a5,-1
   18004:	00f12c23          	sw	a5,24(sp)
   18008:	bf5ff06f          	j	17bfc <__gdtoa+0x8b8>
   1800c:	ffcd0d13          	add	s10,s10,-4
   18010:	00400613          	li	a2,4
   18014:	22cd0063          	beq	s10,a2,18234 <__gdtoa+0xef0>
   18018:	70dd0863          	beq	s10,a3,18728 <__gdtoa+0x13e4>
   1801c:	00200693          	li	a3,2
   18020:	02012a23          	sw	zero,52(sp)
   18024:	00000a13          	li	s4,0
   18028:	20dd0c63          	beq	s10,a3,18240 <__gdtoa+0xefc>
   1802c:	00300d13          	li	s10,3
   18030:	e98ff06f          	j	176c8 <__gdtoa+0x384>
   18034:	00379693          	sll	a3,a5,0x3
   18038:	0000a797          	auipc	a5,0xa
   1803c:	35878793          	add	a5,a5,856 # 22390 <__mprec_tens>
   18040:	00d787b3          	add	a5,a5,a3
   18044:	0007ad03          	lw	s10,0(a5)
   18048:	0047ad83          	lw	s11,4(a5)
   1804c:	01412783          	lw	a5,20(sp)
   18050:	5607c463          	bltz	a5,185b8 <__gdtoa+0x1274>
   18054:	04812403          	lw	s0,72(sp)
   18058:	04012a03          	lw	s4,64(sp)
   1805c:	00100793          	li	a5,1
   18060:	000d0613          	mv	a2,s10
   18064:	000d8693          	mv	a3,s11
   18068:	00040513          	mv	a0,s0
   1806c:	000a0593          	mv	a1,s4
   18070:	01e12823          	sw	t5,16(sp)
   18074:	06f12e23          	sw	a5,124(sp)
   18078:	1e8050ef          	jal	1d260 <__divdf3>
   1807c:	265060ef          	jal	1eae0 <__fixdfsi>
   18080:	00050993          	mv	s3,a0
   18084:	2dd060ef          	jal	1eb60 <__floatsidf>
   18088:	000d0613          	mv	a2,s10
   1808c:	000d8693          	mv	a3,s11
   18090:	3f9050ef          	jal	1dc88 <__muldf3>
   18094:	00050613          	mv	a2,a0
   18098:	00058693          	mv	a3,a1
   1809c:	00040513          	mv	a0,s0
   180a0:	000a0593          	mv	a1,s4
   180a4:	294060ef          	jal	1e338 <__subdf3>
   180a8:	01012f03          	lw	t5,16(sp)
   180ac:	03012703          	lw	a4,48(sp)
   180b0:	03098793          	add	a5,s3,48
   180b4:	00ff0023          	sb	a5,0(t5)
   180b8:	00000613          	li	a2,0
   180bc:	00000693          	li	a3,0
   180c0:	00170413          	add	s0,a4,1
   180c4:	001f0b13          	add	s6,t5,1
   180c8:	00050a93          	mv	s5,a0
   180cc:	00058a13          	mv	s4,a1
   180d0:	175050ef          	jal	1da44 <__eqdf2>
   180d4:	01012f03          	lw	t5,16(sp)
   180d8:	00040493          	mv	s1,s0
   180dc:	0c050463          	beqz	a0,181a4 <__gdtoa+0xe60>
   180e0:	01812823          	sw	s8,16(sp)
   180e4:	01c12c83          	lw	s9,28(sp)
   180e8:	000a0c13          	mv	s8,s4
   180ec:	0000bb97          	auipc	s7,0xb
   180f0:	6b4b8b93          	add	s7,s7,1716 # 237a0 <__SDATA_BEGIN__+0x38>
   180f4:	00040a13          	mv	s4,s0
   180f8:	000f0413          	mv	s0,t5
   180fc:	0780006f          	j	18174 <__gdtoa+0xe30>
   18100:	000ba603          	lw	a2,0(s7)
   18104:	004ba683          	lw	a3,4(s7)
   18108:	07012e23          	sw	a6,124(sp)
   1810c:	001b0b13          	add	s6,s6,1
   18110:	379050ef          	jal	1dc88 <__muldf3>
   18114:	000d0613          	mv	a2,s10
   18118:	000d8693          	mv	a3,s11
   1811c:	00050c13          	mv	s8,a0
   18120:	00058a93          	mv	s5,a1
   18124:	13c050ef          	jal	1d260 <__divdf3>
   18128:	1b9060ef          	jal	1eae0 <__fixdfsi>
   1812c:	00050993          	mv	s3,a0
   18130:	231060ef          	jal	1eb60 <__floatsidf>
   18134:	000d0613          	mv	a2,s10
   18138:	000d8693          	mv	a3,s11
   1813c:	34d050ef          	jal	1dc88 <__muldf3>
   18140:	00050613          	mv	a2,a0
   18144:	00058693          	mv	a3,a1
   18148:	000c0513          	mv	a0,s8
   1814c:	000a8593          	mv	a1,s5
   18150:	1e8060ef          	jal	1e338 <__subdf3>
   18154:	03098793          	add	a5,s3,48
   18158:	fefb0fa3          	sb	a5,-1(s6)
   1815c:	00000613          	li	a2,0
   18160:	00000693          	li	a3,0
   18164:	00050a93          	mv	s5,a0
   18168:	00058c13          	mv	s8,a1
   1816c:	0d9050ef          	jal	1da44 <__eqdf2>
   18170:	42050e63          	beqz	a0,185ac <__gdtoa+0x1268>
   18174:	07c12703          	lw	a4,124(sp)
   18178:	000a8513          	mv	a0,s5
   1817c:	000c0593          	mv	a1,s8
   18180:	00170813          	add	a6,a4,1
   18184:	f7971ee3          	bne	a4,s9,18100 <__gdtoa+0xdbc>
   18188:	02812703          	lw	a4,40(sp)
   1818c:	00040f13          	mv	t5,s0
   18190:	000a0413          	mv	s0,s4
   18194:	02070ae3          	beqz	a4,189c8 <__gdtoa+0x1684>
   18198:	00100793          	li	a5,1
   1819c:	01000c13          	li	s8,16
   181a0:	26f700e3          	beq	a4,a5,18c00 <__gdtoa+0x18bc>
   181a4:	00c12583          	lw	a1,12(sp)
   181a8:	00012503          	lw	a0,0(sp)
   181ac:	01e12823          	sw	t5,16(sp)
   181b0:	408010ef          	jal	195b8 <_Bfree>
   181b4:	00412783          	lw	a5,4(sp)
   181b8:	000b0023          	sb	zero,0(s6)
   181bc:	01012f03          	lw	t5,16(sp)
   181c0:	0097a023          	sw	s1,0(a5)
   181c4:	00812783          	lw	a5,8(sp)
   181c8:	00078463          	beqz	a5,181d0 <__gdtoa+0xe8c>
   181cc:	0167a023          	sw	s6,0(a5)
   181d0:	00092783          	lw	a5,0(s2)
   181d4:	0b812403          	lw	s0,184(sp)
   181d8:	0b412483          	lw	s1,180(sp)
   181dc:	0187e7b3          	or	a5,a5,s8
   181e0:	0ac12983          	lw	s3,172(sp)
   181e4:	0a812a03          	lw	s4,168(sp)
   181e8:	0a412a83          	lw	s5,164(sp)
   181ec:	09c12b83          	lw	s7,156(sp)
   181f0:	09412c83          	lw	s9,148(sp)
   181f4:	09012d03          	lw	s10,144(sp)
   181f8:	08c12d83          	lw	s11,140(sp)
   181fc:	00f92023          	sw	a5,0(s2)
   18200:	955ff06f          	j	17b54 <__gdtoa+0x810>
   18204:	e4dc9263          	bne	s9,a3,17848 <__gdtoa+0x504>
   18208:	004da783          	lw	a5,4(s11)
   1820c:	01012703          	lw	a4,16(sp)
   18210:	00178793          	add	a5,a5,1
   18214:	e2e7da63          	bge	a5,a4,17848 <__gdtoa+0x504>
   18218:	02412783          	lw	a5,36(sp)
   1821c:	001b8b93          	add	s7,s7,1
   18220:	00178793          	add	a5,a5,1
   18224:	02f12223          	sw	a5,36(sp)
   18228:	00100793          	li	a5,1
   1822c:	00f12c23          	sw	a5,24(sp)
   18230:	e18ff06f          	j	17848 <__gdtoa+0x504>
   18234:	00100793          	li	a5,1
   18238:	00000a13          	li	s4,0
   1823c:	02f12a23          	sw	a5,52(sp)
   18240:	01412583          	lw	a1,20(sp)
   18244:	00b04463          	bgtz	a1,1824c <__gdtoa+0xf08>
   18248:	00100593          	li	a1,1
   1824c:	00058693          	mv	a3,a1
   18250:	04b12623          	sw	a1,76(sp)
   18254:	00b12e23          	sw	a1,28(sp)
   18258:	00b12a23          	sw	a1,20(sp)
   1825c:	c90ff06f          	j	176ec <__gdtoa+0x3a8>
   18260:	37c010ef          	jal	195dc <__multadd>
   18264:	00050a13          	mv	s4,a0
   18268:	94050ae3          	beqz	a0,17bbc <__gdtoa+0x878>
   1826c:	00050a93          	mv	s5,a0
   18270:	efcff06f          	j	1796c <__gdtoa+0x628>
   18274:	e80b5463          	bgez	s6,178fc <__gdtoa+0x5b8>
   18278:	02812783          	lw	a5,40(sp)
   1827c:	00912623          	sw	s1,12(sp)
   18280:	000c0313          	mv	t1,s8
   18284:	01012f03          	lw	t5,16(sp)
   18288:	01412903          	lw	s2,20(sp)
   1828c:	00070c13          	mv	s8,a4
   18290:	46079ae3          	bnez	a5,18f04 <__gdtoa+0x1bc0>
   18294:	00c12783          	lw	a5,12(sp)
   18298:	00100693          	li	a3,1
   1829c:	01000c13          	li	s8,16
   182a0:	0107a603          	lw	a2,16(a5)
   182a4:	001d8993          	add	s3,s11,1
   182a8:	3ec6d6e3          	bge	a3,a2,18e94 <__gdtoa+0x1b50>
   182ac:	000a0413          	mv	s0,s4
   182b0:	00098b13          	mv	s6,s3
   182b4:	019d8023          	sb	s9,0(s11)
   182b8:	000a8a13          	mv	s4,s5
   182bc:	00012983          	lw	s3,0(sp)
   182c0:	00030593          	mv	a1,t1
   182c4:	01e12823          	sw	t5,16(sp)
   182c8:	00098513          	mv	a0,s3
   182cc:	2ec010ef          	jal	195b8 <_Bfree>
   182d0:	03012783          	lw	a5,48(sp)
   182d4:	01012f03          	lw	t5,16(sp)
   182d8:	00178493          	add	s1,a5,1
   182dc:	ec0a04e3          	beqz	s4,181a4 <__gdtoa+0xe60>
   182e0:	00040c63          	beqz	s0,182f8 <__gdtoa+0xfb4>
   182e4:	01440a63          	beq	s0,s4,182f8 <__gdtoa+0xfb4>
   182e8:	00040593          	mv	a1,s0
   182ec:	00098513          	mv	a0,s3
   182f0:	2c8010ef          	jal	195b8 <_Bfree>
   182f4:	01012f03          	lw	t5,16(sp)
   182f8:	00012503          	lw	a0,0(sp)
   182fc:	000a0593          	mv	a1,s4
   18300:	01e12823          	sw	t5,16(sp)
   18304:	2b4010ef          	jal	195b8 <_Bfree>
   18308:	01012f03          	lw	t5,16(sp)
   1830c:	e99ff06f          	j	181a4 <__gdtoa+0xe60>
   18310:	00c12583          	lw	a1,12(sp)
   18314:	00012503          	lw	a0,0(sp)
   18318:	03e12023          	sw	t5,32(sp)
   1831c:	00612823          	sw	t1,16(sp)
   18320:	39d010ef          	jal	19ebc <__lshift>
   18324:	00a12623          	sw	a0,12(sp)
   18328:	88050ae3          	beqz	a0,17bbc <__gdtoa+0x878>
   1832c:	07c12783          	lw	a5,124(sp)
   18330:	02012f03          	lw	t5,32(sp)
   18334:	01012303          	lw	t1,16(sp)
   18338:	d34ff06f          	j	1786c <__gdtoa+0x528>
   1833c:	00c12503          	lw	a0,12(sp)
   18340:	00030593          	mv	a1,t1
   18344:	03e12023          	sw	t5,32(sp)
   18348:	00612823          	sw	t1,16(sp)
   1834c:	501010ef          	jal	1a04c <__mcmp>
   18350:	01012303          	lw	t1,16(sp)
   18354:	02012f03          	lw	t5,32(sp)
   18358:	d2055263          	bgez	a0,1787c <__gdtoa+0x538>
   1835c:	03012783          	lw	a5,48(sp)
   18360:	00c12583          	lw	a1,12(sp)
   18364:	00012503          	lw	a0,0(sp)
   18368:	fff78793          	add	a5,a5,-1
   1836c:	00000693          	li	a3,0
   18370:	00a00613          	li	a2,10
   18374:	01e12e23          	sw	t5,28(sp)
   18378:	02f12823          	sw	a5,48(sp)
   1837c:	260010ef          	jal	195dc <__multadd>
   18380:	00a12623          	sw	a0,12(sp)
   18384:	82050ce3          	beqz	a0,17bbc <__gdtoa+0x878>
   18388:	03412783          	lw	a5,52(sp)
   1838c:	01012303          	lw	t1,16(sp)
   18390:	01c12f03          	lw	t5,28(sp)
   18394:	18079ce3          	bnez	a5,18d2c <__gdtoa+0x19e8>
   18398:	04c12783          	lw	a5,76(sp)
   1839c:	1ef05e63          	blez	a5,18598 <__gdtoa+0x1254>
   183a0:	00f12e23          	sw	a5,28(sp)
   183a4:	01c12483          	lw	s1,28(sp)
   183a8:	00c12403          	lw	s0,12(sp)
   183ac:	00012a83          	lw	s5,0(sp)
   183b0:	000f0d93          	mv	s11,t5
   183b4:	00100793          	li	a5,1
   183b8:	00030993          	mv	s3,t1
   183bc:	000f0b13          	mv	s6,t5
   183c0:	0180006f          	j	183d8 <__gdtoa+0x1094>
   183c4:	218010ef          	jal	195dc <__multadd>
   183c8:	00050413          	mv	s0,a0
   183cc:	fe050863          	beqz	a0,17bbc <__gdtoa+0x878>
   183d0:	07c12783          	lw	a5,124(sp)
   183d4:	00178793          	add	a5,a5,1
   183d8:	00098593          	mv	a1,s3
   183dc:	00040513          	mv	a0,s0
   183e0:	06f12e23          	sw	a5,124(sp)
   183e4:	4f9000ef          	jal	190dc <__quorem_D2A>
   183e8:	03050c93          	add	s9,a0,48
   183ec:	019d8023          	sb	s9,0(s11)
   183f0:	07c12783          	lw	a5,124(sp)
   183f4:	00000693          	li	a3,0
   183f8:	00a00613          	li	a2,10
   183fc:	00040593          	mv	a1,s0
   18400:	000a8513          	mv	a0,s5
   18404:	001d8d93          	add	s11,s11,1
   18408:	fa97cee3          	blt	a5,s1,183c4 <__gdtoa+0x1080>
   1840c:	00812623          	sw	s0,12(sp)
   18410:	00098313          	mv	t1,s3
   18414:	000b0f13          	mv	t5,s6
   18418:	00000413          	li	s0,0
   1841c:	02812703          	lw	a4,40(sp)
   18420:	4a070063          	beqz	a4,188c0 <__gdtoa+0x157c>
   18424:	00c12603          	lw	a2,12(sp)
   18428:	00200793          	li	a5,2
   1842c:	01062683          	lw	a3,16(a2)
   18430:	4cf70a63          	beq	a4,a5,18904 <__gdtoa+0x15c0>
   18434:	00100793          	li	a5,1
   18438:	28d7ce63          	blt	a5,a3,186d4 <__gdtoa+0x1390>
   1843c:	01462783          	lw	a5,20(a2)
   18440:	28079a63          	bnez	a5,186d4 <__gdtoa+0x1390>
   18444:	00f037b3          	snez	a5,a5
   18448:	00479c13          	sll	s8,a5,0x4
   1844c:	03000693          	li	a3,48
   18450:	fffdc783          	lbu	a5,-1(s11)
   18454:	000d8b13          	mv	s6,s11
   18458:	fffd8d93          	add	s11,s11,-1
   1845c:	fed78ae3          	beq	a5,a3,18450 <__gdtoa+0x110c>
   18460:	e5dff06f          	j	182bc <__gdtoa+0xf78>
   18464:	01c12783          	lw	a5,28(sp)
   18468:	02c12703          	lw	a4,44(sp)
   1846c:	fff78693          	add	a3,a5,-1
   18470:	1ad74663          	blt	a4,a3,1861c <__gdtoa+0x12d8>
   18474:	40d704b3          	sub	s1,a4,a3
   18478:	0007dee3          	bgez	a5,18c94 <__gdtoa+0x1950>
   1847c:	02412783          	lw	a5,36(sp)
   18480:	01c12703          	lw	a4,28(sp)
   18484:	06012e23          	sw	zero,124(sp)
   18488:	40e78ab3          	sub	s5,a5,a4
   1848c:	b14ff06f          	j	177a0 <__gdtoa+0x45c>
   18490:	00200793          	li	a5,2
   18494:	bfa7d863          	bge	a5,s10,17884 <__gdtoa+0x540>
   18498:	00012503          	lw	a0,0(sp)
   1849c:	00030593          	mv	a1,t1
   184a0:	00000693          	li	a3,0
   184a4:	00500613          	li	a2,5
   184a8:	01e12823          	sw	t5,16(sp)
   184ac:	130010ef          	jal	195dc <__multadd>
   184b0:	00050593          	mv	a1,a0
   184b4:	f0050463          	beqz	a0,17bbc <__gdtoa+0x878>
   184b8:	01c12783          	lw	a5,28(sp)
   184bc:	01012f03          	lw	t5,16(sp)
   184c0:	14079463          	bnez	a5,18608 <__gdtoa+0x12c4>
   184c4:	00a12823          	sw	a0,16(sp)
   184c8:	00c12503          	lw	a0,12(sp)
   184cc:	01e12c23          	sw	t5,24(sp)
   184d0:	37d010ef          	jal	1a04c <__mcmp>
   184d4:	01012583          	lw	a1,16(sp)
   184d8:	01812f03          	lw	t5,24(sp)
   184dc:	12a05663          	blez	a0,18608 <__gdtoa+0x12c4>
   184e0:	03012783          	lw	a5,48(sp)
   184e4:	00278493          	add	s1,a5,2
   184e8:	03100793          	li	a5,49
   184ec:	001f0b13          	add	s6,t5,1
   184f0:	00ff0023          	sb	a5,0(t5)
   184f4:	02000c13          	li	s8,32
   184f8:	00012503          	lw	a0,0(sp)
   184fc:	01e12823          	sw	t5,16(sp)
   18500:	0b8010ef          	jal	195b8 <_Bfree>
   18504:	01012f03          	lw	t5,16(sp)
   18508:	c80a0ee3          	beqz	s4,181a4 <__gdtoa+0xe60>
   1850c:	dedff06f          	j	182f8 <__gdtoa+0xfb4>
   18510:	00100693          	li	a3,1
   18514:	00100593          	li	a1,1
   18518:	9d4ff06f          	j	176ec <__gdtoa+0x3a8>
   1851c:	00050593          	mv	a1,a0
   18520:	00012503          	lw	a0,0(sp)
   18524:	00078613          	mv	a2,a5
   18528:	045010ef          	jal	19d6c <__pow5mult>
   1852c:	00050313          	mv	t1,a0
   18530:	e8050663          	beqz	a0,17bbc <__gdtoa+0x878>
   18534:	00100693          	li	a3,1
   18538:	02012f03          	lw	t5,32(sp)
   1853c:	21a6de63          	bge	a3,s10,18758 <__gdtoa+0x1414>
   18540:	01032783          	lw	a5,16(t1)
   18544:	03e12023          	sw	t5,32(sp)
   18548:	00612823          	sw	t1,16(sp)
   1854c:	00378793          	add	a5,a5,3
   18550:	00279793          	sll	a5,a5,0x2
   18554:	00f307b3          	add	a5,t1,a5
   18558:	0047a503          	lw	a0,4(a5)
   1855c:	340010ef          	jal	1989c <__hi0bits>
   18560:	02012f03          	lw	t5,32(sp)
   18564:	01012303          	lw	t1,16(sp)
   18568:	00050b13          	mv	s6,a0
   1856c:	01812c23          	sw	s8,24(sp)
   18570:	adcff06f          	j	1784c <__gdtoa+0x508>
   18574:	00100693          	li	a3,1
   18578:	efa6c6e3          	blt	a3,s10,18464 <__gdtoa+0x1120>
   1857c:	02412783          	lw	a5,36(sp)
   18580:	02c12483          	lw	s1,44(sp)
   18584:	00cb8bb3          	add	s7,s7,a2
   18588:	00078a93          	mv	s5,a5
   1858c:	00f607b3          	add	a5,a2,a5
   18590:	02f12223          	sw	a5,36(sp)
   18594:	a0cff06f          	j	177a0 <__gdtoa+0x45c>
   18598:	00200793          	li	a5,2
   1859c:	13a7c0e3          	blt	a5,s10,18ebc <__gdtoa+0x1b78>
   185a0:	04c12783          	lw	a5,76(sp)
   185a4:	00f12e23          	sw	a5,28(sp)
   185a8:	dfdff06f          	j	183a4 <__gdtoa+0x1060>
   185ac:	01012c03          	lw	s8,16(sp)
   185b0:	00040f13          	mv	t5,s0
   185b4:	bf1ff06f          	j	181a4 <__gdtoa+0xe60>
   185b8:	01c12783          	lw	a5,28(sp)
   185bc:	a8f04ce3          	bgtz	a5,18054 <__gdtoa+0xd10>
   185c0:	04079063          	bnez	a5,18600 <__gdtoa+0x12bc>
   185c4:	0000b797          	auipc	a5,0xb
   185c8:	1f478793          	add	a5,a5,500 # 237b8 <__SDATA_BEGIN__+0x50>
   185cc:	0007a603          	lw	a2,0(a5)
   185d0:	0047a683          	lw	a3,4(a5)
   185d4:	000d0513          	mv	a0,s10
   185d8:	000d8593          	mv	a1,s11
   185dc:	01e12823          	sw	t5,16(sp)
   185e0:	6a8050ef          	jal	1dc88 <__muldf3>
   185e4:	04812883          	lw	a7,72(sp)
   185e8:	04012783          	lw	a5,64(sp)
   185ec:	00088613          	mv	a2,a7
   185f0:	00078693          	mv	a3,a5
   185f4:	4dc050ef          	jal	1dad0 <__gedf2>
   185f8:	01012f03          	lw	t5,16(sp)
   185fc:	6e054c63          	bltz	a0,18cf4 <__gdtoa+0x19b0>
   18600:	00000593          	li	a1,0
   18604:	00000a13          	li	s4,0
   18608:	01412783          	lw	a5,20(sp)
   1860c:	000f0b13          	mv	s6,t5
   18610:	01000c13          	li	s8,16
   18614:	40f004b3          	neg	s1,a5
   18618:	ee1ff06f          	j	184f8 <__gdtoa+0x11b4>
   1861c:	02c12783          	lw	a5,44(sp)
   18620:	02412703          	lw	a4,36(sp)
   18624:	00000493          	li	s1,0
   18628:	40f68633          	sub	a2,a3,a5
   1862c:	01812783          	lw	a5,24(sp)
   18630:	00070a93          	mv	s5,a4
   18634:	02d12623          	sw	a3,44(sp)
   18638:	00c787b3          	add	a5,a5,a2
   1863c:	00f12c23          	sw	a5,24(sp)
   18640:	01c12783          	lw	a5,28(sp)
   18644:	06f12e23          	sw	a5,124(sp)
   18648:	00fb8bb3          	add	s7,s7,a5
   1864c:	00f707b3          	add	a5,a4,a5
   18650:	02f12223          	sw	a5,36(sp)
   18654:	94cff06f          	j	177a0 <__gdtoa+0x45c>
   18658:	00012b03          	lw	s6,0(sp)
   1865c:	000a0593          	mv	a1,s4
   18660:	00048613          	mv	a2,s1
   18664:	000b0513          	mv	a0,s6
   18668:	03e12023          	sw	t5,32(sp)
   1866c:	700010ef          	jal	19d6c <__pow5mult>
   18670:	00050a13          	mv	s4,a0
   18674:	d4050463          	beqz	a0,17bbc <__gdtoa+0x878>
   18678:	00c12603          	lw	a2,12(sp)
   1867c:	00050593          	mv	a1,a0
   18680:	000b0513          	mv	a0,s6
   18684:	420010ef          	jal	19aa4 <__multiply>
   18688:	00050413          	mv	s0,a0
   1868c:	d2050863          	beqz	a0,17bbc <__gdtoa+0x878>
   18690:	00c12583          	lw	a1,12(sp)
   18694:	000b0513          	mv	a0,s6
   18698:	721000ef          	jal	195b8 <_Bfree>
   1869c:	02c12783          	lw	a5,44(sp)
   186a0:	00812623          	sw	s0,12(sp)
   186a4:	02012f03          	lw	t5,32(sp)
   186a8:	409787b3          	sub	a5,a5,s1
   186ac:	02f12623          	sw	a5,44(sp)
   186b0:	96078663          	beqz	a5,1781c <__gdtoa+0x4d8>
   186b4:	948ff06f          	j	177fc <__gdtoa+0x4b8>
   186b8:	000a0413          	mv	s0,s4
   186bc:	000d8793          	mv	a5,s11
   186c0:	001d8993          	add	s3,s11,1
   186c4:	000a8a13          	mv	s4,s5
   186c8:	03900693          	li	a3,57
   186cc:	00098d93          	mv	s11,s3
   186d0:	00d78023          	sb	a3,0(a5)
   186d4:	03900693          	li	a3,57
   186d8:	0080006f          	j	186e0 <__gdtoa+0x139c>
   186dc:	25bf0463          	beq	t5,s11,18924 <__gdtoa+0x15e0>
   186e0:	fffdc783          	lbu	a5,-1(s11)
   186e4:	000d8b13          	mv	s6,s11
   186e8:	fffd8d93          	add	s11,s11,-1
   186ec:	fed788e3          	beq	a5,a3,186dc <__gdtoa+0x1398>
   186f0:	00178793          	add	a5,a5,1
   186f4:	00fd8023          	sb	a5,0(s11)
   186f8:	02000c13          	li	s8,32
   186fc:	bc1ff06f          	j	182bc <__gdtoa+0xf78>
   18700:	00012503          	lw	a0,0(sp)
   18704:	000a0593          	mv	a1,s4
   18708:	01e12a23          	sw	t5,20(sp)
   1870c:	00612823          	sw	t1,16(sp)
   18710:	7ac010ef          	jal	19ebc <__lshift>
   18714:	01012303          	lw	t1,16(sp)
   18718:	01412f03          	lw	t5,20(sp)
   1871c:	00050a13          	mv	s4,a0
   18720:	96051a63          	bnez	a0,17894 <__gdtoa+0x550>
   18724:	c98ff06f          	j	17bbc <__gdtoa+0x878>
   18728:	00100793          	li	a5,1
   1872c:	00000a13          	li	s4,0
   18730:	02f12a23          	sw	a5,52(sp)
   18734:	f95fe06f          	j	176c8 <__gdtoa+0x384>
   18738:	00100793          	li	a5,1
   1873c:	02f12a23          	sw	a5,52(sp)
   18740:	f89fe06f          	j	176c8 <__gdtoa+0x384>
   18744:	00100793          	li	a5,1
   18748:	02f12a23          	sw	a5,52(sp)
   1874c:	af5ff06f          	j	18240 <__gdtoa+0xefc>
   18750:	02012a23          	sw	zero,52(sp)
   18754:	aedff06f          	j	18240 <__gdtoa+0xefc>
   18758:	dedc94e3          	bne	s9,a3,18540 <__gdtoa+0x11fc>
   1875c:	004da783          	lw	a5,4(s11)
   18760:	01012703          	lw	a4,16(sp)
   18764:	00178793          	add	a5,a5,1
   18768:	dce7dce3          	bge	a5,a4,18540 <__gdtoa+0x11fc>
   1876c:	02412783          	lw	a5,36(sp)
   18770:	001b8b93          	add	s7,s7,1
   18774:	00100c13          	li	s8,1
   18778:	00178793          	add	a5,a5,1
   1877c:	02f12223          	sw	a5,36(sp)
   18780:	dc1ff06f          	j	18540 <__gdtoa+0x11fc>
   18784:	00012403          	lw	s0,0(sp)
   18788:	004a2583          	lw	a1,4(s4)
   1878c:	01e12a23          	sw	t5,20(sp)
   18790:	00040513          	mv	a0,s0
   18794:	00612823          	sw	t1,16(sp)
   18798:	56d000ef          	jal	19504 <_Balloc>
   1879c:	00050a93          	mv	s5,a0
   187a0:	c0050e63          	beqz	a0,17bbc <__gdtoa+0x878>
   187a4:	010a2603          	lw	a2,16(s4)
   187a8:	00ca0593          	add	a1,s4,12
   187ac:	00c50513          	add	a0,a0,12
   187b0:	00260613          	add	a2,a2,2
   187b4:	00261613          	sll	a2,a2,0x2
   187b8:	9b0fe0ef          	jal	16968 <memcpy>
   187bc:	000a8593          	mv	a1,s5
   187c0:	00100613          	li	a2,1
   187c4:	00040513          	mv	a0,s0
   187c8:	6f4010ef          	jal	19ebc <__lshift>
   187cc:	01012303          	lw	t1,16(sp)
   187d0:	01412f03          	lw	t5,20(sp)
   187d4:	00050a93          	mv	s5,a0
   187d8:	00050463          	beqz	a0,187e0 <__gdtoa+0x149c>
   187dc:	8c8ff06f          	j	178a4 <__gdtoa+0x560>
   187e0:	bdcff06f          	j	17bbc <__gdtoa+0x878>
   187e4:	000a0693          	mv	a3,s4
   187e8:	00040613          	mv	a2,s0
   187ec:	000a0593          	mv	a1,s4
   187f0:	00040513          	mv	a0,s0
   187f4:	05e12023          	sw	t5,64(sp)
   187f8:	2d4040ef          	jal	1cacc <__adddf3>
   187fc:	0000b697          	auipc	a3,0xb
   18800:	fb468693          	add	a3,a3,-76 # 237b0 <__SDATA_BEGIN__+0x48>
   18804:	0006a603          	lw	a2,0(a3)
   18808:	0046a683          	lw	a3,4(a3)
   1880c:	2c0040ef          	jal	1cacc <__adddf3>
   18810:	04012f03          	lw	t5,64(sp)
   18814:	fcc00737          	lui	a4,0xfcc00
   18818:	00050b13          	mv	s6,a0
   1881c:	00b70a33          	add	s4,a4,a1
   18820:	0000b697          	auipc	a3,0xb
   18824:	f9868693          	add	a3,a3,-104 # 237b8 <__SDATA_BEGIN__+0x50>
   18828:	0006a603          	lw	a2,0(a3)
   1882c:	02812503          	lw	a0,40(sp)
   18830:	0046a683          	lw	a3,4(a3)
   18834:	03812583          	lw	a1,56(sp)
   18838:	05e12023          	sw	t5,64(sp)
   1883c:	2fd050ef          	jal	1e338 <__subdf3>
   18840:	000b0613          	mv	a2,s6
   18844:	000a0693          	mv	a3,s4
   18848:	00050493          	mv	s1,a0
   1884c:	00058413          	mv	s0,a1
   18850:	280050ef          	jal	1dad0 <__gedf2>
   18854:	04012f03          	lw	t5,64(sp)
   18858:	44a04c63          	bgtz	a0,18cb0 <__gdtoa+0x196c>
   1885c:	800008b7          	lui	a7,0x80000
   18860:	0148c8b3          	xor	a7,a7,s4
   18864:	000b0613          	mv	a2,s6
   18868:	00048513          	mv	a0,s1
   1886c:	00088693          	mv	a3,a7
   18870:	00040593          	mv	a1,s0
   18874:	338050ef          	jal	1dbac <__ledf2>
   18878:	04012f03          	lw	t5,64(sp)
   1887c:	d80542e3          	bltz	a0,18600 <__gdtoa+0x12bc>
   18880:	02812783          	lw	a5,40(sp)
   18884:	0000a317          	auipc	t1,0xa
   18888:	b0c30313          	add	t1,t1,-1268 # 22390 <__mprec_tens>
   1888c:	04f12423          	sw	a5,72(sp)
   18890:	03812783          	lw	a5,56(sp)
   18894:	04f12023          	sw	a5,64(sp)
   18898:	02012783          	lw	a5,32(sp)
   1889c:	5207c063          	bltz	a5,18dbc <__gdtoa+0x1a78>
   188a0:	01412783          	lw	a5,20(sp)
   188a4:	02012423          	sw	zero,40(sp)
   188a8:	00032d03          	lw	s10,0(t1)
   188ac:	00432d83          	lw	s11,4(t1)
   188b0:	fa07d263          	bgez	a5,18054 <__gdtoa+0xd10>
   188b4:	01c12783          	lw	a5,28(sp)
   188b8:	f8079e63          	bnez	a5,18054 <__gdtoa+0xd10>
   188bc:	d09ff06f          	j	185c4 <__gdtoa+0x1280>
   188c0:	00c12583          	lw	a1,12(sp)
   188c4:	00012503          	lw	a0,0(sp)
   188c8:	00100613          	li	a2,1
   188cc:	01e12a23          	sw	t5,20(sp)
   188d0:	00612823          	sw	t1,16(sp)
   188d4:	5e8010ef          	jal	19ebc <__lshift>
   188d8:	00a12623          	sw	a0,12(sp)
   188dc:	ae050063          	beqz	a0,17bbc <__gdtoa+0x878>
   188e0:	01012303          	lw	t1,16(sp)
   188e4:	00030593          	mv	a1,t1
   188e8:	764010ef          	jal	1a04c <__mcmp>
   188ec:	01012303          	lw	t1,16(sp)
   188f0:	01412f03          	lw	t5,20(sp)
   188f4:	dea040e3          	bgtz	a0,186d4 <__gdtoa+0x1390>
   188f8:	00051663          	bnez	a0,18904 <__gdtoa+0x15c0>
   188fc:	001cf793          	and	a5,s9,1
   18900:	dc079ae3          	bnez	a5,186d4 <__gdtoa+0x1390>
   18904:	00c12783          	lw	a5,12(sp)
   18908:	01000c13          	li	s8,16
   1890c:	0107a683          	lw	a3,16(a5)
   18910:	00100793          	li	a5,1
   18914:	b2d7cce3          	blt	a5,a3,1844c <__gdtoa+0x1108>
   18918:	00c12783          	lw	a5,12(sp)
   1891c:	0147a783          	lw	a5,20(a5)
   18920:	b25ff06f          	j	18444 <__gdtoa+0x1100>
   18924:	03012783          	lw	a5,48(sp)
   18928:	02000c13          	li	s8,32
   1892c:	00178793          	add	a5,a5,1
   18930:	02f12823          	sw	a5,48(sp)
   18934:	03100793          	li	a5,49
   18938:	00ff0023          	sb	a5,0(t5)
   1893c:	981ff06f          	j	182bc <__gdtoa+0xf78>
   18940:	02812783          	lw	a5,40(sp)
   18944:	00912623          	sw	s1,12(sp)
   18948:	01012f03          	lw	t5,16(sp)
   1894c:	01412903          	lw	s2,20(sp)
   18950:	000c0313          	mv	t1,s8
   18954:	02078263          	beqz	a5,18978 <__gdtoa+0x1634>
   18958:	00c12783          	lw	a5,12(sp)
   1895c:	00100693          	li	a3,1
   18960:	0107a603          	lw	a2,16(a5)
   18964:	00c6d463          	bge	a3,a2,1896c <__gdtoa+0x1628>
   18968:	8c8ff06f          	j	17a30 <__gdtoa+0x6ec>
   1896c:	0147a683          	lw	a3,20(a5)
   18970:	00068463          	beqz	a3,18978 <__gdtoa+0x1634>
   18974:	8bcff06f          	j	17a30 <__gdtoa+0x6ec>
   18978:	00c12583          	lw	a1,12(sp)
   1897c:	00012503          	lw	a0,0(sp)
   18980:	00100613          	li	a2,1
   18984:	01e12a23          	sw	t5,20(sp)
   18988:	00612823          	sw	t1,16(sp)
   1898c:	530010ef          	jal	19ebc <__lshift>
   18990:	00a12623          	sw	a0,12(sp)
   18994:	a2050463          	beqz	a0,17bbc <__gdtoa+0x878>
   18998:	01012303          	lw	t1,16(sp)
   1899c:	00030593          	mv	a1,t1
   189a0:	6ac010ef          	jal	1a04c <__mcmp>
   189a4:	01012303          	lw	t1,16(sp)
   189a8:	01412f03          	lw	t5,20(sp)
   189ac:	4ea05c63          	blez	a0,18ea4 <__gdtoa+0x1b60>
   189b0:	03900693          	li	a3,57
   189b4:	d0dc82e3          	beq	s9,a3,186b8 <__gdtoa+0x1374>
   189b8:	02000793          	li	a5,32
   189bc:	031b8c93          	add	s9,s7,49
   189c0:	02f12423          	sw	a5,40(sp)
   189c4:	8d1ff06f          	j	18294 <__gdtoa+0xf50>
   189c8:	000a8613          	mv	a2,s5
   189cc:	000c0693          	mv	a3,s8
   189d0:	01e12a23          	sw	t5,20(sp)
   189d4:	0f8040ef          	jal	1cacc <__adddf3>
   189d8:	fffb4703          	lbu	a4,-1(s6)
   189dc:	000d0613          	mv	a2,s10
   189e0:	000d8693          	mv	a3,s11
   189e4:	00e12823          	sw	a4,16(sp)
   189e8:	00050a93          	mv	s5,a0
   189ec:	00058a13          	mv	s4,a1
   189f0:	0e0050ef          	jal	1dad0 <__gedf2>
   189f4:	01012703          	lw	a4,16(sp)
   189f8:	01412f03          	lw	t5,20(sp)
   189fc:	d8a04063          	bgtz	a0,17f7c <__gdtoa+0xc38>
   18a00:	000a8513          	mv	a0,s5
   18a04:	000a0593          	mv	a1,s4
   18a08:	000d0613          	mv	a2,s10
   18a0c:	000d8693          	mv	a3,s11
   18a10:	034050ef          	jal	1da44 <__eqdf2>
   18a14:	01412f03          	lw	t5,20(sp)
   18a18:	2e051863          	bnez	a0,18d08 <__gdtoa+0x19c4>
   18a1c:	0019f993          	and	s3,s3,1
   18a20:	2e098463          	beqz	s3,18d08 <__gdtoa+0x19c4>
   18a24:	01012703          	lw	a4,16(sp)
   18a28:	d54ff06f          	j	17f7c <__gdtoa+0xc38>
   18a2c:	03100693          	li	a3,49
   18a30:	00140413          	add	s0,s0,1
   18a34:	d6cff06f          	j	17fa0 <__gdtoa+0xc5c>
   18a38:	000b0513          	mv	a0,s6
   18a3c:	000a0593          	mv	a1,s4
   18a40:	06612623          	sw	t1,108(sp)
   18a44:	07e12023          	sw	t5,96(sp)
   18a48:	240050ef          	jal	1dc88 <__muldf3>
   18a4c:	04812603          	lw	a2,72(sp)
   18a50:	04012683          	lw	a3,64(sp)
   18a54:	06012f03          	lw	t5,96(sp)
   18a58:	06c12303          	lw	t1,108(sp)
   18a5c:	00060a93          	mv	s5,a2
   18a60:	04b12e23          	sw	a1,92(sp)
   18a64:	04c12023          	sw	a2,64(sp)
   18a68:	00100593          	li	a1,1
   18a6c:	00000613          	li	a2,0
   18a70:	07312223          	sw	s3,100(sp)
   18a74:	07212423          	sw	s2,104(sp)
   18a78:	04a12c23          	sw	a0,88(sp)
   18a7c:	05012903          	lw	s2,80(sp)
   18a80:	06b12e23          	sw	a1,124(sp)
   18a84:	04d12423          	sw	a3,72(sp)
   18a88:	00068a13          	mv	s4,a3
   18a8c:	000f0b13          	mv	s6,t5
   18a90:	0000b497          	auipc	s1,0xb
   18a94:	d1048493          	add	s1,s1,-752 # 237a0 <__SDATA_BEGIN__+0x38>
   18a98:	00060413          	mv	s0,a2
   18a9c:	04612823          	sw	t1,80(sp)
   18aa0:	000a8993          	mv	s3,s5
   18aa4:	0200006f          	j	18ac4 <__gdtoa+0x1780>
   18aa8:	0004a603          	lw	a2,0(s1)
   18aac:	0044a683          	lw	a3,4(s1)
   18ab0:	06612e23          	sw	t1,124(sp)
   18ab4:	00100413          	li	s0,1
   18ab8:	1d0050ef          	jal	1dc88 <__muldf3>
   18abc:	00050993          	mv	s3,a0
   18ac0:	00058a13          	mv	s4,a1
   18ac4:	00098513          	mv	a0,s3
   18ac8:	000a0593          	mv	a1,s4
   18acc:	014060ef          	jal	1eae0 <__fixdfsi>
   18ad0:	00050a93          	mv	s5,a0
   18ad4:	02050463          	beqz	a0,18afc <__gdtoa+0x17b8>
   18ad8:	088060ef          	jal	1eb60 <__floatsidf>
   18adc:	00050613          	mv	a2,a0
   18ae0:	00058693          	mv	a3,a1
   18ae4:	00098513          	mv	a0,s3
   18ae8:	000a0593          	mv	a1,s4
   18aec:	04d050ef          	jal	1e338 <__subdf3>
   18af0:	00050993          	mv	s3,a0
   18af4:	00058a13          	mv	s4,a1
   18af8:	00100413          	li	s0,1
   18afc:	030a8793          	add	a5,s5,48
   18b00:	0ff7f713          	zext.b	a4,a5
   18b04:	00eb0023          	sb	a4,0(s6)
   18b08:	07c12783          	lw	a5,124(sp)
   18b0c:	001b0b13          	add	s6,s6,1
   18b10:	00098513          	mv	a0,s3
   18b14:	000a0593          	mv	a1,s4
   18b18:	00178313          	add	t1,a5,1
   18b1c:	f92796e3          	bne	a5,s2,18aa8 <__gdtoa+0x1764>
   18b20:	06012f03          	lw	t5,96(sp)
   18b24:	06812903          	lw	s2,104(sp)
   18b28:	05012303          	lw	t1,80(sp)
   18b2c:	06412983          	lw	s3,100(sp)
   18b30:	00040663          	beqz	s0,18b3c <__gdtoa+0x17f8>
   18b34:	04a12023          	sw	a0,64(sp)
   18b38:	05412423          	sw	s4,72(sp)
   18b3c:	0000ba17          	auipc	s4,0xb
   18b40:	c84a0a13          	add	s4,s4,-892 # 237c0 <__SDATA_BEGIN__+0x58>
   18b44:	05c12a83          	lw	s5,92(sp)
   18b48:	000a2603          	lw	a2,0(s4)
   18b4c:	004a2683          	lw	a3,4(s4)
   18b50:	05812503          	lw	a0,88(sp)
   18b54:	000a8593          	mv	a1,s5
   18b58:	07e12023          	sw	t5,96(sp)
   18b5c:	04e12823          	sw	a4,80(sp)
   18b60:	06612223          	sw	t1,100(sp)
   18b64:	769030ef          	jal	1cacc <__adddf3>
   18b68:	04012483          	lw	s1,64(sp)
   18b6c:	04812403          	lw	s0,72(sp)
   18b70:	00048613          	mv	a2,s1
   18b74:	00040693          	mv	a3,s0
   18b78:	034050ef          	jal	1dbac <__ledf2>
   18b7c:	05012703          	lw	a4,80(sp)
   18b80:	06012f03          	lw	t5,96(sp)
   18b84:	22054663          	bltz	a0,18db0 <__gdtoa+0x1a6c>
   18b88:	05812603          	lw	a2,88(sp)
   18b8c:	000a2503          	lw	a0,0(s4)
   18b90:	004a2583          	lw	a1,4(s4)
   18b94:	000a8693          	mv	a3,s5
   18b98:	05e12823          	sw	t5,80(sp)
   18b9c:	79c050ef          	jal	1e338 <__subdf3>
   18ba0:	00048613          	mv	a2,s1
   18ba4:	00040693          	mv	a3,s0
   18ba8:	729040ef          	jal	1dad0 <__gedf2>
   18bac:	05012f03          	lw	t5,80(sp)
   18bb0:	06412303          	lw	t1,100(sp)
   18bb4:	2aa04663          	bgtz	a0,18e60 <__gdtoa+0x1b1c>
   18bb8:	02812783          	lw	a5,40(sp)
   18bbc:	04f12423          	sw	a5,72(sp)
   18bc0:	03812783          	lw	a5,56(sp)
   18bc4:	04f12023          	sw	a5,64(sp)
   18bc8:	02012783          	lw	a5,32(sp)
   18bcc:	cc07dae3          	bgez	a5,188a0 <__gdtoa+0x155c>
   18bd0:	02c12483          	lw	s1,44(sp)
   18bd4:	02412a83          	lw	s5,36(sp)
   18bd8:	02012423          	sw	zero,40(sp)
   18bdc:	00000a13          	li	s4,0
   18be0:	bddfe06f          	j	177bc <__gdtoa+0x478>
   18be4:	000a0413          	mv	s0,s4
   18be8:	01012f03          	lw	t5,16(sp)
   18bec:	01412903          	lw	s2,20(sp)
   18bf0:	00912623          	sw	s1,12(sp)
   18bf4:	000c0313          	mv	t1,s8
   18bf8:	000a8a13          	mv	s4,s5
   18bfc:	821ff06f          	j	1841c <__gdtoa+0x10d8>
   18c00:	fffb4703          	lbu	a4,-1(s6)
   18c04:	b78ff06f          	j	17f7c <__gdtoa+0xc38>
   18c08:	bc048ee3          	beqz	s1,187e4 <__gdtoa+0x14a0>
   18c0c:	04c12483          	lw	s1,76(sp)
   18c10:	c69058e3          	blez	s1,18880 <__gdtoa+0x153c>
   18c14:	0000b697          	auipc	a3,0xb
   18c18:	b8c68693          	add	a3,a3,-1140 # 237a0 <__SDATA_BEGIN__+0x38>
   18c1c:	0006a603          	lw	a2,0(a3)
   18c20:	0046a683          	lw	a3,4(a3)
   18c24:	000a0593          	mv	a1,s4
   18c28:	00040513          	mv	a0,s0
   18c2c:	07e12023          	sw	t5,96(sp)
   18c30:	058050ef          	jal	1dc88 <__muldf3>
   18c34:	0000b697          	auipc	a3,0xb
   18c38:	b7468693          	add	a3,a3,-1164 # 237a8 <__SDATA_BEGIN__+0x40>
   18c3c:	0006a603          	lw	a2,0(a3)
   18c40:	0046a683          	lw	a3,4(a3)
   18c44:	04a12423          	sw	a0,72(sp)
   18c48:	04a12e23          	sw	a0,92(sp)
   18c4c:	04b12023          	sw	a1,64(sp)
   18c50:	04b12c23          	sw	a1,88(sp)
   18c54:	034050ef          	jal	1dc88 <__muldf3>
   18c58:	0000b697          	auipc	a3,0xb
   18c5c:	b5868693          	add	a3,a3,-1192 # 237b0 <__SDATA_BEGIN__+0x48>
   18c60:	0006a603          	lw	a2,0(a3)
   18c64:	0046a683          	lw	a3,4(a3)
   18c68:	665030ef          	jal	1cacc <__adddf3>
   18c6c:	fcc00737          	lui	a4,0xfcc00
   18c70:	fff00793          	li	a5,-1
   18c74:	05812803          	lw	a6,88(sp)
   18c78:	05c12e83          	lw	t4,92(sp)
   18c7c:	06012f03          	lw	t5,96(sp)
   18c80:	00050b13          	mv	s6,a0
   18c84:	00b70a33          	add	s4,a4,a1
   18c88:	04912823          	sw	s1,80(sp)
   18c8c:	04f12a23          	sw	a5,84(sp)
   18c90:	8f0ff06f          	j	17d80 <__gdtoa+0xa3c>
   18c94:	02412703          	lw	a4,36(sp)
   18c98:	06f12e23          	sw	a5,124(sp)
   18c9c:	00fb8bb3          	add	s7,s7,a5
   18ca0:	00f707b3          	add	a5,a4,a5
   18ca4:	00070a93          	mv	s5,a4
   18ca8:	02f12223          	sw	a5,36(sp)
   18cac:	af5fe06f          	j	177a0 <__gdtoa+0x45c>
   18cb0:	00200493          	li	s1,2
   18cb4:	00000593          	li	a1,0
   18cb8:	00000a13          	li	s4,0
   18cbc:	82dff06f          	j	184e8 <__gdtoa+0x11a4>
   18cc0:	00912623          	sw	s1,12(sp)
   18cc4:	03900693          	li	a3,57
   18cc8:	01012f03          	lw	t5,16(sp)
   18ccc:	01412903          	lw	s2,20(sp)
   18cd0:	000c0313          	mv	t1,s8
   18cd4:	9edc82e3          	beq	s9,a3,186b8 <__gdtoa+0x1374>
   18cd8:	001c8793          	add	a5,s9,1
   18cdc:	000a0413          	mv	s0,s4
   18ce0:	001d8b13          	add	s6,s11,1
   18ce4:	00fd8023          	sb	a5,0(s11)
   18ce8:	000a8a13          	mv	s4,s5
   18cec:	02000c13          	li	s8,32
   18cf0:	dccff06f          	j	182bc <__gdtoa+0xf78>
   18cf4:	03012783          	lw	a5,48(sp)
   18cf8:	00000593          	li	a1,0
   18cfc:	00000a13          	li	s4,0
   18d00:	00278493          	add	s1,a5,2
   18d04:	fe4ff06f          	j	184e8 <__gdtoa+0x11a4>
   18d08:	000b0793          	mv	a5,s6
   18d0c:	01000c13          	li	s8,16
   18d10:	03000613          	li	a2,48
   18d14:	fff7c703          	lbu	a4,-1(a5)
   18d18:	00078b13          	mv	s6,a5
   18d1c:	fff78793          	add	a5,a5,-1
   18d20:	fec70ae3          	beq	a4,a2,18d14 <__gdtoa+0x19d0>
   18d24:	00040493          	mv	s1,s0
   18d28:	c7cff06f          	j	181a4 <__gdtoa+0xe60>
   18d2c:	00012503          	lw	a0,0(sp)
   18d30:	000a0593          	mv	a1,s4
   18d34:	00000693          	li	a3,0
   18d38:	00a00613          	li	a2,10
   18d3c:	0a1000ef          	jal	195dc <__multadd>
   18d40:	00050a13          	mv	s4,a0
   18d44:	00051463          	bnez	a0,18d4c <__gdtoa+0x1a08>
   18d48:	e75fe06f          	j	17bbc <__gdtoa+0x878>
   18d4c:	04c12783          	lw	a5,76(sp)
   18d50:	01012303          	lw	t1,16(sp)
   18d54:	01c12f03          	lw	t5,28(sp)
   18d58:	00f05663          	blez	a5,18d64 <__gdtoa+0x1a20>
   18d5c:	00f12e23          	sw	a5,28(sp)
   18d60:	b2dfe06f          	j	1788c <__gdtoa+0x548>
   18d64:	00200793          	li	a5,2
   18d68:	15a7ca63          	blt	a5,s10,18ebc <__gdtoa+0x1b78>
   18d6c:	04c12783          	lw	a5,76(sp)
   18d70:	00f12e23          	sw	a5,28(sp)
   18d74:	b19fe06f          	j	1788c <__gdtoa+0x548>
   18d78:	04812f03          	lw	t5,72(sp)
   18d7c:	05012903          	lw	s2,80(sp)
   18d80:	00048513          	mv	a0,s1
   18d84:	000a0593          	mv	a1,s4
   18d88:	00000613          	li	a2,0
   18d8c:	00000693          	li	a3,0
   18d90:	01e12823          	sw	t5,16(sp)
   18d94:	4b1040ef          	jal	1da44 <__eqdf2>
   18d98:	00a037b3          	snez	a5,a0
   18d9c:	00479c13          	sll	s8,a5,0x4
   18da0:	05412783          	lw	a5,84(sp)
   18da4:	01012f03          	lw	t5,16(sp)
   18da8:	00178493          	add	s1,a5,1
   18dac:	bf8ff06f          	j	181a4 <__gdtoa+0xe60>
   18db0:	05412783          	lw	a5,84(sp)
   18db4:	00178413          	add	s0,a5,1
   18db8:	9c4ff06f          	j	17f7c <__gdtoa+0xc38>
   18dbc:	02012423          	sw	zero,40(sp)
   18dc0:	971fe06f          	j	17730 <__gdtoa+0x3ec>
   18dc4:	01c12783          	lw	a5,28(sp)
   18dc8:	02c12703          	lw	a4,44(sp)
   18dcc:	fff78693          	add	a3,a5,-1
   18dd0:	84d746e3          	blt	a4,a3,1861c <__gdtoa+0x12d8>
   18dd4:	02412603          	lw	a2,36(sp)
   18dd8:	00fb8bb3          	add	s7,s7,a5
   18ddc:	06f12e23          	sw	a5,124(sp)
   18de0:	00f607b3          	add	a5,a2,a5
   18de4:	00060a93          	mv	s5,a2
   18de8:	40d704b3          	sub	s1,a4,a3
   18dec:	02f12223          	sw	a5,36(sp)
   18df0:	9b1fe06f          	j	177a0 <__gdtoa+0x45c>
   18df4:	02812783          	lw	a5,40(sp)
   18df8:	04812f03          	lw	t5,72(sp)
   18dfc:	06012b83          	lw	s7,96(sp)
   18e00:	04f12423          	sw	a5,72(sp)
   18e04:	03812783          	lw	a5,56(sp)
   18e08:	06412a83          	lw	s5,100(sp)
   18e0c:	05012903          	lw	s2,80(sp)
   18e10:	04f12023          	sw	a5,64(sp)
   18e14:	02012783          	lw	a5,32(sp)
   18e18:	06812303          	lw	t1,104(sp)
   18e1c:	a807d2e3          	bgez	a5,188a0 <__gdtoa+0x155c>
   18e20:	02012423          	sw	zero,40(sp)
   18e24:	915fe06f          	j	17738 <__gdtoa+0x3f4>
   18e28:	00912623          	sw	s1,12(sp)
   18e2c:	03900693          	li	a3,57
   18e30:	01012f03          	lw	t5,16(sp)
   18e34:	01412903          	lw	s2,20(sp)
   18e38:	000c0313          	mv	t1,s8
   18e3c:	86dc8ee3          	beq	s9,a3,186b8 <__gdtoa+0x1374>
   18e40:	0f605663          	blez	s6,18f2c <__gdtoa+0x1be8>
   18e44:	031b8c93          	add	s9,s7,49
   18e48:	02000c13          	li	s8,32
   18e4c:	000a0413          	mv	s0,s4
   18e50:	001d8b13          	add	s6,s11,1
   18e54:	019d8023          	sb	s9,0(s11)
   18e58:	000a8a13          	mv	s4,s5
   18e5c:	c60ff06f          	j	182bc <__gdtoa+0xf78>
   18e60:	00040593          	mv	a1,s0
   18e64:	00048513          	mv	a0,s1
   18e68:	00000613          	li	a2,0
   18e6c:	00000693          	li	a3,0
   18e70:	01e12823          	sw	t5,16(sp)
   18e74:	3d1040ef          	jal	1da44 <__eqdf2>
   18e78:	05412703          	lw	a4,84(sp)
   18e7c:	00a037b3          	snez	a5,a0
   18e80:	00479c13          	sll	s8,a5,0x4
   18e84:	01012f03          	lw	t5,16(sp)
   18e88:	000b0793          	mv	a5,s6
   18e8c:	00170413          	add	s0,a4,1 # fcc00001 <__BSS_END__+0xfcbdc4e1>
   18e90:	e81ff06f          	j	18d10 <__gdtoa+0x19cc>
   18e94:	0147a683          	lw	a3,20(a5)
   18e98:	c0069a63          	bnez	a3,182ac <__gdtoa+0xf68>
   18e9c:	02812c03          	lw	s8,40(sp)
   18ea0:	c0cff06f          	j	182ac <__gdtoa+0xf68>
   18ea4:	00051663          	bnez	a0,18eb0 <__gdtoa+0x1b6c>
   18ea8:	001cf693          	and	a3,s9,1
   18eac:	b00692e3          	bnez	a3,189b0 <__gdtoa+0x166c>
   18eb0:	02000793          	li	a5,32
   18eb4:	02f12423          	sw	a5,40(sp)
   18eb8:	bdcff06f          	j	18294 <__gdtoa+0xf50>
   18ebc:	04c12783          	lw	a5,76(sp)
   18ec0:	00f12e23          	sw	a5,28(sp)
   18ec4:	dd4ff06f          	j	18498 <__gdtoa+0x1154>
   18ec8:	00912623          	sw	s1,12(sp)
   18ecc:	03900693          	li	a3,57
   18ed0:	000b0313          	mv	t1,s6
   18ed4:	000c0f13          	mv	t5,s8
   18ed8:	00dc8e63          	beq	s9,a3,18ef4 <__gdtoa+0x1bb0>
   18edc:	001c8c93          	add	s9,s9,1
   18ee0:	02000c13          	li	s8,32
   18ee4:	bc8ff06f          	j	182ac <__gdtoa+0xf68>
   18ee8:	01000c13          	li	s8,16
   18eec:	001d8993          	add	s3,s11,1
   18ef0:	bbcff06f          	j	182ac <__gdtoa+0xf68>
   18ef4:	000a0413          	mv	s0,s4
   18ef8:	000d8793          	mv	a5,s11
   18efc:	000a8a13          	mv	s4,s5
   18f00:	fc8ff06f          	j	186c8 <__gdtoa+0x1384>
   18f04:	0104a603          	lw	a2,16(s1)
   18f08:	00100693          	li	a3,1
   18f0c:	00048793          	mv	a5,s1
   18f10:	00c6d463          	bge	a3,a2,18f18 <__gdtoa+0x1bd4>
   18f14:	b1dfe06f          	j	17a30 <__gdtoa+0x6ec>
   18f18:	0147a683          	lw	a3,20(a5)
   18f1c:	00068463          	beqz	a3,18f24 <__gdtoa+0x1be0>
   18f20:	b11fe06f          	j	17a30 <__gdtoa+0x6ec>
   18f24:	001d8993          	add	s3,s11,1
   18f28:	b84ff06f          	j	182ac <__gdtoa+0xf68>
   18f2c:	00c12783          	lw	a5,12(sp)
   18f30:	00100693          	li	a3,1
   18f34:	01000c13          	li	s8,16
   18f38:	0107a603          	lw	a2,16(a5)
   18f3c:	f0c6c8e3          	blt	a3,a2,18e4c <__gdtoa+0x1b08>
   18f40:	0147a683          	lw	a3,20(a5)
   18f44:	00d036b3          	snez	a3,a3
   18f48:	00469c13          	sll	s8,a3,0x4
   18f4c:	f01ff06f          	j	18e4c <__gdtoa+0x1b08>
   18f50:	020b4263          	bltz	s6,18f74 <__gdtoa+0x1c30>
   18f54:	016d6b33          	or	s6,s10,s6
   18f58:	000b1863          	bnez	s6,18f68 <__gdtoa+0x1c24>
   18f5c:	0009a783          	lw	a5,0(s3)
   18f60:	0017f793          	and	a5,a5,1
   18f64:	00078863          	beqz	a5,18f74 <__gdtoa+0x1c30>
   18f68:	00d04463          	bgtz	a3,18f70 <__gdtoa+0x1c2c>
   18f6c:	991fe06f          	j	178fc <__gdtoa+0x5b8>
   18f70:	981fe06f          	j	178f0 <__gdtoa+0x5ac>
   18f74:	02812703          	lw	a4,40(sp)
   18f78:	00912623          	sw	s1,12(sp)
   18f7c:	01012f03          	lw	t5,16(sp)
   18f80:	01412903          	lw	s2,20(sp)
   18f84:	000c0313          	mv	t1,s8
   18f88:	02070863          	beqz	a4,18fb8 <__gdtoa+0x1c74>
   18f8c:	0104a583          	lw	a1,16(s1)
   18f90:	00100613          	li	a2,1
   18f94:	00b65463          	bge	a2,a1,18f9c <__gdtoa+0x1c58>
   18f98:	a99fe06f          	j	17a30 <__gdtoa+0x6ec>
   18f9c:	0144a603          	lw	a2,20(s1)
   18fa0:	00060463          	beqz	a2,18fa8 <__gdtoa+0x1c64>
   18fa4:	a8dfe06f          	j	17a30 <__gdtoa+0x6ec>
   18fa8:	9cd048e3          	bgtz	a3,18978 <__gdtoa+0x1634>
   18fac:	00000c13          	li	s8,0
   18fb0:	001d8993          	add	s3,s11,1
   18fb4:	af8ff06f          	j	182ac <__gdtoa+0xf68>
   18fb8:	acd05e63          	blez	a3,18294 <__gdtoa+0xf50>
   18fbc:	9bdff06f          	j	18978 <__gdtoa+0x1634>

00018fc0 <__rv_alloc_D2A>:
   18fc0:	ff010113          	add	sp,sp,-16
   18fc4:	00812423          	sw	s0,8(sp)
   18fc8:	00112623          	sw	ra,12(sp)
   18fcc:	01300793          	li	a5,19
   18fd0:	00000413          	li	s0,0
   18fd4:	00b7fc63          	bgeu	a5,a1,18fec <__rv_alloc_D2A+0x2c>
   18fd8:	00400793          	li	a5,4
   18fdc:	00179793          	sll	a5,a5,0x1
   18fe0:	01078713          	add	a4,a5,16
   18fe4:	00140413          	add	s0,s0,1
   18fe8:	fee5fae3          	bgeu	a1,a4,18fdc <__rv_alloc_D2A+0x1c>
   18fec:	00040593          	mv	a1,s0
   18ff0:	514000ef          	jal	19504 <_Balloc>
   18ff4:	00050663          	beqz	a0,19000 <__rv_alloc_D2A+0x40>
   18ff8:	00852023          	sw	s0,0(a0)
   18ffc:	00450513          	add	a0,a0,4
   19000:	00c12083          	lw	ra,12(sp)
   19004:	00812403          	lw	s0,8(sp)
   19008:	01010113          	add	sp,sp,16
   1900c:	00008067          	ret

00019010 <__nrv_alloc_D2A>:
   19010:	ff010113          	add	sp,sp,-16
   19014:	00812423          	sw	s0,8(sp)
   19018:	01212023          	sw	s2,0(sp)
   1901c:	00112623          	sw	ra,12(sp)
   19020:	00912223          	sw	s1,4(sp)
   19024:	01300793          	li	a5,19
   19028:	00058413          	mv	s0,a1
   1902c:	00060913          	mv	s2,a2
   19030:	06d7fe63          	bgeu	a5,a3,190ac <__nrv_alloc_D2A+0x9c>
   19034:	00400793          	li	a5,4
   19038:	00000493          	li	s1,0
   1903c:	00179793          	sll	a5,a5,0x1
   19040:	01078713          	add	a4,a5,16
   19044:	00148493          	add	s1,s1,1
   19048:	fee6fae3          	bgeu	a3,a4,1903c <__nrv_alloc_D2A+0x2c>
   1904c:	00048593          	mv	a1,s1
   19050:	4b4000ef          	jal	19504 <_Balloc>
   19054:	00050793          	mv	a5,a0
   19058:	04050e63          	beqz	a0,190b4 <__nrv_alloc_D2A+0xa4>
   1905c:	00952023          	sw	s1,0(a0)
   19060:	00044703          	lbu	a4,0(s0)
   19064:	00450513          	add	a0,a0,4
   19068:	00140593          	add	a1,s0,1
   1906c:	00e78223          	sb	a4,4(a5)
   19070:	00050793          	mv	a5,a0
   19074:	00070c63          	beqz	a4,1908c <__nrv_alloc_D2A+0x7c>
   19078:	0005c703          	lbu	a4,0(a1)
   1907c:	00178793          	add	a5,a5,1
   19080:	00158593          	add	a1,a1,1
   19084:	00e78023          	sb	a4,0(a5)
   19088:	fe0718e3          	bnez	a4,19078 <__nrv_alloc_D2A+0x68>
   1908c:	00090463          	beqz	s2,19094 <__nrv_alloc_D2A+0x84>
   19090:	00f92023          	sw	a5,0(s2)
   19094:	00c12083          	lw	ra,12(sp)
   19098:	00812403          	lw	s0,8(sp)
   1909c:	00412483          	lw	s1,4(sp)
   190a0:	00012903          	lw	s2,0(sp)
   190a4:	01010113          	add	sp,sp,16
   190a8:	00008067          	ret
   190ac:	00000493          	li	s1,0
   190b0:	f9dff06f          	j	1904c <__nrv_alloc_D2A+0x3c>
   190b4:	00000513          	li	a0,0
   190b8:	fddff06f          	j	19094 <__nrv_alloc_D2A+0x84>

000190bc <__freedtoa>:
   190bc:	ffc5a683          	lw	a3,-4(a1)
   190c0:	00100713          	li	a4,1
   190c4:	00058793          	mv	a5,a1
   190c8:	00d71733          	sll	a4,a4,a3
   190cc:	ffc58593          	add	a1,a1,-4
   190d0:	00d7a023          	sw	a3,0(a5)
   190d4:	00e7a223          	sw	a4,4(a5)
   190d8:	4e00006f          	j	195b8 <_Bfree>

000190dc <__quorem_D2A>:
   190dc:	fb010113          	add	sp,sp,-80
   190e0:	04912223          	sw	s1,68(sp)
   190e4:	01052783          	lw	a5,16(a0)
   190e8:	0105a483          	lw	s1,16(a1)
   190ec:	04112623          	sw	ra,76(sp)
   190f0:	00b12423          	sw	a1,8(sp)
   190f4:	2297c263          	blt	a5,s1,19318 <__quorem_D2A+0x23c>
   190f8:	fff48493          	add	s1,s1,-1
   190fc:	03512a23          	sw	s5,52(sp)
   19100:	03712623          	sw	s7,44(sp)
   19104:	00249a93          	sll	s5,s1,0x2
   19108:	01458b93          	add	s7,a1,20
   1910c:	05212023          	sw	s2,64(sp)
   19110:	03312e23          	sw	s3,60(sp)
   19114:	015b8933          	add	s2,s7,s5
   19118:	01450993          	add	s3,a0,20
   1911c:	015987b3          	add	a5,s3,s5
   19120:	03812423          	sw	s8,40(sp)
   19124:	00092c03          	lw	s8,0(s2)
   19128:	03912223          	sw	s9,36(sp)
   1912c:	0007ac83          	lw	s9,0(a5)
   19130:	001c0c13          	add	s8,s8,1
   19134:	03412c23          	sw	s4,56(sp)
   19138:	000c0593          	mv	a1,s8
   1913c:	00050a13          	mv	s4,a0
   19140:	000c8513          	mv	a0,s9
   19144:	04812423          	sw	s0,72(sp)
   19148:	00f12623          	sw	a5,12(sp)
   1914c:	389080ef          	jal	21cd4 <__hidden___udivsi3>
   19150:	00050413          	mv	s0,a0
   19154:	0f8ce263          	bltu	s9,s8,19238 <__quorem_D2A+0x15c>
   19158:	00010cb7          	lui	s9,0x10
   1915c:	03a12023          	sw	s10,32(sp)
   19160:	01b12e23          	sw	s11,28(sp)
   19164:	03612823          	sw	s6,48(sp)
   19168:	000b8d93          	mv	s11,s7
   1916c:	00098d13          	mv	s10,s3
   19170:	00000c13          	li	s8,0
   19174:	00000a93          	li	s5,0
   19178:	fffc8c93          	add	s9,s9,-1 # ffff <exit-0x95>
   1917c:	000dab03          	lw	s6,0(s11)
   19180:	00040593          	mv	a1,s0
   19184:	004d0d13          	add	s10,s10,4
   19188:	019b7533          	and	a0,s6,s9
   1918c:	31d080ef          	jal	21ca8 <__mulsi3>
   19190:	00050793          	mv	a5,a0
   19194:	00040593          	mv	a1,s0
   19198:	010b5513          	srl	a0,s6,0x10
   1919c:	01878c33          	add	s8,a5,s8
   191a0:	309080ef          	jal	21ca8 <__mulsi3>
   191a4:	ffcd2783          	lw	a5,-4(s10)
   191a8:	019c7633          	and	a2,s8,s9
   191ac:	010c5c13          	srl	s8,s8,0x10
   191b0:	0197f733          	and	a4,a5,s9
   191b4:	40c70733          	sub	a4,a4,a2
   191b8:	41570733          	sub	a4,a4,s5
   191bc:	01850533          	add	a0,a0,s8
   191c0:	01075693          	srl	a3,a4,0x10
   191c4:	0016f693          	and	a3,a3,1
   191c8:	01957633          	and	a2,a0,s9
   191cc:	00c686b3          	add	a3,a3,a2
   191d0:	0107d793          	srl	a5,a5,0x10
   191d4:	40d787b3          	sub	a5,a5,a3
   191d8:	01079693          	sll	a3,a5,0x10
   191dc:	01977733          	and	a4,a4,s9
   191e0:	00e6e733          	or	a4,a3,a4
   191e4:	0107d793          	srl	a5,a5,0x10
   191e8:	004d8d93          	add	s11,s11,4
   191ec:	feed2e23          	sw	a4,-4(s10)
   191f0:	01055c13          	srl	s8,a0,0x10
   191f4:	0017fa93          	and	s5,a5,1
   191f8:	f9b972e3          	bgeu	s2,s11,1917c <__quorem_D2A+0xa0>
   191fc:	00c12703          	lw	a4,12(sp)
   19200:	00072783          	lw	a5,0(a4)
   19204:	12079463          	bnez	a5,1932c <__quorem_D2A+0x250>
   19208:	ffc70a93          	add	s5,a4,-4
   1920c:	0159e863          	bltu	s3,s5,1921c <__quorem_D2A+0x140>
   19210:	0180006f          	j	19228 <__quorem_D2A+0x14c>
   19214:	fff48493          	add	s1,s1,-1
   19218:	0159f863          	bgeu	s3,s5,19228 <__quorem_D2A+0x14c>
   1921c:	000aa783          	lw	a5,0(s5)
   19220:	ffca8a93          	add	s5,s5,-4
   19224:	fe0788e3          	beqz	a5,19214 <__quorem_D2A+0x138>
   19228:	03012b03          	lw	s6,48(sp)
   1922c:	02012d03          	lw	s10,32(sp)
   19230:	01c12d83          	lw	s11,28(sp)
   19234:	009a2823          	sw	s1,16(s4)
   19238:	00812583          	lw	a1,8(sp)
   1923c:	000a0513          	mv	a0,s4
   19240:	60d000ef          	jal	1a04c <__mcmp>
   19244:	0a054063          	bltz	a0,192e4 <__quorem_D2A+0x208>
   19248:	00010537          	lui	a0,0x10
   1924c:	00098593          	mv	a1,s3
   19250:	00000693          	li	a3,0
   19254:	fff50513          	add	a0,a0,-1 # ffff <exit-0x95>
   19258:	0005a783          	lw	a5,0(a1)
   1925c:	000ba603          	lw	a2,0(s7)
   19260:	00458593          	add	a1,a1,4
   19264:	00a7f733          	and	a4,a5,a0
   19268:	00a67833          	and	a6,a2,a0
   1926c:	41070733          	sub	a4,a4,a6
   19270:	40d70733          	sub	a4,a4,a3
   19274:	01075693          	srl	a3,a4,0x10
   19278:	0016f693          	and	a3,a3,1
   1927c:	01065613          	srl	a2,a2,0x10
   19280:	00c686b3          	add	a3,a3,a2
   19284:	0107d793          	srl	a5,a5,0x10
   19288:	40d787b3          	sub	a5,a5,a3
   1928c:	01079693          	sll	a3,a5,0x10
   19290:	00a77733          	and	a4,a4,a0
   19294:	00e6e733          	or	a4,a3,a4
   19298:	0107d793          	srl	a5,a5,0x10
   1929c:	004b8b93          	add	s7,s7,4
   192a0:	fee5ae23          	sw	a4,-4(a1)
   192a4:	0017f693          	and	a3,a5,1
   192a8:	fb7978e3          	bgeu	s2,s7,19258 <__quorem_D2A+0x17c>
   192ac:	00249793          	sll	a5,s1,0x2
   192b0:	00f987b3          	add	a5,s3,a5
   192b4:	0007a703          	lw	a4,0(a5)
   192b8:	02071463          	bnez	a4,192e0 <__quorem_D2A+0x204>
   192bc:	ffc78793          	add	a5,a5,-4
   192c0:	00f9e863          	bltu	s3,a5,192d0 <__quorem_D2A+0x1f4>
   192c4:	0180006f          	j	192dc <__quorem_D2A+0x200>
   192c8:	fff48493          	add	s1,s1,-1
   192cc:	00f9f863          	bgeu	s3,a5,192dc <__quorem_D2A+0x200>
   192d0:	0007a703          	lw	a4,0(a5)
   192d4:	ffc78793          	add	a5,a5,-4
   192d8:	fe0708e3          	beqz	a4,192c8 <__quorem_D2A+0x1ec>
   192dc:	009a2823          	sw	s1,16(s4)
   192e0:	00140413          	add	s0,s0,1
   192e4:	04c12083          	lw	ra,76(sp)
   192e8:	00040513          	mv	a0,s0
   192ec:	04812403          	lw	s0,72(sp)
   192f0:	04012903          	lw	s2,64(sp)
   192f4:	03c12983          	lw	s3,60(sp)
   192f8:	03812a03          	lw	s4,56(sp)
   192fc:	03412a83          	lw	s5,52(sp)
   19300:	02c12b83          	lw	s7,44(sp)
   19304:	02812c03          	lw	s8,40(sp)
   19308:	02412c83          	lw	s9,36(sp)
   1930c:	04412483          	lw	s1,68(sp)
   19310:	05010113          	add	sp,sp,80
   19314:	00008067          	ret
   19318:	04c12083          	lw	ra,76(sp)
   1931c:	04412483          	lw	s1,68(sp)
   19320:	00000513          	li	a0,0
   19324:	05010113          	add	sp,sp,80
   19328:	00008067          	ret
   1932c:	00812583          	lw	a1,8(sp)
   19330:	000a0513          	mv	a0,s4
   19334:	03012b03          	lw	s6,48(sp)
   19338:	02012d03          	lw	s10,32(sp)
   1933c:	01c12d83          	lw	s11,28(sp)
   19340:	50d000ef          	jal	1a04c <__mcmp>
   19344:	f00552e3          	bgez	a0,19248 <__quorem_D2A+0x16c>
   19348:	f9dff06f          	j	192e4 <__quorem_D2A+0x208>

0001934c <__rshift_D2A>:
   1934c:	01052803          	lw	a6,16(a0)
   19350:	4055de13          	sra	t3,a1,0x5
   19354:	010e4863          	blt	t3,a6,19364 <__rshift_D2A+0x18>
   19358:	00052823          	sw	zero,16(a0)
   1935c:	00052a23          	sw	zero,20(a0)
   19360:	00008067          	ret
   19364:	01450313          	add	t1,a0,20
   19368:	00281613          	sll	a2,a6,0x2
   1936c:	002e1793          	sll	a5,t3,0x2
   19370:	01f5f593          	and	a1,a1,31
   19374:	00c30633          	add	a2,t1,a2
   19378:	00f307b3          	add	a5,t1,a5
   1937c:	06058263          	beqz	a1,193e0 <__rshift_D2A+0x94>
   19380:	0007a683          	lw	a3,0(a5)
   19384:	02000e93          	li	t4,32
   19388:	00478793          	add	a5,a5,4
   1938c:	40be8eb3          	sub	t4,t4,a1
   19390:	00b6d6b3          	srl	a3,a3,a1
   19394:	08c7f463          	bgeu	a5,a2,1941c <__rshift_D2A+0xd0>
   19398:	00030893          	mv	a7,t1
   1939c:	0007a703          	lw	a4,0(a5)
   193a0:	00488893          	add	a7,a7,4 # 80000004 <__BSS_END__+0x7ffdc4e4>
   193a4:	00478793          	add	a5,a5,4
   193a8:	01d71733          	sll	a4,a4,t4
   193ac:	00d76733          	or	a4,a4,a3
   193b0:	fee8ae23          	sw	a4,-4(a7)
   193b4:	ffc7a683          	lw	a3,-4(a5)
   193b8:	00b6d6b3          	srl	a3,a3,a1
   193bc:	fec7e0e3          	bltu	a5,a2,1939c <__rshift_D2A+0x50>
   193c0:	41c80833          	sub	a6,a6,t3
   193c4:	00281813          	sll	a6,a6,0x2
   193c8:	ffc80813          	add	a6,a6,-4
   193cc:	01030833          	add	a6,t1,a6
   193d0:	00d82023          	sw	a3,0(a6)
   193d4:	02068a63          	beqz	a3,19408 <__rshift_D2A+0xbc>
   193d8:	00480813          	add	a6,a6,4
   193dc:	02c0006f          	j	19408 <__rshift_D2A+0xbc>
   193e0:	00030713          	mv	a4,t1
   193e4:	f6c7fae3          	bgeu	a5,a2,19358 <__rshift_D2A+0xc>
   193e8:	0007a683          	lw	a3,0(a5)
   193ec:	00478793          	add	a5,a5,4
   193f0:	00470713          	add	a4,a4,4
   193f4:	fed72e23          	sw	a3,-4(a4)
   193f8:	fec7e8e3          	bltu	a5,a2,193e8 <__rshift_D2A+0x9c>
   193fc:	41c80833          	sub	a6,a6,t3
   19400:	00281813          	sll	a6,a6,0x2
   19404:	01030833          	add	a6,t1,a6
   19408:	406807b3          	sub	a5,a6,t1
   1940c:	4027d793          	sra	a5,a5,0x2
   19410:	00f52823          	sw	a5,16(a0)
   19414:	f46804e3          	beq	a6,t1,1935c <__rshift_D2A+0x10>
   19418:	00008067          	ret
   1941c:	00d52a23          	sw	a3,20(a0)
   19420:	f2068ce3          	beqz	a3,19358 <__rshift_D2A+0xc>
   19424:	00030813          	mv	a6,t1
   19428:	00480813          	add	a6,a6,4
   1942c:	fddff06f          	j	19408 <__rshift_D2A+0xbc>

00019430 <__trailz_D2A>:
   19430:	01052703          	lw	a4,16(a0)
   19434:	fe010113          	add	sp,sp,-32
   19438:	01450513          	add	a0,a0,20
   1943c:	00271713          	sll	a4,a4,0x2
   19440:	00812c23          	sw	s0,24(sp)
   19444:	00112e23          	sw	ra,28(sp)
   19448:	00e50733          	add	a4,a0,a4
   1944c:	00000413          	li	s0,0
   19450:	00e56a63          	bltu	a0,a4,19464 <__trailz_D2A+0x34>
   19454:	02c0006f          	j	19480 <__trailz_D2A+0x50>
   19458:	00450513          	add	a0,a0,4
   1945c:	02040413          	add	s0,s0,32
   19460:	02e57063          	bgeu	a0,a4,19480 <__trailz_D2A+0x50>
   19464:	00052783          	lw	a5,0(a0)
   19468:	fe0788e3          	beqz	a5,19458 <__trailz_D2A+0x28>
   1946c:	00e57a63          	bgeu	a0,a4,19480 <__trailz_D2A+0x50>
   19470:	00c10513          	add	a0,sp,12
   19474:	00f12623          	sw	a5,12(sp)
   19478:	49c000ef          	jal	19914 <__lo0bits>
   1947c:	00a40433          	add	s0,s0,a0
   19480:	01c12083          	lw	ra,28(sp)
   19484:	00040513          	mv	a0,s0
   19488:	01812403          	lw	s0,24(sp)
   1948c:	02010113          	add	sp,sp,32
   19490:	00008067          	ret

00019494 <_mbtowc_r>:
   19494:	e1c1a783          	lw	a5,-484(gp) # 236dc <__global_locale+0xe4>
   19498:	00078067          	jr	a5

0001949c <__ascii_mbtowc>:
   1949c:	02058063          	beqz	a1,194bc <__ascii_mbtowc+0x20>
   194a0:	04060263          	beqz	a2,194e4 <__ascii_mbtowc+0x48>
   194a4:	04068863          	beqz	a3,194f4 <__ascii_mbtowc+0x58>
   194a8:	00064783          	lbu	a5,0(a2)
   194ac:	00f5a023          	sw	a5,0(a1)
   194b0:	00064503          	lbu	a0,0(a2)
   194b4:	00a03533          	snez	a0,a0
   194b8:	00008067          	ret
   194bc:	ff010113          	add	sp,sp,-16
   194c0:	00c10593          	add	a1,sp,12
   194c4:	02060463          	beqz	a2,194ec <__ascii_mbtowc+0x50>
   194c8:	02068a63          	beqz	a3,194fc <__ascii_mbtowc+0x60>
   194cc:	00064783          	lbu	a5,0(a2)
   194d0:	00f5a023          	sw	a5,0(a1)
   194d4:	00064503          	lbu	a0,0(a2)
   194d8:	00a03533          	snez	a0,a0
   194dc:	01010113          	add	sp,sp,16
   194e0:	00008067          	ret
   194e4:	00000513          	li	a0,0
   194e8:	00008067          	ret
   194ec:	00000513          	li	a0,0
   194f0:	fedff06f          	j	194dc <__ascii_mbtowc+0x40>
   194f4:	ffe00513          	li	a0,-2
   194f8:	00008067          	ret
   194fc:	ffe00513          	li	a0,-2
   19500:	fddff06f          	j	194dc <__ascii_mbtowc+0x40>

00019504 <_Balloc>:
   19504:	04452783          	lw	a5,68(a0)
   19508:	ff010113          	add	sp,sp,-16
   1950c:	00812423          	sw	s0,8(sp)
   19510:	00912223          	sw	s1,4(sp)
   19514:	00112623          	sw	ra,12(sp)
   19518:	00050413          	mv	s0,a0
   1951c:	00058493          	mv	s1,a1
   19520:	02078c63          	beqz	a5,19558 <_Balloc+0x54>
   19524:	00249713          	sll	a4,s1,0x2
   19528:	00e787b3          	add	a5,a5,a4
   1952c:	0007a503          	lw	a0,0(a5)
   19530:	04050463          	beqz	a0,19578 <_Balloc+0x74>
   19534:	00052703          	lw	a4,0(a0)
   19538:	00e7a023          	sw	a4,0(a5)
   1953c:	00052823          	sw	zero,16(a0)
   19540:	00052623          	sw	zero,12(a0)
   19544:	00c12083          	lw	ra,12(sp)
   19548:	00812403          	lw	s0,8(sp)
   1954c:	00412483          	lw	s1,4(sp)
   19550:	01010113          	add	sp,sp,16
   19554:	00008067          	ret
   19558:	02100613          	li	a2,33
   1955c:	00400593          	li	a1,4
   19560:	661010ef          	jal	1b3c0 <_calloc_r>
   19564:	04a42223          	sw	a0,68(s0)
   19568:	00050793          	mv	a5,a0
   1956c:	fa051ce3          	bnez	a0,19524 <_Balloc+0x20>
   19570:	00000513          	li	a0,0
   19574:	fd1ff06f          	j	19544 <_Balloc+0x40>
   19578:	01212023          	sw	s2,0(sp)
   1957c:	00100913          	li	s2,1
   19580:	00991933          	sll	s2,s2,s1
   19584:	00590613          	add	a2,s2,5
   19588:	00261613          	sll	a2,a2,0x2
   1958c:	00100593          	li	a1,1
   19590:	00040513          	mv	a0,s0
   19594:	62d010ef          	jal	1b3c0 <_calloc_r>
   19598:	00050a63          	beqz	a0,195ac <_Balloc+0xa8>
   1959c:	01252423          	sw	s2,8(a0)
   195a0:	00952223          	sw	s1,4(a0)
   195a4:	00012903          	lw	s2,0(sp)
   195a8:	f95ff06f          	j	1953c <_Balloc+0x38>
   195ac:	00012903          	lw	s2,0(sp)
   195b0:	00000513          	li	a0,0
   195b4:	f91ff06f          	j	19544 <_Balloc+0x40>

000195b8 <_Bfree>:
   195b8:	02058063          	beqz	a1,195d8 <_Bfree+0x20>
   195bc:	0045a703          	lw	a4,4(a1)
   195c0:	04452783          	lw	a5,68(a0)
   195c4:	00271713          	sll	a4,a4,0x2
   195c8:	00e787b3          	add	a5,a5,a4
   195cc:	0007a703          	lw	a4,0(a5)
   195d0:	00e5a023          	sw	a4,0(a1)
   195d4:	00b7a023          	sw	a1,0(a5)
   195d8:	00008067          	ret

000195dc <__multadd>:
   195dc:	fd010113          	add	sp,sp,-48
   195e0:	01412c23          	sw	s4,24(sp)
   195e4:	0105aa03          	lw	s4,16(a1)
   195e8:	01912223          	sw	s9,4(sp)
   195ec:	00010cb7          	lui	s9,0x10
   195f0:	02912223          	sw	s1,36(sp)
   195f4:	03212023          	sw	s2,32(sp)
   195f8:	01312e23          	sw	s3,28(sp)
   195fc:	01512a23          	sw	s5,20(sp)
   19600:	01612823          	sw	s6,16(sp)
   19604:	01712623          	sw	s7,12(sp)
   19608:	02112623          	sw	ra,44(sp)
   1960c:	02812423          	sw	s0,40(sp)
   19610:	01812423          	sw	s8,8(sp)
   19614:	00058a93          	mv	s5,a1
   19618:	00050b13          	mv	s6,a0
   1961c:	00060993          	mv	s3,a2
   19620:	00068493          	mv	s1,a3
   19624:	01458913          	add	s2,a1,20
   19628:	00000b93          	li	s7,0
   1962c:	fffc8c93          	add	s9,s9,-1 # ffff <exit-0x95>
   19630:	00092c03          	lw	s8,0(s2)
   19634:	00098593          	mv	a1,s3
   19638:	00490913          	add	s2,s2,4
   1963c:	019c7533          	and	a0,s8,s9
   19640:	668080ef          	jal	21ca8 <__mulsi3>
   19644:	00050413          	mv	s0,a0
   19648:	00098593          	mv	a1,s3
   1964c:	010c5513          	srl	a0,s8,0x10
   19650:	00940433          	add	s0,s0,s1
   19654:	654080ef          	jal	21ca8 <__mulsi3>
   19658:	01045793          	srl	a5,s0,0x10
   1965c:	00f50533          	add	a0,a0,a5
   19660:	01051793          	sll	a5,a0,0x10
   19664:	01947433          	and	s0,s0,s9
   19668:	008787b3          	add	a5,a5,s0
   1966c:	fef92e23          	sw	a5,-4(s2)
   19670:	001b8b93          	add	s7,s7,1
   19674:	01055493          	srl	s1,a0,0x10
   19678:	fb4bcce3          	blt	s7,s4,19630 <__multadd+0x54>
   1967c:	02048263          	beqz	s1,196a0 <__multadd+0xc4>
   19680:	008aa783          	lw	a5,8(s5)
   19684:	04fa5a63          	bge	s4,a5,196d8 <__multadd+0xfc>
   19688:	004a0793          	add	a5,s4,4
   1968c:	00279793          	sll	a5,a5,0x2
   19690:	00fa87b3          	add	a5,s5,a5
   19694:	0097a223          	sw	s1,4(a5)
   19698:	001a0a13          	add	s4,s4,1
   1969c:	014aa823          	sw	s4,16(s5)
   196a0:	02c12083          	lw	ra,44(sp)
   196a4:	02812403          	lw	s0,40(sp)
   196a8:	02412483          	lw	s1,36(sp)
   196ac:	02012903          	lw	s2,32(sp)
   196b0:	01c12983          	lw	s3,28(sp)
   196b4:	01812a03          	lw	s4,24(sp)
   196b8:	01012b03          	lw	s6,16(sp)
   196bc:	00c12b83          	lw	s7,12(sp)
   196c0:	00812c03          	lw	s8,8(sp)
   196c4:	00412c83          	lw	s9,4(sp)
   196c8:	000a8513          	mv	a0,s5
   196cc:	01412a83          	lw	s5,20(sp)
   196d0:	03010113          	add	sp,sp,48
   196d4:	00008067          	ret
   196d8:	004aa583          	lw	a1,4(s5)
   196dc:	000b0513          	mv	a0,s6
   196e0:	00158593          	add	a1,a1,1
   196e4:	e21ff0ef          	jal	19504 <_Balloc>
   196e8:	00050413          	mv	s0,a0
   196ec:	04050c63          	beqz	a0,19744 <__multadd+0x168>
   196f0:	010aa603          	lw	a2,16(s5)
   196f4:	00ca8593          	add	a1,s5,12
   196f8:	00c50513          	add	a0,a0,12
   196fc:	00260613          	add	a2,a2,2
   19700:	00261613          	sll	a2,a2,0x2
   19704:	a64fd0ef          	jal	16968 <memcpy>
   19708:	004aa703          	lw	a4,4(s5)
   1970c:	044b2783          	lw	a5,68(s6)
   19710:	00271713          	sll	a4,a4,0x2
   19714:	00e787b3          	add	a5,a5,a4
   19718:	0007a703          	lw	a4,0(a5)
   1971c:	00eaa023          	sw	a4,0(s5)
   19720:	0157a023          	sw	s5,0(a5)
   19724:	004a0793          	add	a5,s4,4
   19728:	00040a93          	mv	s5,s0
   1972c:	00279793          	sll	a5,a5,0x2
   19730:	00fa87b3          	add	a5,s5,a5
   19734:	0097a223          	sw	s1,4(a5)
   19738:	001a0a13          	add	s4,s4,1
   1973c:	014aa823          	sw	s4,16(s5)
   19740:	f61ff06f          	j	196a0 <__multadd+0xc4>
   19744:	00008697          	auipc	a3,0x8
   19748:	71468693          	add	a3,a3,1812 # 21e58 <__clzsi2+0xd8>
   1974c:	00000613          	li	a2,0
   19750:	0ba00593          	li	a1,186
   19754:	00008517          	auipc	a0,0x8
   19758:	71850513          	add	a0,a0,1816 # 21e6c <__clzsi2+0xec>
   1975c:	3fd010ef          	jal	1b358 <__assert_func>

00019760 <__s2b>:
   19760:	fe010113          	add	sp,sp,-32
   19764:	00812c23          	sw	s0,24(sp)
   19768:	01212823          	sw	s2,16(sp)
   1976c:	00058413          	mv	s0,a1
   19770:	00050913          	mv	s2,a0
   19774:	00900593          	li	a1,9
   19778:	00868513          	add	a0,a3,8
   1977c:	00912a23          	sw	s1,20(sp)
   19780:	01312623          	sw	s3,12(sp)
   19784:	01412423          	sw	s4,8(sp)
   19788:	00112e23          	sw	ra,28(sp)
   1978c:	00068493          	mv	s1,a3
   19790:	00060993          	mv	s3,a2
   19794:	00070a13          	mv	s4,a4
   19798:	534080ef          	jal	21ccc <__divsi3>
   1979c:	00900793          	li	a5,9
   197a0:	0c97da63          	bge	a5,s1,19874 <__s2b+0x114>
   197a4:	00100793          	li	a5,1
   197a8:	00000593          	li	a1,0
   197ac:	00179793          	sll	a5,a5,0x1
   197b0:	00158593          	add	a1,a1,1
   197b4:	fea7cce3          	blt	a5,a0,197ac <__s2b+0x4c>
   197b8:	00090513          	mv	a0,s2
   197bc:	d49ff0ef          	jal	19504 <_Balloc>
   197c0:	00050593          	mv	a1,a0
   197c4:	0a050c63          	beqz	a0,1987c <__s2b+0x11c>
   197c8:	00100793          	li	a5,1
   197cc:	00f52823          	sw	a5,16(a0)
   197d0:	01452a23          	sw	s4,20(a0)
   197d4:	00900793          	li	a5,9
   197d8:	0937d863          	bge	a5,s3,19868 <__s2b+0x108>
   197dc:	01512223          	sw	s5,4(sp)
   197e0:	00940a93          	add	s5,s0,9
   197e4:	01340a33          	add	s4,s0,s3
   197e8:	000a8413          	mv	s0,s5
   197ec:	00044683          	lbu	a3,0(s0)
   197f0:	00a00613          	li	a2,10
   197f4:	00090513          	mv	a0,s2
   197f8:	fd068693          	add	a3,a3,-48
   197fc:	de1ff0ef          	jal	195dc <__multadd>
   19800:	00140413          	add	s0,s0,1
   19804:	00050593          	mv	a1,a0
   19808:	ff4412e3          	bne	s0,s4,197ec <__s2b+0x8c>
   1980c:	ff898413          	add	s0,s3,-8
   19810:	008a8433          	add	s0,s5,s0
   19814:	00412a83          	lw	s5,4(sp)
   19818:	0299d663          	bge	s3,s1,19844 <__s2b+0xe4>
   1981c:	413484b3          	sub	s1,s1,s3
   19820:	009404b3          	add	s1,s0,s1
   19824:	00044683          	lbu	a3,0(s0)
   19828:	00a00613          	li	a2,10
   1982c:	00090513          	mv	a0,s2
   19830:	fd068693          	add	a3,a3,-48
   19834:	da9ff0ef          	jal	195dc <__multadd>
   19838:	00140413          	add	s0,s0,1
   1983c:	00050593          	mv	a1,a0
   19840:	fe9412e3          	bne	s0,s1,19824 <__s2b+0xc4>
   19844:	01c12083          	lw	ra,28(sp)
   19848:	01812403          	lw	s0,24(sp)
   1984c:	01412483          	lw	s1,20(sp)
   19850:	01012903          	lw	s2,16(sp)
   19854:	00c12983          	lw	s3,12(sp)
   19858:	00812a03          	lw	s4,8(sp)
   1985c:	00058513          	mv	a0,a1
   19860:	02010113          	add	sp,sp,32
   19864:	00008067          	ret
   19868:	00a40413          	add	s0,s0,10
   1986c:	00900993          	li	s3,9
   19870:	fa9ff06f          	j	19818 <__s2b+0xb8>
   19874:	00000593          	li	a1,0
   19878:	f41ff06f          	j	197b8 <__s2b+0x58>
   1987c:	00008697          	auipc	a3,0x8
   19880:	5dc68693          	add	a3,a3,1500 # 21e58 <__clzsi2+0xd8>
   19884:	00000613          	li	a2,0
   19888:	0d300593          	li	a1,211
   1988c:	00008517          	auipc	a0,0x8
   19890:	5e050513          	add	a0,a0,1504 # 21e6c <__clzsi2+0xec>
   19894:	01512223          	sw	s5,4(sp)
   19898:	2c1010ef          	jal	1b358 <__assert_func>

0001989c <__hi0bits>:
   1989c:	00050793          	mv	a5,a0
   198a0:	00010737          	lui	a4,0x10
   198a4:	00000513          	li	a0,0
   198a8:	00e7f663          	bgeu	a5,a4,198b4 <__hi0bits+0x18>
   198ac:	01079793          	sll	a5,a5,0x10
   198b0:	01000513          	li	a0,16
   198b4:	01000737          	lui	a4,0x1000
   198b8:	00e7f663          	bgeu	a5,a4,198c4 <__hi0bits+0x28>
   198bc:	00850513          	add	a0,a0,8
   198c0:	00879793          	sll	a5,a5,0x8
   198c4:	10000737          	lui	a4,0x10000
   198c8:	00e7f663          	bgeu	a5,a4,198d4 <__hi0bits+0x38>
   198cc:	00450513          	add	a0,a0,4
   198d0:	00479793          	sll	a5,a5,0x4
   198d4:	40000737          	lui	a4,0x40000
   198d8:	00e7ea63          	bltu	a5,a4,198ec <__hi0bits+0x50>
   198dc:	fff7c793          	not	a5,a5
   198e0:	01f7d793          	srl	a5,a5,0x1f
   198e4:	00f50533          	add	a0,a0,a5
   198e8:	00008067          	ret
   198ec:	00279793          	sll	a5,a5,0x2
   198f0:	0007ca63          	bltz	a5,19904 <__hi0bits+0x68>
   198f4:	00179713          	sll	a4,a5,0x1
   198f8:	00074a63          	bltz	a4,1990c <__hi0bits+0x70>
   198fc:	02000513          	li	a0,32
   19900:	00008067          	ret
   19904:	00250513          	add	a0,a0,2
   19908:	00008067          	ret
   1990c:	00350513          	add	a0,a0,3
   19910:	00008067          	ret

00019914 <__lo0bits>:
   19914:	00052783          	lw	a5,0(a0)
   19918:	00050713          	mv	a4,a0
   1991c:	0077f693          	and	a3,a5,7
   19920:	02068463          	beqz	a3,19948 <__lo0bits+0x34>
   19924:	0017f693          	and	a3,a5,1
   19928:	00000513          	li	a0,0
   1992c:	04069e63          	bnez	a3,19988 <__lo0bits+0x74>
   19930:	0027f693          	and	a3,a5,2
   19934:	0a068863          	beqz	a3,199e4 <__lo0bits+0xd0>
   19938:	0017d793          	srl	a5,a5,0x1
   1993c:	00f72023          	sw	a5,0(a4) # 40000000 <__BSS_END__+0x3ffdc4e0>
   19940:	00100513          	li	a0,1
   19944:	00008067          	ret
   19948:	01079693          	sll	a3,a5,0x10
   1994c:	0106d693          	srl	a3,a3,0x10
   19950:	00000513          	li	a0,0
   19954:	06068e63          	beqz	a3,199d0 <__lo0bits+0xbc>
   19958:	0ff7f693          	zext.b	a3,a5
   1995c:	06068063          	beqz	a3,199bc <__lo0bits+0xa8>
   19960:	00f7f693          	and	a3,a5,15
   19964:	04068263          	beqz	a3,199a8 <__lo0bits+0x94>
   19968:	0037f693          	and	a3,a5,3
   1996c:	02068463          	beqz	a3,19994 <__lo0bits+0x80>
   19970:	0017f693          	and	a3,a5,1
   19974:	00069c63          	bnez	a3,1998c <__lo0bits+0x78>
   19978:	0017d793          	srl	a5,a5,0x1
   1997c:	00150513          	add	a0,a0,1
   19980:	00079663          	bnez	a5,1998c <__lo0bits+0x78>
   19984:	02000513          	li	a0,32
   19988:	00008067          	ret
   1998c:	00f72023          	sw	a5,0(a4)
   19990:	00008067          	ret
   19994:	0027d793          	srl	a5,a5,0x2
   19998:	0017f693          	and	a3,a5,1
   1999c:	00250513          	add	a0,a0,2
   199a0:	fe0696e3          	bnez	a3,1998c <__lo0bits+0x78>
   199a4:	fd5ff06f          	j	19978 <__lo0bits+0x64>
   199a8:	0047d793          	srl	a5,a5,0x4
   199ac:	0037f693          	and	a3,a5,3
   199b0:	00450513          	add	a0,a0,4
   199b4:	fa069ee3          	bnez	a3,19970 <__lo0bits+0x5c>
   199b8:	fddff06f          	j	19994 <__lo0bits+0x80>
   199bc:	0087d793          	srl	a5,a5,0x8
   199c0:	00f7f693          	and	a3,a5,15
   199c4:	00850513          	add	a0,a0,8
   199c8:	fa0690e3          	bnez	a3,19968 <__lo0bits+0x54>
   199cc:	fddff06f          	j	199a8 <__lo0bits+0x94>
   199d0:	0107d793          	srl	a5,a5,0x10
   199d4:	0ff7f693          	zext.b	a3,a5
   199d8:	01000513          	li	a0,16
   199dc:	f80692e3          	bnez	a3,19960 <__lo0bits+0x4c>
   199e0:	fddff06f          	j	199bc <__lo0bits+0xa8>
   199e4:	0027d793          	srl	a5,a5,0x2
   199e8:	00f72023          	sw	a5,0(a4)
   199ec:	00200513          	li	a0,2
   199f0:	00008067          	ret

000199f4 <__i2b>:
   199f4:	04452783          	lw	a5,68(a0)
   199f8:	ff010113          	add	sp,sp,-16
   199fc:	00812423          	sw	s0,8(sp)
   19a00:	00912223          	sw	s1,4(sp)
   19a04:	00112623          	sw	ra,12(sp)
   19a08:	00050413          	mv	s0,a0
   19a0c:	00058493          	mv	s1,a1
   19a10:	02078c63          	beqz	a5,19a48 <__i2b+0x54>
   19a14:	0047a503          	lw	a0,4(a5)
   19a18:	06050263          	beqz	a0,19a7c <__i2b+0x88>
   19a1c:	00052703          	lw	a4,0(a0)
   19a20:	00e7a223          	sw	a4,4(a5)
   19a24:	00c12083          	lw	ra,12(sp)
   19a28:	00812403          	lw	s0,8(sp)
   19a2c:	00100793          	li	a5,1
   19a30:	00952a23          	sw	s1,20(a0)
   19a34:	00052623          	sw	zero,12(a0)
   19a38:	00f52823          	sw	a5,16(a0)
   19a3c:	00412483          	lw	s1,4(sp)
   19a40:	01010113          	add	sp,sp,16
   19a44:	00008067          	ret
   19a48:	02100613          	li	a2,33
   19a4c:	00400593          	li	a1,4
   19a50:	171010ef          	jal	1b3c0 <_calloc_r>
   19a54:	04a42223          	sw	a0,68(s0)
   19a58:	00050793          	mv	a5,a0
   19a5c:	fa051ce3          	bnez	a0,19a14 <__i2b+0x20>
   19a60:	00008697          	auipc	a3,0x8
   19a64:	3f868693          	add	a3,a3,1016 # 21e58 <__clzsi2+0xd8>
   19a68:	00000613          	li	a2,0
   19a6c:	14500593          	li	a1,325
   19a70:	00008517          	auipc	a0,0x8
   19a74:	3fc50513          	add	a0,a0,1020 # 21e6c <__clzsi2+0xec>
   19a78:	0e1010ef          	jal	1b358 <__assert_func>
   19a7c:	01c00613          	li	a2,28
   19a80:	00100593          	li	a1,1
   19a84:	00040513          	mv	a0,s0
   19a88:	139010ef          	jal	1b3c0 <_calloc_r>
   19a8c:	fc050ae3          	beqz	a0,19a60 <__i2b+0x6c>
   19a90:	00100793          	li	a5,1
   19a94:	00f52223          	sw	a5,4(a0)
   19a98:	00200793          	li	a5,2
   19a9c:	00f52423          	sw	a5,8(a0)
   19aa0:	f85ff06f          	j	19a24 <__i2b+0x30>

00019aa4 <__multiply>:
   19aa4:	fb010113          	add	sp,sp,-80
   19aa8:	03312e23          	sw	s3,60(sp)
   19aac:	03812423          	sw	s8,40(sp)
   19ab0:	01062983          	lw	s3,16(a2)
   19ab4:	0105ac03          	lw	s8,16(a1)
   19ab8:	04812423          	sw	s0,72(sp)
   19abc:	03412c23          	sw	s4,56(sp)
   19ac0:	04112623          	sw	ra,76(sp)
   19ac4:	03712623          	sw	s7,44(sp)
   19ac8:	00058a13          	mv	s4,a1
   19acc:	00060413          	mv	s0,a2
   19ad0:	013c4c63          	blt	s8,s3,19ae8 <__multiply+0x44>
   19ad4:	00098713          	mv	a4,s3
   19ad8:	00058413          	mv	s0,a1
   19adc:	000c0993          	mv	s3,s8
   19ae0:	00060a13          	mv	s4,a2
   19ae4:	00070c13          	mv	s8,a4
   19ae8:	00842783          	lw	a5,8(s0)
   19aec:	00442583          	lw	a1,4(s0)
   19af0:	01898bb3          	add	s7,s3,s8
   19af4:	0177a7b3          	slt	a5,a5,s7
   19af8:	00f585b3          	add	a1,a1,a5
   19afc:	a09ff0ef          	jal	19504 <_Balloc>
   19b00:	00a12623          	sw	a0,12(sp)
   19b04:	22050863          	beqz	a0,19d34 <__multiply+0x290>
   19b08:	00c12783          	lw	a5,12(sp)
   19b0c:	03512a23          	sw	s5,52(sp)
   19b10:	03612823          	sw	s6,48(sp)
   19b14:	002b9a93          	sll	s5,s7,0x2
   19b18:	01478b13          	add	s6,a5,20
   19b1c:	015b0ab3          	add	s5,s6,s5
   19b20:	000b0793          	mv	a5,s6
   19b24:	015b7863          	bgeu	s6,s5,19b34 <__multiply+0x90>
   19b28:	0007a023          	sw	zero,0(a5)
   19b2c:	00478793          	add	a5,a5,4
   19b30:	ff57ece3          	bltu	a5,s5,19b28 <__multiply+0x84>
   19b34:	014a0a13          	add	s4,s4,20
   19b38:	002c1c13          	sll	s8,s8,0x2
   19b3c:	01440793          	add	a5,s0,20
   19b40:	018a0733          	add	a4,s4,s8
   19b44:	00299993          	sll	s3,s3,0x2
   19b48:	00f12423          	sw	a5,8(sp)
   19b4c:	00e12023          	sw	a4,0(sp)
   19b50:	013789b3          	add	s3,a5,s3
   19b54:	16ea7c63          	bgeu	s4,a4,19ccc <__multiply+0x228>
   19b58:	00400713          	li	a4,4
   19b5c:	04912223          	sw	s1,68(sp)
   19b60:	05212023          	sw	s2,64(sp)
   19b64:	03912223          	sw	s9,36(sp)
   19b68:	03a12023          	sw	s10,32(sp)
   19b6c:	01b12e23          	sw	s11,28(sp)
   19b70:	01540793          	add	a5,s0,21
   19b74:	00e12223          	sw	a4,4(sp)
   19b78:	1af9f263          	bgeu	s3,a5,19d1c <__multiply+0x278>
   19b7c:	00010437          	lui	s0,0x10
   19b80:	fff40413          	add	s0,s0,-1 # ffff <exit-0x95>
   19b84:	01c0006f          	j	19ba0 <__multiply+0xfc>
   19b88:	01095913          	srl	s2,s2,0x10
   19b8c:	0a091063          	bnez	s2,19c2c <__multiply+0x188>
   19b90:	00012783          	lw	a5,0(sp)
   19b94:	004a0a13          	add	s4,s4,4
   19b98:	004b0b13          	add	s6,s6,4
   19b9c:	10fa7e63          	bgeu	s4,a5,19cb8 <__multiply+0x214>
   19ba0:	000a2903          	lw	s2,0(s4)
   19ba4:	008974b3          	and	s1,s2,s0
   19ba8:	fe0480e3          	beqz	s1,19b88 <__multiply+0xe4>
   19bac:	00812c83          	lw	s9,8(sp)
   19bb0:	000b0d13          	mv	s10,s6
   19bb4:	00000c13          	li	s8,0
   19bb8:	000cad83          	lw	s11,0(s9)
   19bbc:	000d2903          	lw	s2,0(s10)
   19bc0:	00048593          	mv	a1,s1
   19bc4:	008df533          	and	a0,s11,s0
   19bc8:	0e0080ef          	jal	21ca8 <__mulsi3>
   19bcc:	00897733          	and	a4,s2,s0
   19bd0:	00e50733          	add	a4,a0,a4
   19bd4:	00048593          	mv	a1,s1
   19bd8:	010dd513          	srl	a0,s11,0x10
   19bdc:	01870c33          	add	s8,a4,s8
   19be0:	01095913          	srl	s2,s2,0x10
   19be4:	0c4080ef          	jal	21ca8 <__mulsi3>
   19be8:	010c5713          	srl	a4,s8,0x10
   19bec:	01250533          	add	a0,a0,s2
   19bf0:	00e50533          	add	a0,a0,a4
   19bf4:	008c77b3          	and	a5,s8,s0
   19bf8:	01051713          	sll	a4,a0,0x10
   19bfc:	004d0d13          	add	s10,s10,4
   19c00:	00f767b3          	or	a5,a4,a5
   19c04:	004c8c93          	add	s9,s9,4
   19c08:	fefd2e23          	sw	a5,-4(s10)
   19c0c:	01055c13          	srl	s8,a0,0x10
   19c10:	fb3ce4e3          	bltu	s9,s3,19bb8 <__multiply+0x114>
   19c14:	00412783          	lw	a5,4(sp)
   19c18:	00fb0733          	add	a4,s6,a5
   19c1c:	01872023          	sw	s8,0(a4)
   19c20:	000a2903          	lw	s2,0(s4)
   19c24:	01095913          	srl	s2,s2,0x10
   19c28:	f60904e3          	beqz	s2,19b90 <__multiply+0xec>
   19c2c:	000b2c83          	lw	s9,0(s6)
   19c30:	00812d03          	lw	s10,8(sp)
   19c34:	000b0c13          	mv	s8,s6
   19c38:	000c8493          	mv	s1,s9
   19c3c:	00000d93          	li	s11,0
   19c40:	000d2503          	lw	a0,0(s10)
   19c44:	00090593          	mv	a1,s2
   19c48:	0104d493          	srl	s1,s1,0x10
   19c4c:	00857533          	and	a0,a0,s0
   19c50:	058080ef          	jal	21ca8 <__mulsi3>
   19c54:	01b50733          	add	a4,a0,s11
   19c58:	00970db3          	add	s11,a4,s1
   19c5c:	010d9593          	sll	a1,s11,0x10
   19c60:	008cf7b3          	and	a5,s9,s0
   19c64:	00f5e7b3          	or	a5,a1,a5
   19c68:	00fc2023          	sw	a5,0(s8)
   19c6c:	002d5503          	lhu	a0,2(s10)
   19c70:	004c2483          	lw	s1,4(s8)
   19c74:	00090593          	mv	a1,s2
   19c78:	030080ef          	jal	21ca8 <__mulsi3>
   19c7c:	0084f7b3          	and	a5,s1,s0
   19c80:	010dd713          	srl	a4,s11,0x10
   19c84:	00f507b3          	add	a5,a0,a5
   19c88:	004d0d13          	add	s10,s10,4
   19c8c:	00e78cb3          	add	s9,a5,a4
   19c90:	004c0c13          	add	s8,s8,4
   19c94:	010cdd93          	srl	s11,s9,0x10
   19c98:	fb3d64e3          	bltu	s10,s3,19c40 <__multiply+0x19c>
   19c9c:	00412783          	lw	a5,4(sp)
   19ca0:	004a0a13          	add	s4,s4,4
   19ca4:	00fb0733          	add	a4,s6,a5
   19ca8:	00012783          	lw	a5,0(sp)
   19cac:	01972023          	sw	s9,0(a4)
   19cb0:	004b0b13          	add	s6,s6,4
   19cb4:	eefa66e3          	bltu	s4,a5,19ba0 <__multiply+0xfc>
   19cb8:	04412483          	lw	s1,68(sp)
   19cbc:	04012903          	lw	s2,64(sp)
   19cc0:	02412c83          	lw	s9,36(sp)
   19cc4:	02012d03          	lw	s10,32(sp)
   19cc8:	01c12d83          	lw	s11,28(sp)
   19ccc:	01704863          	bgtz	s7,19cdc <__multiply+0x238>
   19cd0:	0180006f          	j	19ce8 <__multiply+0x244>
   19cd4:	fffb8b93          	add	s7,s7,-1
   19cd8:	000b8863          	beqz	s7,19ce8 <__multiply+0x244>
   19cdc:	ffcaa783          	lw	a5,-4(s5)
   19ce0:	ffca8a93          	add	s5,s5,-4
   19ce4:	fe0788e3          	beqz	a5,19cd4 <__multiply+0x230>
   19ce8:	00c12783          	lw	a5,12(sp)
   19cec:	04c12083          	lw	ra,76(sp)
   19cf0:	04812403          	lw	s0,72(sp)
   19cf4:	0177a823          	sw	s7,16(a5)
   19cf8:	03412a83          	lw	s5,52(sp)
   19cfc:	03012b03          	lw	s6,48(sp)
   19d00:	03c12983          	lw	s3,60(sp)
   19d04:	03812a03          	lw	s4,56(sp)
   19d08:	02c12b83          	lw	s7,44(sp)
   19d0c:	02812c03          	lw	s8,40(sp)
   19d10:	00078513          	mv	a0,a5
   19d14:	05010113          	add	sp,sp,80
   19d18:	00008067          	ret
   19d1c:	408987b3          	sub	a5,s3,s0
   19d20:	feb78793          	add	a5,a5,-21
   19d24:	ffc7f793          	and	a5,a5,-4
   19d28:	00478793          	add	a5,a5,4
   19d2c:	00f12223          	sw	a5,4(sp)
   19d30:	e4dff06f          	j	19b7c <__multiply+0xd8>
   19d34:	00008697          	auipc	a3,0x8
   19d38:	12468693          	add	a3,a3,292 # 21e58 <__clzsi2+0xd8>
   19d3c:	00000613          	li	a2,0
   19d40:	16200593          	li	a1,354
   19d44:	00008517          	auipc	a0,0x8
   19d48:	12850513          	add	a0,a0,296 # 21e6c <__clzsi2+0xec>
   19d4c:	04912223          	sw	s1,68(sp)
   19d50:	05212023          	sw	s2,64(sp)
   19d54:	03512a23          	sw	s5,52(sp)
   19d58:	03612823          	sw	s6,48(sp)
   19d5c:	03912223          	sw	s9,36(sp)
   19d60:	03a12023          	sw	s10,32(sp)
   19d64:	01b12e23          	sw	s11,28(sp)
   19d68:	5f0010ef          	jal	1b358 <__assert_func>

00019d6c <__pow5mult>:
   19d6c:	fe010113          	add	sp,sp,-32
   19d70:	00812c23          	sw	s0,24(sp)
   19d74:	01212823          	sw	s2,16(sp)
   19d78:	01312623          	sw	s3,12(sp)
   19d7c:	00112e23          	sw	ra,28(sp)
   19d80:	00367793          	and	a5,a2,3
   19d84:	00060413          	mv	s0,a2
   19d88:	00050993          	mv	s3,a0
   19d8c:	00058913          	mv	s2,a1
   19d90:	0a079c63          	bnez	a5,19e48 <__pow5mult+0xdc>
   19d94:	40245413          	sra	s0,s0,0x2
   19d98:	06040a63          	beqz	s0,19e0c <__pow5mult+0xa0>
   19d9c:	00912a23          	sw	s1,20(sp)
   19da0:	0409a483          	lw	s1,64(s3)
   19da4:	0c048663          	beqz	s1,19e70 <__pow5mult+0x104>
   19da8:	00147793          	and	a5,s0,1
   19dac:	02079063          	bnez	a5,19dcc <__pow5mult+0x60>
   19db0:	40145413          	sra	s0,s0,0x1
   19db4:	04040a63          	beqz	s0,19e08 <__pow5mult+0x9c>
   19db8:	0004a503          	lw	a0,0(s1)
   19dbc:	06050663          	beqz	a0,19e28 <__pow5mult+0xbc>
   19dc0:	00050493          	mv	s1,a0
   19dc4:	00147793          	and	a5,s0,1
   19dc8:	fe0784e3          	beqz	a5,19db0 <__pow5mult+0x44>
   19dcc:	00048613          	mv	a2,s1
   19dd0:	00090593          	mv	a1,s2
   19dd4:	00098513          	mv	a0,s3
   19dd8:	ccdff0ef          	jal	19aa4 <__multiply>
   19ddc:	02090063          	beqz	s2,19dfc <__pow5mult+0x90>
   19de0:	00492703          	lw	a4,4(s2)
   19de4:	0449a783          	lw	a5,68(s3)
   19de8:	00271713          	sll	a4,a4,0x2
   19dec:	00e787b3          	add	a5,a5,a4
   19df0:	0007a703          	lw	a4,0(a5)
   19df4:	00e92023          	sw	a4,0(s2)
   19df8:	0127a023          	sw	s2,0(a5)
   19dfc:	40145413          	sra	s0,s0,0x1
   19e00:	00050913          	mv	s2,a0
   19e04:	fa041ae3          	bnez	s0,19db8 <__pow5mult+0x4c>
   19e08:	01412483          	lw	s1,20(sp)
   19e0c:	01c12083          	lw	ra,28(sp)
   19e10:	01812403          	lw	s0,24(sp)
   19e14:	00c12983          	lw	s3,12(sp)
   19e18:	00090513          	mv	a0,s2
   19e1c:	01012903          	lw	s2,16(sp)
   19e20:	02010113          	add	sp,sp,32
   19e24:	00008067          	ret
   19e28:	00048613          	mv	a2,s1
   19e2c:	00048593          	mv	a1,s1
   19e30:	00098513          	mv	a0,s3
   19e34:	c71ff0ef          	jal	19aa4 <__multiply>
   19e38:	00a4a023          	sw	a0,0(s1)
   19e3c:	00052023          	sw	zero,0(a0)
   19e40:	00050493          	mv	s1,a0
   19e44:	f81ff06f          	j	19dc4 <__pow5mult+0x58>
   19e48:	fff78793          	add	a5,a5,-1
   19e4c:	00008717          	auipc	a4,0x8
   19e50:	4e470713          	add	a4,a4,1252 # 22330 <p05.0>
   19e54:	00279793          	sll	a5,a5,0x2
   19e58:	00f707b3          	add	a5,a4,a5
   19e5c:	0007a603          	lw	a2,0(a5)
   19e60:	00000693          	li	a3,0
   19e64:	f78ff0ef          	jal	195dc <__multadd>
   19e68:	00050913          	mv	s2,a0
   19e6c:	f29ff06f          	j	19d94 <__pow5mult+0x28>
   19e70:	00100593          	li	a1,1
   19e74:	00098513          	mv	a0,s3
   19e78:	e8cff0ef          	jal	19504 <_Balloc>
   19e7c:	00050493          	mv	s1,a0
   19e80:	02050063          	beqz	a0,19ea0 <__pow5mult+0x134>
   19e84:	27100793          	li	a5,625
   19e88:	00f52a23          	sw	a5,20(a0)
   19e8c:	00100793          	li	a5,1
   19e90:	00f52823          	sw	a5,16(a0)
   19e94:	04a9a023          	sw	a0,64(s3)
   19e98:	00052023          	sw	zero,0(a0)
   19e9c:	f0dff06f          	j	19da8 <__pow5mult+0x3c>
   19ea0:	00008697          	auipc	a3,0x8
   19ea4:	fb868693          	add	a3,a3,-72 # 21e58 <__clzsi2+0xd8>
   19ea8:	00000613          	li	a2,0
   19eac:	14500593          	li	a1,325
   19eb0:	00008517          	auipc	a0,0x8
   19eb4:	fbc50513          	add	a0,a0,-68 # 21e6c <__clzsi2+0xec>
   19eb8:	4a0010ef          	jal	1b358 <__assert_func>

00019ebc <__lshift>:
   19ebc:	fe010113          	add	sp,sp,-32
   19ec0:	01512223          	sw	s5,4(sp)
   19ec4:	0105aa83          	lw	s5,16(a1)
   19ec8:	0085a783          	lw	a5,8(a1)
   19ecc:	01312623          	sw	s3,12(sp)
   19ed0:	40565993          	sra	s3,a2,0x5
   19ed4:	01598ab3          	add	s5,s3,s5
   19ed8:	00812c23          	sw	s0,24(sp)
   19edc:	00912a23          	sw	s1,20(sp)
   19ee0:	01212823          	sw	s2,16(sp)
   19ee4:	01412423          	sw	s4,8(sp)
   19ee8:	00112e23          	sw	ra,28(sp)
   19eec:	001a8913          	add	s2,s5,1
   19ef0:	00058493          	mv	s1,a1
   19ef4:	00060413          	mv	s0,a2
   19ef8:	0045a583          	lw	a1,4(a1)
   19efc:	00050a13          	mv	s4,a0
   19f00:	0127d863          	bge	a5,s2,19f10 <__lshift+0x54>
   19f04:	00179793          	sll	a5,a5,0x1
   19f08:	00158593          	add	a1,a1,1
   19f0c:	ff27cce3          	blt	a5,s2,19f04 <__lshift+0x48>
   19f10:	000a0513          	mv	a0,s4
   19f14:	df0ff0ef          	jal	19504 <_Balloc>
   19f18:	10050c63          	beqz	a0,1a030 <__lshift+0x174>
   19f1c:	01450813          	add	a6,a0,20
   19f20:	03305463          	blez	s3,19f48 <__lshift+0x8c>
   19f24:	00598993          	add	s3,s3,5
   19f28:	00299993          	sll	s3,s3,0x2
   19f2c:	01350733          	add	a4,a0,s3
   19f30:	00080793          	mv	a5,a6
   19f34:	00478793          	add	a5,a5,4
   19f38:	fe07ae23          	sw	zero,-4(a5)
   19f3c:	fee79ce3          	bne	a5,a4,19f34 <__lshift+0x78>
   19f40:	fec98993          	add	s3,s3,-20
   19f44:	01380833          	add	a6,a6,s3
   19f48:	0104a883          	lw	a7,16(s1)
   19f4c:	01448793          	add	a5,s1,20
   19f50:	01f47613          	and	a2,s0,31
   19f54:	00289893          	sll	a7,a7,0x2
   19f58:	011788b3          	add	a7,a5,a7
   19f5c:	0a060463          	beqz	a2,1a004 <__lshift+0x148>
   19f60:	02000593          	li	a1,32
   19f64:	40c585b3          	sub	a1,a1,a2
   19f68:	00080313          	mv	t1,a6
   19f6c:	00000693          	li	a3,0
   19f70:	0007a703          	lw	a4,0(a5)
   19f74:	00430313          	add	t1,t1,4
   19f78:	00478793          	add	a5,a5,4
   19f7c:	00c71733          	sll	a4,a4,a2
   19f80:	00d76733          	or	a4,a4,a3
   19f84:	fee32e23          	sw	a4,-4(t1)
   19f88:	ffc7a683          	lw	a3,-4(a5)
   19f8c:	00b6d6b3          	srl	a3,a3,a1
   19f90:	ff17e0e3          	bltu	a5,a7,19f70 <__lshift+0xb4>
   19f94:	01548793          	add	a5,s1,21
   19f98:	00400713          	li	a4,4
   19f9c:	00f8ea63          	bltu	a7,a5,19fb0 <__lshift+0xf4>
   19fa0:	409887b3          	sub	a5,a7,s1
   19fa4:	feb78793          	add	a5,a5,-21
   19fa8:	ffc7f793          	and	a5,a5,-4
   19fac:	00478713          	add	a4,a5,4
   19fb0:	00e80833          	add	a6,a6,a4
   19fb4:	00d82023          	sw	a3,0(a6)
   19fb8:	00069463          	bnez	a3,19fc0 <__lshift+0x104>
   19fbc:	000a8913          	mv	s2,s5
   19fc0:	0044a703          	lw	a4,4(s1)
   19fc4:	044a2783          	lw	a5,68(s4)
   19fc8:	01c12083          	lw	ra,28(sp)
   19fcc:	00271713          	sll	a4,a4,0x2
   19fd0:	00e787b3          	add	a5,a5,a4
   19fd4:	0007a703          	lw	a4,0(a5)
   19fd8:	01252823          	sw	s2,16(a0)
   19fdc:	01812403          	lw	s0,24(sp)
   19fe0:	00e4a023          	sw	a4,0(s1)
   19fe4:	0097a023          	sw	s1,0(a5)
   19fe8:	01012903          	lw	s2,16(sp)
   19fec:	01412483          	lw	s1,20(sp)
   19ff0:	00c12983          	lw	s3,12(sp)
   19ff4:	00812a03          	lw	s4,8(sp)
   19ff8:	00412a83          	lw	s5,4(sp)
   19ffc:	02010113          	add	sp,sp,32
   1a000:	00008067          	ret
   1a004:	0007a703          	lw	a4,0(a5)
   1a008:	00478793          	add	a5,a5,4
   1a00c:	00480813          	add	a6,a6,4
   1a010:	fee82e23          	sw	a4,-4(a6)
   1a014:	fb17f4e3          	bgeu	a5,a7,19fbc <__lshift+0x100>
   1a018:	0007a703          	lw	a4,0(a5)
   1a01c:	00478793          	add	a5,a5,4
   1a020:	00480813          	add	a6,a6,4
   1a024:	fee82e23          	sw	a4,-4(a6)
   1a028:	fd17eee3          	bltu	a5,a7,1a004 <__lshift+0x148>
   1a02c:	f91ff06f          	j	19fbc <__lshift+0x100>
   1a030:	00008697          	auipc	a3,0x8
   1a034:	e2868693          	add	a3,a3,-472 # 21e58 <__clzsi2+0xd8>
   1a038:	00000613          	li	a2,0
   1a03c:	1de00593          	li	a1,478
   1a040:	00008517          	auipc	a0,0x8
   1a044:	e2c50513          	add	a0,a0,-468 # 21e6c <__clzsi2+0xec>
   1a048:	310010ef          	jal	1b358 <__assert_func>

0001a04c <__mcmp>:
   1a04c:	01052703          	lw	a4,16(a0)
   1a050:	0105a783          	lw	a5,16(a1)
   1a054:	00050813          	mv	a6,a0
   1a058:	40f70533          	sub	a0,a4,a5
   1a05c:	04f71263          	bne	a4,a5,1a0a0 <__mcmp+0x54>
   1a060:	00279793          	sll	a5,a5,0x2
   1a064:	01480813          	add	a6,a6,20
   1a068:	01458593          	add	a1,a1,20
   1a06c:	00f80733          	add	a4,a6,a5
   1a070:	00f587b3          	add	a5,a1,a5
   1a074:	0080006f          	j	1a07c <__mcmp+0x30>
   1a078:	02e87463          	bgeu	a6,a4,1a0a0 <__mcmp+0x54>
   1a07c:	ffc72603          	lw	a2,-4(a4)
   1a080:	ffc7a683          	lw	a3,-4(a5)
   1a084:	ffc70713          	add	a4,a4,-4
   1a088:	ffc78793          	add	a5,a5,-4
   1a08c:	fed606e3          	beq	a2,a3,1a078 <__mcmp+0x2c>
   1a090:	00100513          	li	a0,1
   1a094:	00d67663          	bgeu	a2,a3,1a0a0 <__mcmp+0x54>
   1a098:	fff00513          	li	a0,-1
   1a09c:	00008067          	ret
   1a0a0:	00008067          	ret

0001a0a4 <__mdiff>:
   1a0a4:	0105a703          	lw	a4,16(a1)
   1a0a8:	01062783          	lw	a5,16(a2)
   1a0ac:	ff010113          	add	sp,sp,-16
   1a0b0:	00812423          	sw	s0,8(sp)
   1a0b4:	00912223          	sw	s1,4(sp)
   1a0b8:	00112623          	sw	ra,12(sp)
   1a0bc:	01212023          	sw	s2,0(sp)
   1a0c0:	00058413          	mv	s0,a1
   1a0c4:	00060493          	mv	s1,a2
   1a0c8:	40f706b3          	sub	a3,a4,a5
   1a0cc:	18f71e63          	bne	a4,a5,1a268 <__mdiff+0x1c4>
   1a0d0:	00279693          	sll	a3,a5,0x2
   1a0d4:	01458613          	add	a2,a1,20
   1a0d8:	01448713          	add	a4,s1,20
   1a0dc:	00d607b3          	add	a5,a2,a3
   1a0e0:	00d70733          	add	a4,a4,a3
   1a0e4:	0080006f          	j	1a0ec <__mdiff+0x48>
   1a0e8:	18f67c63          	bgeu	a2,a5,1a280 <__mdiff+0x1dc>
   1a0ec:	ffc7a583          	lw	a1,-4(a5)
   1a0f0:	ffc72683          	lw	a3,-4(a4)
   1a0f4:	ffc78793          	add	a5,a5,-4
   1a0f8:	ffc70713          	add	a4,a4,-4
   1a0fc:	fed586e3          	beq	a1,a3,1a0e8 <__mdiff+0x44>
   1a100:	00100913          	li	s2,1
   1a104:	00d5ea63          	bltu	a1,a3,1a118 <__mdiff+0x74>
   1a108:	00048793          	mv	a5,s1
   1a10c:	00000913          	li	s2,0
   1a110:	00040493          	mv	s1,s0
   1a114:	00078413          	mv	s0,a5
   1a118:	0044a583          	lw	a1,4(s1)
   1a11c:	be8ff0ef          	jal	19504 <_Balloc>
   1a120:	1a050663          	beqz	a0,1a2cc <__mdiff+0x228>
   1a124:	0104a883          	lw	a7,16(s1)
   1a128:	01042283          	lw	t0,16(s0)
   1a12c:	01448f93          	add	t6,s1,20
   1a130:	00289313          	sll	t1,a7,0x2
   1a134:	01440813          	add	a6,s0,20
   1a138:	00229293          	sll	t0,t0,0x2
   1a13c:	01450593          	add	a1,a0,20
   1a140:	00010e37          	lui	t3,0x10
   1a144:	01252623          	sw	s2,12(a0)
   1a148:	006f8333          	add	t1,t6,t1
   1a14c:	005802b3          	add	t0,a6,t0
   1a150:	00058f13          	mv	t5,a1
   1a154:	000f8e93          	mv	t4,t6
   1a158:	00000693          	li	a3,0
   1a15c:	fffe0e13          	add	t3,t3,-1 # ffff <exit-0x95>
   1a160:	000ea703          	lw	a4,0(t4)
   1a164:	00082603          	lw	a2,0(a6)
   1a168:	004f0f13          	add	t5,t5,4
   1a16c:	01c777b3          	and	a5,a4,t3
   1a170:	01c673b3          	and	t2,a2,t3
   1a174:	407787b3          	sub	a5,a5,t2
   1a178:	00d787b3          	add	a5,a5,a3
   1a17c:	01075713          	srl	a4,a4,0x10
   1a180:	01065613          	srl	a2,a2,0x10
   1a184:	4107d693          	sra	a3,a5,0x10
   1a188:	40c70733          	sub	a4,a4,a2
   1a18c:	00d70733          	add	a4,a4,a3
   1a190:	01071693          	sll	a3,a4,0x10
   1a194:	01c7f7b3          	and	a5,a5,t3
   1a198:	00d7e7b3          	or	a5,a5,a3
   1a19c:	00480813          	add	a6,a6,4
   1a1a0:	feff2e23          	sw	a5,-4(t5)
   1a1a4:	004e8e93          	add	t4,t4,4
   1a1a8:	41075693          	sra	a3,a4,0x10
   1a1ac:	fa586ae3          	bltu	a6,t0,1a160 <__mdiff+0xbc>
   1a1b0:	01540713          	add	a4,s0,21
   1a1b4:	40828433          	sub	s0,t0,s0
   1a1b8:	feb40413          	add	s0,s0,-21
   1a1bc:	00e2b2b3          	sltu	t0,t0,a4
   1a1c0:	0012cf13          	xor	t5,t0,1
   1a1c4:	00245413          	srl	s0,s0,0x2
   1a1c8:	00400713          	li	a4,4
   1a1cc:	0a028463          	beqz	t0,1a274 <__mdiff+0x1d0>
   1a1d0:	00ef8fb3          	add	t6,t6,a4
   1a1d4:	00e58833          	add	a6,a1,a4
   1a1d8:	00010eb7          	lui	t4,0x10
   1a1dc:	00080e13          	mv	t3,a6
   1a1e0:	000f8613          	mv	a2,t6
   1a1e4:	fffe8e93          	add	t4,t4,-1 # ffff <exit-0x95>
   1a1e8:	0c6ff463          	bgeu	t6,t1,1a2b0 <__mdiff+0x20c>
   1a1ec:	00062783          	lw	a5,0(a2)
   1a1f0:	004e0e13          	add	t3,t3,4
   1a1f4:	00460613          	add	a2,a2,4
   1a1f8:	01d7f733          	and	a4,a5,t4
   1a1fc:	00d70733          	add	a4,a4,a3
   1a200:	0107d593          	srl	a1,a5,0x10
   1a204:	41075713          	sra	a4,a4,0x10
   1a208:	00b70733          	add	a4,a4,a1
   1a20c:	00d787b3          	add	a5,a5,a3
   1a210:	01d7f7b3          	and	a5,a5,t4
   1a214:	01071693          	sll	a3,a4,0x10
   1a218:	00d7e7b3          	or	a5,a5,a3
   1a21c:	fefe2e23          	sw	a5,-4(t3)
   1a220:	41075693          	sra	a3,a4,0x10
   1a224:	fc6664e3          	bltu	a2,t1,1a1ec <__mdiff+0x148>
   1a228:	fff30313          	add	t1,t1,-1
   1a22c:	41f30333          	sub	t1,t1,t6
   1a230:	ffc37313          	and	t1,t1,-4
   1a234:	00680733          	add	a4,a6,t1
   1a238:	00079a63          	bnez	a5,1a24c <__mdiff+0x1a8>
   1a23c:	ffc72783          	lw	a5,-4(a4)
   1a240:	fff88893          	add	a7,a7,-1
   1a244:	ffc70713          	add	a4,a4,-4
   1a248:	fe078ae3          	beqz	a5,1a23c <__mdiff+0x198>
   1a24c:	00c12083          	lw	ra,12(sp)
   1a250:	00812403          	lw	s0,8(sp)
   1a254:	01152823          	sw	a7,16(a0)
   1a258:	00412483          	lw	s1,4(sp)
   1a25c:	00012903          	lw	s2,0(sp)
   1a260:	01010113          	add	sp,sp,16
   1a264:	00008067          	ret
   1a268:	00100913          	li	s2,1
   1a26c:	e806dee3          	bgez	a3,1a108 <__mdiff+0x64>
   1a270:	ea9ff06f          	j	1a118 <__mdiff+0x74>
   1a274:	00140713          	add	a4,s0,1
   1a278:	00271713          	sll	a4,a4,0x2
   1a27c:	f55ff06f          	j	1a1d0 <__mdiff+0x12c>
   1a280:	00000593          	li	a1,0
   1a284:	a80ff0ef          	jal	19504 <_Balloc>
   1a288:	06050063          	beqz	a0,1a2e8 <__mdiff+0x244>
   1a28c:	00c12083          	lw	ra,12(sp)
   1a290:	00812403          	lw	s0,8(sp)
   1a294:	00100793          	li	a5,1
   1a298:	00f52823          	sw	a5,16(a0)
   1a29c:	00052a23          	sw	zero,20(a0)
   1a2a0:	00412483          	lw	s1,4(sp)
   1a2a4:	00012903          	lw	s2,0(sp)
   1a2a8:	01010113          	add	sp,sp,16
   1a2ac:	00008067          	ret
   1a2b0:	00000713          	li	a4,0
   1a2b4:	000f1663          	bnez	t5,1a2c0 <__mdiff+0x21c>
   1a2b8:	00e58733          	add	a4,a1,a4
   1a2bc:	f7dff06f          	j	1a238 <__mdiff+0x194>
   1a2c0:	00241713          	sll	a4,s0,0x2
   1a2c4:	00e58733          	add	a4,a1,a4
   1a2c8:	f71ff06f          	j	1a238 <__mdiff+0x194>
   1a2cc:	00008697          	auipc	a3,0x8
   1a2d0:	b8c68693          	add	a3,a3,-1140 # 21e58 <__clzsi2+0xd8>
   1a2d4:	00000613          	li	a2,0
   1a2d8:	24500593          	li	a1,581
   1a2dc:	00008517          	auipc	a0,0x8
   1a2e0:	b9050513          	add	a0,a0,-1136 # 21e6c <__clzsi2+0xec>
   1a2e4:	074010ef          	jal	1b358 <__assert_func>
   1a2e8:	00008697          	auipc	a3,0x8
   1a2ec:	b7068693          	add	a3,a3,-1168 # 21e58 <__clzsi2+0xd8>
   1a2f0:	00000613          	li	a2,0
   1a2f4:	23700593          	li	a1,567
   1a2f8:	00008517          	auipc	a0,0x8
   1a2fc:	b7450513          	add	a0,a0,-1164 # 21e6c <__clzsi2+0xec>
   1a300:	058010ef          	jal	1b358 <__assert_func>

0001a304 <__ulp>:
   1a304:	7ff007b7          	lui	a5,0x7ff00
   1a308:	00b7f5b3          	and	a1,a5,a1
   1a30c:	fcc007b7          	lui	a5,0xfcc00
   1a310:	00f585b3          	add	a1,a1,a5
   1a314:	00000793          	li	a5,0
   1a318:	00b05663          	blez	a1,1a324 <__ulp+0x20>
   1a31c:	00078513          	mv	a0,a5
   1a320:	00008067          	ret
   1a324:	40b005b3          	neg	a1,a1
   1a328:	4145d593          	sra	a1,a1,0x14
   1a32c:	01300793          	li	a5,19
   1a330:	00b7cc63          	blt	a5,a1,1a348 <__ulp+0x44>
   1a334:	000807b7          	lui	a5,0x80
   1a338:	40b7d5b3          	sra	a1,a5,a1
   1a33c:	00000793          	li	a5,0
   1a340:	00078513          	mv	a0,a5
   1a344:	00008067          	ret
   1a348:	fec58593          	add	a1,a1,-20
   1a34c:	01e00713          	li	a4,30
   1a350:	00100793          	li	a5,1
   1a354:	00b74663          	blt	a4,a1,1a360 <__ulp+0x5c>
   1a358:	800007b7          	lui	a5,0x80000
   1a35c:	00b7d7b3          	srl	a5,a5,a1
   1a360:	00000593          	li	a1,0
   1a364:	00078513          	mv	a0,a5
   1a368:	00008067          	ret

0001a36c <__b2d>:
   1a36c:	fe010113          	add	sp,sp,-32
   1a370:	00912a23          	sw	s1,20(sp)
   1a374:	01052483          	lw	s1,16(a0)
   1a378:	00812c23          	sw	s0,24(sp)
   1a37c:	01450413          	add	s0,a0,20
   1a380:	00249493          	sll	s1,s1,0x2
   1a384:	009404b3          	add	s1,s0,s1
   1a388:	01212823          	sw	s2,16(sp)
   1a38c:	ffc4a903          	lw	s2,-4(s1)
   1a390:	01312623          	sw	s3,12(sp)
   1a394:	01412423          	sw	s4,8(sp)
   1a398:	00090513          	mv	a0,s2
   1a39c:	00058993          	mv	s3,a1
   1a3a0:	00112e23          	sw	ra,28(sp)
   1a3a4:	cf8ff0ef          	jal	1989c <__hi0bits>
   1a3a8:	02000713          	li	a4,32
   1a3ac:	40a707b3          	sub	a5,a4,a0
   1a3b0:	00f9a023          	sw	a5,0(s3)
   1a3b4:	00a00793          	li	a5,10
   1a3b8:	ffc48a13          	add	s4,s1,-4
   1a3bc:	08a7dc63          	bge	a5,a0,1a454 <__b2d+0xe8>
   1a3c0:	ff550613          	add	a2,a0,-11
   1a3c4:	05447063          	bgeu	s0,s4,1a404 <__b2d+0x98>
   1a3c8:	ff84a783          	lw	a5,-8(s1)
   1a3cc:	04060c63          	beqz	a2,1a424 <__b2d+0xb8>
   1a3d0:	40c706b3          	sub	a3,a4,a2
   1a3d4:	00d7d733          	srl	a4,a5,a3
   1a3d8:	00c91933          	sll	s2,s2,a2
   1a3dc:	00e96933          	or	s2,s2,a4
   1a3e0:	ff848593          	add	a1,s1,-8
   1a3e4:	3ff00737          	lui	a4,0x3ff00
   1a3e8:	00e96733          	or	a4,s2,a4
   1a3ec:	00c797b3          	sll	a5,a5,a2
   1a3f0:	02b47e63          	bgeu	s0,a1,1a42c <__b2d+0xc0>
   1a3f4:	ff44a603          	lw	a2,-12(s1)
   1a3f8:	00d656b3          	srl	a3,a2,a3
   1a3fc:	00d7e7b3          	or	a5,a5,a3
   1a400:	02c0006f          	j	1a42c <__b2d+0xc0>
   1a404:	00b00793          	li	a5,11
   1a408:	00f50c63          	beq	a0,a5,1a420 <__b2d+0xb4>
   1a40c:	00c91933          	sll	s2,s2,a2
   1a410:	3ff00737          	lui	a4,0x3ff00
   1a414:	00e96733          	or	a4,s2,a4
   1a418:	00000793          	li	a5,0
   1a41c:	0100006f          	j	1a42c <__b2d+0xc0>
   1a420:	00000793          	li	a5,0
   1a424:	3ff00737          	lui	a4,0x3ff00
   1a428:	00e96733          	or	a4,s2,a4
   1a42c:	01c12083          	lw	ra,28(sp)
   1a430:	01812403          	lw	s0,24(sp)
   1a434:	01412483          	lw	s1,20(sp)
   1a438:	01012903          	lw	s2,16(sp)
   1a43c:	00c12983          	lw	s3,12(sp)
   1a440:	00812a03          	lw	s4,8(sp)
   1a444:	00078513          	mv	a0,a5
   1a448:	00070593          	mv	a1,a4
   1a44c:	02010113          	add	sp,sp,32
   1a450:	00008067          	ret
   1a454:	00b00693          	li	a3,11
   1a458:	40a686b3          	sub	a3,a3,a0
   1a45c:	3ff007b7          	lui	a5,0x3ff00
   1a460:	00d95733          	srl	a4,s2,a3
   1a464:	00f76733          	or	a4,a4,a5
   1a468:	00000793          	li	a5,0
   1a46c:	01447663          	bgeu	s0,s4,1a478 <__b2d+0x10c>
   1a470:	ff84a783          	lw	a5,-8(s1)
   1a474:	00d7d7b3          	srl	a5,a5,a3
   1a478:	01550513          	add	a0,a0,21
   1a47c:	00a91933          	sll	s2,s2,a0
   1a480:	00f967b3          	or	a5,s2,a5
   1a484:	fa9ff06f          	j	1a42c <__b2d+0xc0>

0001a488 <__d2b>:
   1a488:	fd010113          	add	sp,sp,-48
   1a48c:	01512a23          	sw	s5,20(sp)
   1a490:	00058a93          	mv	s5,a1
   1a494:	00100593          	li	a1,1
   1a498:	02912223          	sw	s1,36(sp)
   1a49c:	01312e23          	sw	s3,28(sp)
   1a4a0:	01412c23          	sw	s4,24(sp)
   1a4a4:	02112623          	sw	ra,44(sp)
   1a4a8:	02812423          	sw	s0,40(sp)
   1a4ac:	03212023          	sw	s2,32(sp)
   1a4b0:	00060493          	mv	s1,a2
   1a4b4:	00068a13          	mv	s4,a3
   1a4b8:	00070993          	mv	s3,a4
   1a4bc:	848ff0ef          	jal	19504 <_Balloc>
   1a4c0:	10050263          	beqz	a0,1a5c4 <__d2b+0x13c>
   1a4c4:	00100737          	lui	a4,0x100
   1a4c8:	0144d913          	srl	s2,s1,0x14
   1a4cc:	fff70793          	add	a5,a4,-1 # fffff <__BSS_END__+0xdc4df>
   1a4d0:	7ff97913          	and	s2,s2,2047
   1a4d4:	00050413          	mv	s0,a0
   1a4d8:	0097f7b3          	and	a5,a5,s1
   1a4dc:	00090463          	beqz	s2,1a4e4 <__d2b+0x5c>
   1a4e0:	00e7e7b3          	or	a5,a5,a4
   1a4e4:	00f12623          	sw	a5,12(sp)
   1a4e8:	060a9263          	bnez	s5,1a54c <__d2b+0xc4>
   1a4ec:	00c10513          	add	a0,sp,12
   1a4f0:	c24ff0ef          	jal	19914 <__lo0bits>
   1a4f4:	00c12703          	lw	a4,12(sp)
   1a4f8:	00100493          	li	s1,1
   1a4fc:	00942823          	sw	s1,16(s0)
   1a500:	00e42a23          	sw	a4,20(s0)
   1a504:	02050793          	add	a5,a0,32
   1a508:	08090863          	beqz	s2,1a598 <__d2b+0x110>
   1a50c:	bcd90913          	add	s2,s2,-1075
   1a510:	00f90933          	add	s2,s2,a5
   1a514:	03500493          	li	s1,53
   1a518:	012a2023          	sw	s2,0(s4)
   1a51c:	40f48533          	sub	a0,s1,a5
   1a520:	00a9a023          	sw	a0,0(s3)
   1a524:	02c12083          	lw	ra,44(sp)
   1a528:	00040513          	mv	a0,s0
   1a52c:	02812403          	lw	s0,40(sp)
   1a530:	02412483          	lw	s1,36(sp)
   1a534:	02012903          	lw	s2,32(sp)
   1a538:	01c12983          	lw	s3,28(sp)
   1a53c:	01812a03          	lw	s4,24(sp)
   1a540:	01412a83          	lw	s5,20(sp)
   1a544:	03010113          	add	sp,sp,48
   1a548:	00008067          	ret
   1a54c:	00810513          	add	a0,sp,8
   1a550:	01512423          	sw	s5,8(sp)
   1a554:	bc0ff0ef          	jal	19914 <__lo0bits>
   1a558:	00c12703          	lw	a4,12(sp)
   1a55c:	00050793          	mv	a5,a0
   1a560:	04050e63          	beqz	a0,1a5bc <__d2b+0x134>
   1a564:	00812603          	lw	a2,8(sp)
   1a568:	02000693          	li	a3,32
   1a56c:	40a686b3          	sub	a3,a3,a0
   1a570:	00d716b3          	sll	a3,a4,a3
   1a574:	00a75733          	srl	a4,a4,a0
   1a578:	00c6e6b3          	or	a3,a3,a2
   1a57c:	00e12623          	sw	a4,12(sp)
   1a580:	00e034b3          	snez	s1,a4
   1a584:	00148493          	add	s1,s1,1
   1a588:	00d42a23          	sw	a3,20(s0)
   1a58c:	00e42c23          	sw	a4,24(s0)
   1a590:	00942823          	sw	s1,16(s0)
   1a594:	f6091ce3          	bnez	s2,1a50c <__d2b+0x84>
   1a598:	00249713          	sll	a4,s1,0x2
   1a59c:	00e40733          	add	a4,s0,a4
   1a5a0:	01072503          	lw	a0,16(a4)
   1a5a4:	bce78793          	add	a5,a5,-1074 # 3feffbce <__BSS_END__+0x3fedc0ae>
   1a5a8:	00fa2023          	sw	a5,0(s4)
   1a5ac:	af0ff0ef          	jal	1989c <__hi0bits>
   1a5b0:	00549493          	sll	s1,s1,0x5
   1a5b4:	40a48533          	sub	a0,s1,a0
   1a5b8:	f69ff06f          	j	1a520 <__d2b+0x98>
   1a5bc:	00812683          	lw	a3,8(sp)
   1a5c0:	fc1ff06f          	j	1a580 <__d2b+0xf8>
   1a5c4:	00008697          	auipc	a3,0x8
   1a5c8:	89468693          	add	a3,a3,-1900 # 21e58 <__clzsi2+0xd8>
   1a5cc:	00000613          	li	a2,0
   1a5d0:	30f00593          	li	a1,783
   1a5d4:	00008517          	auipc	a0,0x8
   1a5d8:	89850513          	add	a0,a0,-1896 # 21e6c <__clzsi2+0xec>
   1a5dc:	57d000ef          	jal	1b358 <__assert_func>

0001a5e0 <__ratio>:
   1a5e0:	fd010113          	add	sp,sp,-48
   1a5e4:	03212023          	sw	s2,32(sp)
   1a5e8:	00058913          	mv	s2,a1
   1a5ec:	00810593          	add	a1,sp,8
   1a5f0:	02112623          	sw	ra,44(sp)
   1a5f4:	02812423          	sw	s0,40(sp)
   1a5f8:	02912223          	sw	s1,36(sp)
   1a5fc:	01312e23          	sw	s3,28(sp)
   1a600:	00050993          	mv	s3,a0
   1a604:	d69ff0ef          	jal	1a36c <__b2d>
   1a608:	00050493          	mv	s1,a0
   1a60c:	00058413          	mv	s0,a1
   1a610:	00090513          	mv	a0,s2
   1a614:	00c10593          	add	a1,sp,12
   1a618:	d55ff0ef          	jal	1a36c <__b2d>
   1a61c:	01092703          	lw	a4,16(s2)
   1a620:	0109a783          	lw	a5,16(s3)
   1a624:	00c12683          	lw	a3,12(sp)
   1a628:	40e787b3          	sub	a5,a5,a4
   1a62c:	00812703          	lw	a4,8(sp)
   1a630:	00579793          	sll	a5,a5,0x5
   1a634:	40d70733          	sub	a4,a4,a3
   1a638:	00e787b3          	add	a5,a5,a4
   1a63c:	00050713          	mv	a4,a0
   1a640:	02f05e63          	blez	a5,1a67c <__ratio+0x9c>
   1a644:	01479793          	sll	a5,a5,0x14
   1a648:	00878433          	add	s0,a5,s0
   1a64c:	00058693          	mv	a3,a1
   1a650:	00048513          	mv	a0,s1
   1a654:	00040593          	mv	a1,s0
   1a658:	00070613          	mv	a2,a4
   1a65c:	405020ef          	jal	1d260 <__divdf3>
   1a660:	02c12083          	lw	ra,44(sp)
   1a664:	02812403          	lw	s0,40(sp)
   1a668:	02412483          	lw	s1,36(sp)
   1a66c:	02012903          	lw	s2,32(sp)
   1a670:	01c12983          	lw	s3,28(sp)
   1a674:	03010113          	add	sp,sp,48
   1a678:	00008067          	ret
   1a67c:	01479793          	sll	a5,a5,0x14
   1a680:	40f585b3          	sub	a1,a1,a5
   1a684:	fc9ff06f          	j	1a64c <__ratio+0x6c>

0001a688 <_mprec_log10>:
   1a688:	ff010113          	add	sp,sp,-16
   1a68c:	01212023          	sw	s2,0(sp)
   1a690:	00112623          	sw	ra,12(sp)
   1a694:	01700793          	li	a5,23
   1a698:	00050913          	mv	s2,a0
   1a69c:	06a7d263          	bge	a5,a0,1a700 <_mprec_log10+0x78>
   1a6a0:	00009717          	auipc	a4,0x9
   1a6a4:	0f870713          	add	a4,a4,248 # 23798 <__SDATA_BEGIN__+0x30>
   1a6a8:	00072783          	lw	a5,0(a4)
   1a6ac:	00472583          	lw	a1,4(a4)
   1a6b0:	00009717          	auipc	a4,0x9
   1a6b4:	0f070713          	add	a4,a4,240 # 237a0 <__SDATA_BEGIN__+0x38>
   1a6b8:	00812423          	sw	s0,8(sp)
   1a6bc:	00912223          	sw	s1,4(sp)
   1a6c0:	00072403          	lw	s0,0(a4)
   1a6c4:	00472483          	lw	s1,4(a4)
   1a6c8:	00078513          	mv	a0,a5
   1a6cc:	00040613          	mv	a2,s0
   1a6d0:	00048693          	mv	a3,s1
   1a6d4:	5b4030ef          	jal	1dc88 <__muldf3>
   1a6d8:	fff90913          	add	s2,s2,-1
   1a6dc:	00050793          	mv	a5,a0
   1a6e0:	fe0914e3          	bnez	s2,1a6c8 <_mprec_log10+0x40>
   1a6e4:	00812403          	lw	s0,8(sp)
   1a6e8:	00c12083          	lw	ra,12(sp)
   1a6ec:	00412483          	lw	s1,4(sp)
   1a6f0:	00012903          	lw	s2,0(sp)
   1a6f4:	00078513          	mv	a0,a5
   1a6f8:	01010113          	add	sp,sp,16
   1a6fc:	00008067          	ret
   1a700:	00351913          	sll	s2,a0,0x3
   1a704:	00008717          	auipc	a4,0x8
   1a708:	c8c70713          	add	a4,a4,-884 # 22390 <__mprec_tens>
   1a70c:	01270733          	add	a4,a4,s2
   1a710:	00072783          	lw	a5,0(a4)
   1a714:	00c12083          	lw	ra,12(sp)
   1a718:	00472583          	lw	a1,4(a4)
   1a71c:	00012903          	lw	s2,0(sp)
   1a720:	00078513          	mv	a0,a5
   1a724:	01010113          	add	sp,sp,16
   1a728:	00008067          	ret

0001a72c <__copybits>:
   1a72c:	01062683          	lw	a3,16(a2)
   1a730:	fff58593          	add	a1,a1,-1
   1a734:	4055d593          	sra	a1,a1,0x5
   1a738:	00158593          	add	a1,a1,1
   1a73c:	01460793          	add	a5,a2,20
   1a740:	00269693          	sll	a3,a3,0x2
   1a744:	00259593          	sll	a1,a1,0x2
   1a748:	00d786b3          	add	a3,a5,a3
   1a74c:	00b505b3          	add	a1,a0,a1
   1a750:	02d7f863          	bgeu	a5,a3,1a780 <__copybits+0x54>
   1a754:	00050713          	mv	a4,a0
   1a758:	0007a803          	lw	a6,0(a5)
   1a75c:	00478793          	add	a5,a5,4
   1a760:	00470713          	add	a4,a4,4
   1a764:	ff072e23          	sw	a6,-4(a4)
   1a768:	fed7e8e3          	bltu	a5,a3,1a758 <__copybits+0x2c>
   1a76c:	40c687b3          	sub	a5,a3,a2
   1a770:	feb78793          	add	a5,a5,-21
   1a774:	ffc7f793          	and	a5,a5,-4
   1a778:	00478793          	add	a5,a5,4
   1a77c:	00f50533          	add	a0,a0,a5
   1a780:	00b57863          	bgeu	a0,a1,1a790 <__copybits+0x64>
   1a784:	00450513          	add	a0,a0,4
   1a788:	fe052e23          	sw	zero,-4(a0)
   1a78c:	feb56ce3          	bltu	a0,a1,1a784 <__copybits+0x58>
   1a790:	00008067          	ret

0001a794 <__any_on>:
   1a794:	01052703          	lw	a4,16(a0)
   1a798:	4055d613          	sra	a2,a1,0x5
   1a79c:	01450693          	add	a3,a0,20
   1a7a0:	02c75263          	bge	a4,a2,1a7c4 <__any_on+0x30>
   1a7a4:	00271713          	sll	a4,a4,0x2
   1a7a8:	00e687b3          	add	a5,a3,a4
   1a7ac:	04f6f263          	bgeu	a3,a5,1a7f0 <__any_on+0x5c>
   1a7b0:	ffc7a703          	lw	a4,-4(a5)
   1a7b4:	ffc78793          	add	a5,a5,-4
   1a7b8:	fe070ae3          	beqz	a4,1a7ac <__any_on+0x18>
   1a7bc:	00100513          	li	a0,1
   1a7c0:	00008067          	ret
   1a7c4:	00261793          	sll	a5,a2,0x2
   1a7c8:	00f687b3          	add	a5,a3,a5
   1a7cc:	fee650e3          	bge	a2,a4,1a7ac <__any_on+0x18>
   1a7d0:	01f5f593          	and	a1,a1,31
   1a7d4:	fc058ce3          	beqz	a1,1a7ac <__any_on+0x18>
   1a7d8:	0007a603          	lw	a2,0(a5)
   1a7dc:	00100513          	li	a0,1
   1a7e0:	00b65733          	srl	a4,a2,a1
   1a7e4:	00b71733          	sll	a4,a4,a1
   1a7e8:	fce602e3          	beq	a2,a4,1a7ac <__any_on+0x18>
   1a7ec:	00008067          	ret
   1a7f0:	00000513          	li	a0,0
   1a7f4:	00008067          	ret

0001a7f8 <_realloc_r>:
   1a7f8:	fd010113          	add	sp,sp,-48
   1a7fc:	02912223          	sw	s1,36(sp)
   1a800:	02112623          	sw	ra,44(sp)
   1a804:	00060493          	mv	s1,a2
   1a808:	1e058863          	beqz	a1,1a9f8 <_realloc_r+0x200>
   1a80c:	02812423          	sw	s0,40(sp)
   1a810:	03212023          	sw	s2,32(sp)
   1a814:	00058413          	mv	s0,a1
   1a818:	01312e23          	sw	s3,28(sp)
   1a81c:	01512a23          	sw	s5,20(sp)
   1a820:	01412c23          	sw	s4,24(sp)
   1a824:	00050913          	mv	s2,a0
   1a828:	990f70ef          	jal	119b8 <__malloc_lock>
   1a82c:	ffc42703          	lw	a4,-4(s0)
   1a830:	00b48793          	add	a5,s1,11
   1a834:	01600693          	li	a3,22
   1a838:	ff840a93          	add	s5,s0,-8
   1a83c:	ffc77993          	and	s3,a4,-4
   1a840:	10f6f263          	bgeu	a3,a5,1a944 <_realloc_r+0x14c>
   1a844:	ff87fa13          	and	s4,a5,-8
   1a848:	1007c263          	bltz	a5,1a94c <_realloc_r+0x154>
   1a84c:	109a6063          	bltu	s4,s1,1a94c <_realloc_r+0x154>
   1a850:	1349d263          	bge	s3,s4,1a974 <_realloc_r+0x17c>
   1a854:	01812423          	sw	s8,8(sp)
   1a858:	00009c17          	auipc	s8,0x9
   1a85c:	998c0c13          	add	s8,s8,-1640 # 231f0 <__malloc_av_>
   1a860:	008c2603          	lw	a2,8(s8)
   1a864:	013a86b3          	add	a3,s5,s3
   1a868:	0046a783          	lw	a5,4(a3)
   1a86c:	1cd60863          	beq	a2,a3,1aa3c <_realloc_r+0x244>
   1a870:	ffe7f613          	and	a2,a5,-2
   1a874:	00c68633          	add	a2,a3,a2
   1a878:	00462603          	lw	a2,4(a2)
   1a87c:	00167613          	and	a2,a2,1
   1a880:	14061a63          	bnez	a2,1a9d4 <_realloc_r+0x1dc>
   1a884:	ffc7f793          	and	a5,a5,-4
   1a888:	00f98633          	add	a2,s3,a5
   1a88c:	0d465863          	bge	a2,s4,1a95c <_realloc_r+0x164>
   1a890:	00177713          	and	a4,a4,1
   1a894:	02071c63          	bnez	a4,1a8cc <_realloc_r+0xd4>
   1a898:	01712623          	sw	s7,12(sp)
   1a89c:	ff842b83          	lw	s7,-8(s0)
   1a8a0:	01612823          	sw	s6,16(sp)
   1a8a4:	417a8bb3          	sub	s7,s5,s7
   1a8a8:	004ba703          	lw	a4,4(s7)
   1a8ac:	ffc77713          	and	a4,a4,-4
   1a8b0:	00e787b3          	add	a5,a5,a4
   1a8b4:	01378b33          	add	s6,a5,s3
   1a8b8:	334b5c63          	bge	s6,s4,1abf0 <_realloc_r+0x3f8>
   1a8bc:	00e98b33          	add	s6,s3,a4
   1a8c0:	294b5863          	bge	s6,s4,1ab50 <_realloc_r+0x358>
   1a8c4:	01012b03          	lw	s6,16(sp)
   1a8c8:	00c12b83          	lw	s7,12(sp)
   1a8cc:	00048593          	mv	a1,s1
   1a8d0:	00090513          	mv	a0,s2
   1a8d4:	91df60ef          	jal	111f0 <_malloc_r>
   1a8d8:	00050493          	mv	s1,a0
   1a8dc:	40050863          	beqz	a0,1acec <_realloc_r+0x4f4>
   1a8e0:	ffc42783          	lw	a5,-4(s0)
   1a8e4:	ff850713          	add	a4,a0,-8
   1a8e8:	ffe7f793          	and	a5,a5,-2
   1a8ec:	00fa87b3          	add	a5,s5,a5
   1a8f0:	24e78663          	beq	a5,a4,1ab3c <_realloc_r+0x344>
   1a8f4:	ffc98613          	add	a2,s3,-4
   1a8f8:	02400793          	li	a5,36
   1a8fc:	2ec7e463          	bltu	a5,a2,1abe4 <_realloc_r+0x3ec>
   1a900:	01300713          	li	a4,19
   1a904:	20c76a63          	bltu	a4,a2,1ab18 <_realloc_r+0x320>
   1a908:	00050793          	mv	a5,a0
   1a90c:	00040713          	mv	a4,s0
   1a910:	00072683          	lw	a3,0(a4)
   1a914:	00d7a023          	sw	a3,0(a5)
   1a918:	00472683          	lw	a3,4(a4)
   1a91c:	00d7a223          	sw	a3,4(a5)
   1a920:	00872703          	lw	a4,8(a4)
   1a924:	00e7a423          	sw	a4,8(a5)
   1a928:	00040593          	mv	a1,s0
   1a92c:	00090513          	mv	a0,s2
   1a930:	dbcf60ef          	jal	10eec <_free_r>
   1a934:	00090513          	mv	a0,s2
   1a938:	884f70ef          	jal	119bc <__malloc_unlock>
   1a93c:	00812c03          	lw	s8,8(sp)
   1a940:	06c0006f          	j	1a9ac <_realloc_r+0x1b4>
   1a944:	01000a13          	li	s4,16
   1a948:	f09a74e3          	bgeu	s4,s1,1a850 <_realloc_r+0x58>
   1a94c:	00c00793          	li	a5,12
   1a950:	00f92023          	sw	a5,0(s2)
   1a954:	00000493          	li	s1,0
   1a958:	0540006f          	j	1a9ac <_realloc_r+0x1b4>
   1a95c:	00c6a783          	lw	a5,12(a3)
   1a960:	0086a703          	lw	a4,8(a3)
   1a964:	00812c03          	lw	s8,8(sp)
   1a968:	00060993          	mv	s3,a2
   1a96c:	00f72623          	sw	a5,12(a4)
   1a970:	00e7a423          	sw	a4,8(a5)
   1a974:	004aa783          	lw	a5,4(s5)
   1a978:	414986b3          	sub	a3,s3,s4
   1a97c:	00f00613          	li	a2,15
   1a980:	0017f793          	and	a5,a5,1
   1a984:	013a8733          	add	a4,s5,s3
   1a988:	08d66263          	bltu	a2,a3,1aa0c <_realloc_r+0x214>
   1a98c:	0137e7b3          	or	a5,a5,s3
   1a990:	00faa223          	sw	a5,4(s5)
   1a994:	00472783          	lw	a5,4(a4)
   1a998:	0017e793          	or	a5,a5,1
   1a99c:	00f72223          	sw	a5,4(a4)
   1a9a0:	00090513          	mv	a0,s2
   1a9a4:	818f70ef          	jal	119bc <__malloc_unlock>
   1a9a8:	00040493          	mv	s1,s0
   1a9ac:	02812403          	lw	s0,40(sp)
   1a9b0:	02c12083          	lw	ra,44(sp)
   1a9b4:	02012903          	lw	s2,32(sp)
   1a9b8:	01c12983          	lw	s3,28(sp)
   1a9bc:	01812a03          	lw	s4,24(sp)
   1a9c0:	01412a83          	lw	s5,20(sp)
   1a9c4:	00048513          	mv	a0,s1
   1a9c8:	02412483          	lw	s1,36(sp)
   1a9cc:	03010113          	add	sp,sp,48
   1a9d0:	00008067          	ret
   1a9d4:	00177713          	and	a4,a4,1
   1a9d8:	ee071ae3          	bnez	a4,1a8cc <_realloc_r+0xd4>
   1a9dc:	01712623          	sw	s7,12(sp)
   1a9e0:	ff842b83          	lw	s7,-8(s0)
   1a9e4:	01612823          	sw	s6,16(sp)
   1a9e8:	417a8bb3          	sub	s7,s5,s7
   1a9ec:	004ba703          	lw	a4,4(s7)
   1a9f0:	ffc77713          	and	a4,a4,-4
   1a9f4:	ec9ff06f          	j	1a8bc <_realloc_r+0xc4>
   1a9f8:	02c12083          	lw	ra,44(sp)
   1a9fc:	02412483          	lw	s1,36(sp)
   1aa00:	00060593          	mv	a1,a2
   1aa04:	03010113          	add	sp,sp,48
   1aa08:	fe8f606f          	j	111f0 <_malloc_r>
   1aa0c:	0147e7b3          	or	a5,a5,s4
   1aa10:	00faa223          	sw	a5,4(s5)
   1aa14:	014a85b3          	add	a1,s5,s4
   1aa18:	0016e693          	or	a3,a3,1
   1aa1c:	00d5a223          	sw	a3,4(a1)
   1aa20:	00472783          	lw	a5,4(a4)
   1aa24:	00858593          	add	a1,a1,8
   1aa28:	00090513          	mv	a0,s2
   1aa2c:	0017e793          	or	a5,a5,1
   1aa30:	00f72223          	sw	a5,4(a4)
   1aa34:	cb8f60ef          	jal	10eec <_free_r>
   1aa38:	f69ff06f          	j	1a9a0 <_realloc_r+0x1a8>
   1aa3c:	ffc7f793          	and	a5,a5,-4
   1aa40:	013786b3          	add	a3,a5,s3
   1aa44:	010a0613          	add	a2,s4,16
   1aa48:	26c6d063          	bge	a3,a2,1aca8 <_realloc_r+0x4b0>
   1aa4c:	00177713          	and	a4,a4,1
   1aa50:	e6071ee3          	bnez	a4,1a8cc <_realloc_r+0xd4>
   1aa54:	01712623          	sw	s7,12(sp)
   1aa58:	ff842b83          	lw	s7,-8(s0)
   1aa5c:	01612823          	sw	s6,16(sp)
   1aa60:	417a8bb3          	sub	s7,s5,s7
   1aa64:	004ba703          	lw	a4,4(s7)
   1aa68:	ffc77713          	and	a4,a4,-4
   1aa6c:	00e787b3          	add	a5,a5,a4
   1aa70:	01378b33          	add	s6,a5,s3
   1aa74:	e4cb44e3          	blt	s6,a2,1a8bc <_realloc_r+0xc4>
   1aa78:	00cba783          	lw	a5,12(s7)
   1aa7c:	008ba703          	lw	a4,8(s7)
   1aa80:	ffc98613          	add	a2,s3,-4
   1aa84:	02400693          	li	a3,36
   1aa88:	00f72623          	sw	a5,12(a4)
   1aa8c:	00e7a423          	sw	a4,8(a5)
   1aa90:	008b8493          	add	s1,s7,8
   1aa94:	28c6e463          	bltu	a3,a2,1ad1c <_realloc_r+0x524>
   1aa98:	01300713          	li	a4,19
   1aa9c:	00048793          	mv	a5,s1
   1aaa0:	02c77263          	bgeu	a4,a2,1aac4 <_realloc_r+0x2cc>
   1aaa4:	00042703          	lw	a4,0(s0)
   1aaa8:	01b00793          	li	a5,27
   1aaac:	00eba423          	sw	a4,8(s7)
   1aab0:	00442703          	lw	a4,4(s0)
   1aab4:	00eba623          	sw	a4,12(s7)
   1aab8:	26c7ea63          	bltu	a5,a2,1ad2c <_realloc_r+0x534>
   1aabc:	00840413          	add	s0,s0,8
   1aac0:	010b8793          	add	a5,s7,16
   1aac4:	00042703          	lw	a4,0(s0)
   1aac8:	00e7a023          	sw	a4,0(a5)
   1aacc:	00442703          	lw	a4,4(s0)
   1aad0:	00e7a223          	sw	a4,4(a5)
   1aad4:	00842703          	lw	a4,8(s0)
   1aad8:	00e7a423          	sw	a4,8(a5)
   1aadc:	014b8733          	add	a4,s7,s4
   1aae0:	414b07b3          	sub	a5,s6,s4
   1aae4:	00ec2423          	sw	a4,8(s8)
   1aae8:	0017e793          	or	a5,a5,1
   1aaec:	00f72223          	sw	a5,4(a4)
   1aaf0:	004ba783          	lw	a5,4(s7)
   1aaf4:	00090513          	mv	a0,s2
   1aaf8:	0017f793          	and	a5,a5,1
   1aafc:	0147e7b3          	or	a5,a5,s4
   1ab00:	00fba223          	sw	a5,4(s7)
   1ab04:	eb9f60ef          	jal	119bc <__malloc_unlock>
   1ab08:	01012b03          	lw	s6,16(sp)
   1ab0c:	00c12b83          	lw	s7,12(sp)
   1ab10:	00812c03          	lw	s8,8(sp)
   1ab14:	e99ff06f          	j	1a9ac <_realloc_r+0x1b4>
   1ab18:	00042683          	lw	a3,0(s0)
   1ab1c:	01b00713          	li	a4,27
   1ab20:	00d52023          	sw	a3,0(a0)
   1ab24:	00442683          	lw	a3,4(s0)
   1ab28:	00d52223          	sw	a3,4(a0)
   1ab2c:	14c76e63          	bltu	a4,a2,1ac88 <_realloc_r+0x490>
   1ab30:	00840713          	add	a4,s0,8
   1ab34:	00850793          	add	a5,a0,8
   1ab38:	dd9ff06f          	j	1a910 <_realloc_r+0x118>
   1ab3c:	ffc52783          	lw	a5,-4(a0)
   1ab40:	00812c03          	lw	s8,8(sp)
   1ab44:	ffc7f793          	and	a5,a5,-4
   1ab48:	00f989b3          	add	s3,s3,a5
   1ab4c:	e29ff06f          	j	1a974 <_realloc_r+0x17c>
   1ab50:	00cba783          	lw	a5,12(s7)
   1ab54:	008ba703          	lw	a4,8(s7)
   1ab58:	ffc98613          	add	a2,s3,-4
   1ab5c:	02400693          	li	a3,36
   1ab60:	00f72623          	sw	a5,12(a4)
   1ab64:	00e7a423          	sw	a4,8(a5)
   1ab68:	008b8493          	add	s1,s7,8
   1ab6c:	10c6e663          	bltu	a3,a2,1ac78 <_realloc_r+0x480>
   1ab70:	01300713          	li	a4,19
   1ab74:	00048793          	mv	a5,s1
   1ab78:	02c77c63          	bgeu	a4,a2,1abb0 <_realloc_r+0x3b8>
   1ab7c:	00042703          	lw	a4,0(s0)
   1ab80:	01b00793          	li	a5,27
   1ab84:	00eba423          	sw	a4,8(s7)
   1ab88:	00442703          	lw	a4,4(s0)
   1ab8c:	00eba623          	sw	a4,12(s7)
   1ab90:	14c7f863          	bgeu	a5,a2,1ace0 <_realloc_r+0x4e8>
   1ab94:	00842783          	lw	a5,8(s0)
   1ab98:	00fba823          	sw	a5,16(s7)
   1ab9c:	00c42783          	lw	a5,12(s0)
   1aba0:	00fbaa23          	sw	a5,20(s7)
   1aba4:	0ad60c63          	beq	a2,a3,1ac5c <_realloc_r+0x464>
   1aba8:	01040413          	add	s0,s0,16
   1abac:	018b8793          	add	a5,s7,24
   1abb0:	00042703          	lw	a4,0(s0)
   1abb4:	00e7a023          	sw	a4,0(a5)
   1abb8:	00442703          	lw	a4,4(s0)
   1abbc:	00e7a223          	sw	a4,4(a5)
   1abc0:	00842703          	lw	a4,8(s0)
   1abc4:	00e7a423          	sw	a4,8(a5)
   1abc8:	000b0993          	mv	s3,s6
   1abcc:	000b8a93          	mv	s5,s7
   1abd0:	01012b03          	lw	s6,16(sp)
   1abd4:	00c12b83          	lw	s7,12(sp)
   1abd8:	00812c03          	lw	s8,8(sp)
   1abdc:	00048413          	mv	s0,s1
   1abe0:	d95ff06f          	j	1a974 <_realloc_r+0x17c>
   1abe4:	00040593          	mv	a1,s0
   1abe8:	c75fb0ef          	jal	1685c <memmove>
   1abec:	d3dff06f          	j	1a928 <_realloc_r+0x130>
   1abf0:	00c6a783          	lw	a5,12(a3)
   1abf4:	0086a703          	lw	a4,8(a3)
   1abf8:	ffc98613          	add	a2,s3,-4
   1abfc:	02400693          	li	a3,36
   1ac00:	00f72623          	sw	a5,12(a4)
   1ac04:	00e7a423          	sw	a4,8(a5)
   1ac08:	008ba703          	lw	a4,8(s7)
   1ac0c:	00cba783          	lw	a5,12(s7)
   1ac10:	008b8493          	add	s1,s7,8
   1ac14:	00f72623          	sw	a5,12(a4)
   1ac18:	00e7a423          	sw	a4,8(a5)
   1ac1c:	04c6ee63          	bltu	a3,a2,1ac78 <_realloc_r+0x480>
   1ac20:	01300713          	li	a4,19
   1ac24:	00048793          	mv	a5,s1
   1ac28:	f8c774e3          	bgeu	a4,a2,1abb0 <_realloc_r+0x3b8>
   1ac2c:	00042703          	lw	a4,0(s0)
   1ac30:	01b00793          	li	a5,27
   1ac34:	00eba423          	sw	a4,8(s7)
   1ac38:	00442703          	lw	a4,4(s0)
   1ac3c:	00eba623          	sw	a4,12(s7)
   1ac40:	0ac7f063          	bgeu	a5,a2,1ace0 <_realloc_r+0x4e8>
   1ac44:	00842703          	lw	a4,8(s0)
   1ac48:	02400793          	li	a5,36
   1ac4c:	00eba823          	sw	a4,16(s7)
   1ac50:	00c42703          	lw	a4,12(s0)
   1ac54:	00ebaa23          	sw	a4,20(s7)
   1ac58:	f4f618e3          	bne	a2,a5,1aba8 <_realloc_r+0x3b0>
   1ac5c:	01042703          	lw	a4,16(s0)
   1ac60:	020b8793          	add	a5,s7,32
   1ac64:	01840413          	add	s0,s0,24
   1ac68:	00ebac23          	sw	a4,24(s7)
   1ac6c:	ffc42703          	lw	a4,-4(s0)
   1ac70:	00ebae23          	sw	a4,28(s7)
   1ac74:	f3dff06f          	j	1abb0 <_realloc_r+0x3b8>
   1ac78:	00040593          	mv	a1,s0
   1ac7c:	00048513          	mv	a0,s1
   1ac80:	bddfb0ef          	jal	1685c <memmove>
   1ac84:	f45ff06f          	j	1abc8 <_realloc_r+0x3d0>
   1ac88:	00842703          	lw	a4,8(s0)
   1ac8c:	00e52423          	sw	a4,8(a0)
   1ac90:	00c42703          	lw	a4,12(s0)
   1ac94:	00e52623          	sw	a4,12(a0)
   1ac98:	06f60463          	beq	a2,a5,1ad00 <_realloc_r+0x508>
   1ac9c:	01040713          	add	a4,s0,16
   1aca0:	01050793          	add	a5,a0,16
   1aca4:	c6dff06f          	j	1a910 <_realloc_r+0x118>
   1aca8:	014a8ab3          	add	s5,s5,s4
   1acac:	414687b3          	sub	a5,a3,s4
   1acb0:	015c2423          	sw	s5,8(s8)
   1acb4:	0017e793          	or	a5,a5,1
   1acb8:	00faa223          	sw	a5,4(s5)
   1acbc:	ffc42783          	lw	a5,-4(s0)
   1acc0:	00090513          	mv	a0,s2
   1acc4:	00040493          	mv	s1,s0
   1acc8:	0017f793          	and	a5,a5,1
   1accc:	0147e7b3          	or	a5,a5,s4
   1acd0:	fef42e23          	sw	a5,-4(s0)
   1acd4:	ce9f60ef          	jal	119bc <__malloc_unlock>
   1acd8:	00812c03          	lw	s8,8(sp)
   1acdc:	cd1ff06f          	j	1a9ac <_realloc_r+0x1b4>
   1ace0:	00840413          	add	s0,s0,8
   1ace4:	010b8793          	add	a5,s7,16
   1ace8:	ec9ff06f          	j	1abb0 <_realloc_r+0x3b8>
   1acec:	00090513          	mv	a0,s2
   1acf0:	ccdf60ef          	jal	119bc <__malloc_unlock>
   1acf4:	00000493          	li	s1,0
   1acf8:	00812c03          	lw	s8,8(sp)
   1acfc:	cb1ff06f          	j	1a9ac <_realloc_r+0x1b4>
   1ad00:	01042683          	lw	a3,16(s0)
   1ad04:	01840713          	add	a4,s0,24
   1ad08:	01850793          	add	a5,a0,24
   1ad0c:	00d52823          	sw	a3,16(a0)
   1ad10:	01442683          	lw	a3,20(s0)
   1ad14:	00d52a23          	sw	a3,20(a0)
   1ad18:	bf9ff06f          	j	1a910 <_realloc_r+0x118>
   1ad1c:	00040593          	mv	a1,s0
   1ad20:	00048513          	mv	a0,s1
   1ad24:	b39fb0ef          	jal	1685c <memmove>
   1ad28:	db5ff06f          	j	1aadc <_realloc_r+0x2e4>
   1ad2c:	00842783          	lw	a5,8(s0)
   1ad30:	00fba823          	sw	a5,16(s7)
   1ad34:	00c42783          	lw	a5,12(s0)
   1ad38:	00fbaa23          	sw	a5,20(s7)
   1ad3c:	00d60863          	beq	a2,a3,1ad4c <_realloc_r+0x554>
   1ad40:	01040413          	add	s0,s0,16
   1ad44:	018b8793          	add	a5,s7,24
   1ad48:	d7dff06f          	j	1aac4 <_realloc_r+0x2cc>
   1ad4c:	01042703          	lw	a4,16(s0)
   1ad50:	020b8793          	add	a5,s7,32
   1ad54:	01840413          	add	s0,s0,24
   1ad58:	00ebac23          	sw	a4,24(s7)
   1ad5c:	ffc42703          	lw	a4,-4(s0)
   1ad60:	00ebae23          	sw	a4,28(s7)
   1ad64:	d61ff06f          	j	1aac4 <_realloc_r+0x2cc>

0001ad68 <_wctomb_r>:
   1ad68:	e181a783          	lw	a5,-488(gp) # 236d8 <__global_locale+0xe0>
   1ad6c:	00078067          	jr	a5

0001ad70 <__ascii_wctomb>:
   1ad70:	02058463          	beqz	a1,1ad98 <__ascii_wctomb+0x28>
   1ad74:	0ff00793          	li	a5,255
   1ad78:	00c7e863          	bltu	a5,a2,1ad88 <__ascii_wctomb+0x18>
   1ad7c:	00c58023          	sb	a2,0(a1)
   1ad80:	00100513          	li	a0,1
   1ad84:	00008067          	ret
   1ad88:	08a00793          	li	a5,138
   1ad8c:	00f52023          	sw	a5,0(a0)
   1ad90:	fff00513          	li	a0,-1
   1ad94:	00008067          	ret
   1ad98:	00000513          	li	a0,0
   1ad9c:	00008067          	ret

0001ada0 <_wcrtomb_r>:
   1ada0:	fe010113          	add	sp,sp,-32
   1ada4:	00812c23          	sw	s0,24(sp)
   1ada8:	00912a23          	sw	s1,20(sp)
   1adac:	00112e23          	sw	ra,28(sp)
   1adb0:	00050413          	mv	s0,a0
   1adb4:	00068493          	mv	s1,a3
   1adb8:	e181a783          	lw	a5,-488(gp) # 236d8 <__global_locale+0xe0>
   1adbc:	02058263          	beqz	a1,1ade0 <_wcrtomb_r+0x40>
   1adc0:	000780e7          	jalr	a5
   1adc4:	fff00793          	li	a5,-1
   1adc8:	02f50663          	beq	a0,a5,1adf4 <_wcrtomb_r+0x54>
   1adcc:	01c12083          	lw	ra,28(sp)
   1add0:	01812403          	lw	s0,24(sp)
   1add4:	01412483          	lw	s1,20(sp)
   1add8:	02010113          	add	sp,sp,32
   1addc:	00008067          	ret
   1ade0:	00000613          	li	a2,0
   1ade4:	00410593          	add	a1,sp,4
   1ade8:	000780e7          	jalr	a5
   1adec:	fff00793          	li	a5,-1
   1adf0:	fcf51ee3          	bne	a0,a5,1adcc <_wcrtomb_r+0x2c>
   1adf4:	0004a023          	sw	zero,0(s1)
   1adf8:	08a00793          	li	a5,138
   1adfc:	01c12083          	lw	ra,28(sp)
   1ae00:	00f42023          	sw	a5,0(s0)
   1ae04:	01812403          	lw	s0,24(sp)
   1ae08:	01412483          	lw	s1,20(sp)
   1ae0c:	02010113          	add	sp,sp,32
   1ae10:	00008067          	ret

0001ae14 <wcrtomb>:
   1ae14:	fe010113          	add	sp,sp,-32
   1ae18:	00812c23          	sw	s0,24(sp)
   1ae1c:	00912a23          	sw	s1,20(sp)
   1ae20:	00112e23          	sw	ra,28(sp)
   1ae24:	00060413          	mv	s0,a2
   1ae28:	f0c1a483          	lw	s1,-244(gp) # 237cc <_impure_ptr>
   1ae2c:	e181a783          	lw	a5,-488(gp) # 236d8 <__global_locale+0xe0>
   1ae30:	02050a63          	beqz	a0,1ae64 <wcrtomb+0x50>
   1ae34:	00058613          	mv	a2,a1
   1ae38:	00040693          	mv	a3,s0
   1ae3c:	00050593          	mv	a1,a0
   1ae40:	00048513          	mv	a0,s1
   1ae44:	000780e7          	jalr	a5
   1ae48:	fff00793          	li	a5,-1
   1ae4c:	02f50a63          	beq	a0,a5,1ae80 <wcrtomb+0x6c>
   1ae50:	01c12083          	lw	ra,28(sp)
   1ae54:	01812403          	lw	s0,24(sp)
   1ae58:	01412483          	lw	s1,20(sp)
   1ae5c:	02010113          	add	sp,sp,32
   1ae60:	00008067          	ret
   1ae64:	00060693          	mv	a3,a2
   1ae68:	00410593          	add	a1,sp,4
   1ae6c:	00000613          	li	a2,0
   1ae70:	00048513          	mv	a0,s1
   1ae74:	000780e7          	jalr	a5
   1ae78:	fff00793          	li	a5,-1
   1ae7c:	fcf51ae3          	bne	a0,a5,1ae50 <wcrtomb+0x3c>
   1ae80:	00042023          	sw	zero,0(s0)
   1ae84:	01c12083          	lw	ra,28(sp)
   1ae88:	01812403          	lw	s0,24(sp)
   1ae8c:	08a00793          	li	a5,138
   1ae90:	00f4a023          	sw	a5,0(s1)
   1ae94:	01412483          	lw	s1,20(sp)
   1ae98:	02010113          	add	sp,sp,32
   1ae9c:	00008067          	ret

0001aea0 <__smakebuf_r>:
   1aea0:	00c59783          	lh	a5,12(a1)
   1aea4:	f8010113          	add	sp,sp,-128
   1aea8:	06812c23          	sw	s0,120(sp)
   1aeac:	06112e23          	sw	ra,124(sp)
   1aeb0:	0027f713          	and	a4,a5,2
   1aeb4:	00058413          	mv	s0,a1
   1aeb8:	02070463          	beqz	a4,1aee0 <__smakebuf_r+0x40>
   1aebc:	04358793          	add	a5,a1,67
   1aec0:	00f5a023          	sw	a5,0(a1)
   1aec4:	00f5a823          	sw	a5,16(a1)
   1aec8:	00100793          	li	a5,1
   1aecc:	00f5aa23          	sw	a5,20(a1)
   1aed0:	07c12083          	lw	ra,124(sp)
   1aed4:	07812403          	lw	s0,120(sp)
   1aed8:	08010113          	add	sp,sp,128
   1aedc:	00008067          	ret
   1aee0:	00e59583          	lh	a1,14(a1)
   1aee4:	06912a23          	sw	s1,116(sp)
   1aee8:	07212823          	sw	s2,112(sp)
   1aeec:	07312623          	sw	s3,108(sp)
   1aef0:	07412423          	sw	s4,104(sp)
   1aef4:	00050493          	mv	s1,a0
   1aef8:	0805c663          	bltz	a1,1af84 <__smakebuf_r+0xe4>
   1aefc:	00810613          	add	a2,sp,8
   1af00:	3b0000ef          	jal	1b2b0 <_fstat_r>
   1af04:	06054e63          	bltz	a0,1af80 <__smakebuf_r+0xe0>
   1af08:	00c12783          	lw	a5,12(sp)
   1af0c:	0000f937          	lui	s2,0xf
   1af10:	000019b7          	lui	s3,0x1
   1af14:	00f97933          	and	s2,s2,a5
   1af18:	ffffe7b7          	lui	a5,0xffffe
   1af1c:	00f90933          	add	s2,s2,a5
   1af20:	00193913          	seqz	s2,s2
   1af24:	40000a13          	li	s4,1024
   1af28:	80098993          	add	s3,s3,-2048 # 800 <exit-0xf894>
   1af2c:	000a0593          	mv	a1,s4
   1af30:	00048513          	mv	a0,s1
   1af34:	abcf60ef          	jal	111f0 <_malloc_r>
   1af38:	00c41783          	lh	a5,12(s0)
   1af3c:	06050863          	beqz	a0,1afac <__smakebuf_r+0x10c>
   1af40:	0807e793          	or	a5,a5,128
   1af44:	00a42023          	sw	a0,0(s0)
   1af48:	00a42823          	sw	a0,16(s0)
   1af4c:	00f41623          	sh	a5,12(s0)
   1af50:	01442a23          	sw	s4,20(s0)
   1af54:	0a091063          	bnez	s2,1aff4 <__smakebuf_r+0x154>
   1af58:	0137e7b3          	or	a5,a5,s3
   1af5c:	07c12083          	lw	ra,124(sp)
   1af60:	00f41623          	sh	a5,12(s0)
   1af64:	07812403          	lw	s0,120(sp)
   1af68:	07412483          	lw	s1,116(sp)
   1af6c:	07012903          	lw	s2,112(sp)
   1af70:	06c12983          	lw	s3,108(sp)
   1af74:	06812a03          	lw	s4,104(sp)
   1af78:	08010113          	add	sp,sp,128
   1af7c:	00008067          	ret
   1af80:	00c41783          	lh	a5,12(s0)
   1af84:	0807f793          	and	a5,a5,128
   1af88:	00000913          	li	s2,0
   1af8c:	04078e63          	beqz	a5,1afe8 <__smakebuf_r+0x148>
   1af90:	04000a13          	li	s4,64
   1af94:	000a0593          	mv	a1,s4
   1af98:	00048513          	mv	a0,s1
   1af9c:	a54f60ef          	jal	111f0 <_malloc_r>
   1afa0:	00c41783          	lh	a5,12(s0)
   1afa4:	00000993          	li	s3,0
   1afa8:	f8051ce3          	bnez	a0,1af40 <__smakebuf_r+0xa0>
   1afac:	2007f713          	and	a4,a5,512
   1afb0:	04071e63          	bnez	a4,1b00c <__smakebuf_r+0x16c>
   1afb4:	ffc7f793          	and	a5,a5,-4
   1afb8:	0027e793          	or	a5,a5,2
   1afbc:	04340713          	add	a4,s0,67
   1afc0:	00f41623          	sh	a5,12(s0)
   1afc4:	00100793          	li	a5,1
   1afc8:	07412483          	lw	s1,116(sp)
   1afcc:	07012903          	lw	s2,112(sp)
   1afd0:	06c12983          	lw	s3,108(sp)
   1afd4:	06812a03          	lw	s4,104(sp)
   1afd8:	00e42023          	sw	a4,0(s0)
   1afdc:	00e42823          	sw	a4,16(s0)
   1afe0:	00f42a23          	sw	a5,20(s0)
   1afe4:	eedff06f          	j	1aed0 <__smakebuf_r+0x30>
   1afe8:	40000a13          	li	s4,1024
   1afec:	00000993          	li	s3,0
   1aff0:	f3dff06f          	j	1af2c <__smakebuf_r+0x8c>
   1aff4:	00e41583          	lh	a1,14(s0)
   1aff8:	00048513          	mv	a0,s1
   1affc:	30c000ef          	jal	1b308 <_isatty_r>
   1b000:	02051063          	bnez	a0,1b020 <__smakebuf_r+0x180>
   1b004:	00c41783          	lh	a5,12(s0)
   1b008:	f51ff06f          	j	1af58 <__smakebuf_r+0xb8>
   1b00c:	07412483          	lw	s1,116(sp)
   1b010:	07012903          	lw	s2,112(sp)
   1b014:	06c12983          	lw	s3,108(sp)
   1b018:	06812a03          	lw	s4,104(sp)
   1b01c:	eb5ff06f          	j	1aed0 <__smakebuf_r+0x30>
   1b020:	00c45783          	lhu	a5,12(s0)
   1b024:	ffc7f793          	and	a5,a5,-4
   1b028:	0017e793          	or	a5,a5,1
   1b02c:	01079793          	sll	a5,a5,0x10
   1b030:	4107d793          	sra	a5,a5,0x10
   1b034:	f25ff06f          	j	1af58 <__smakebuf_r+0xb8>

0001b038 <__swhatbuf_r>:
   1b038:	f9010113          	add	sp,sp,-112
   1b03c:	06812423          	sw	s0,104(sp)
   1b040:	00058413          	mv	s0,a1
   1b044:	00e59583          	lh	a1,14(a1)
   1b048:	06912223          	sw	s1,100(sp)
   1b04c:	07212023          	sw	s2,96(sp)
   1b050:	06112623          	sw	ra,108(sp)
   1b054:	00060493          	mv	s1,a2
   1b058:	00068913          	mv	s2,a3
   1b05c:	0405ca63          	bltz	a1,1b0b0 <__swhatbuf_r+0x78>
   1b060:	00810613          	add	a2,sp,8
   1b064:	24c000ef          	jal	1b2b0 <_fstat_r>
   1b068:	04054463          	bltz	a0,1b0b0 <__swhatbuf_r+0x78>
   1b06c:	00c12703          	lw	a4,12(sp)
   1b070:	0000f7b7          	lui	a5,0xf
   1b074:	06c12083          	lw	ra,108(sp)
   1b078:	00e7f7b3          	and	a5,a5,a4
   1b07c:	ffffe737          	lui	a4,0xffffe
   1b080:	00e787b3          	add	a5,a5,a4
   1b084:	06812403          	lw	s0,104(sp)
   1b088:	0017b793          	seqz	a5,a5
   1b08c:	00f92023          	sw	a5,0(s2) # f000 <exit-0x1094>
   1b090:	40000713          	li	a4,1024
   1b094:	00e4a023          	sw	a4,0(s1)
   1b098:	00001537          	lui	a0,0x1
   1b09c:	06412483          	lw	s1,100(sp)
   1b0a0:	06012903          	lw	s2,96(sp)
   1b0a4:	80050513          	add	a0,a0,-2048 # 800 <exit-0xf894>
   1b0a8:	07010113          	add	sp,sp,112
   1b0ac:	00008067          	ret
   1b0b0:	00c45783          	lhu	a5,12(s0)
   1b0b4:	0807f793          	and	a5,a5,128
   1b0b8:	02078863          	beqz	a5,1b0e8 <__swhatbuf_r+0xb0>
   1b0bc:	06c12083          	lw	ra,108(sp)
   1b0c0:	06812403          	lw	s0,104(sp)
   1b0c4:	00000793          	li	a5,0
   1b0c8:	00f92023          	sw	a5,0(s2)
   1b0cc:	04000713          	li	a4,64
   1b0d0:	00e4a023          	sw	a4,0(s1)
   1b0d4:	06012903          	lw	s2,96(sp)
   1b0d8:	06412483          	lw	s1,100(sp)
   1b0dc:	00000513          	li	a0,0
   1b0e0:	07010113          	add	sp,sp,112
   1b0e4:	00008067          	ret
   1b0e8:	06c12083          	lw	ra,108(sp)
   1b0ec:	06812403          	lw	s0,104(sp)
   1b0f0:	00f92023          	sw	a5,0(s2)
   1b0f4:	40000713          	li	a4,1024
   1b0f8:	00e4a023          	sw	a4,0(s1)
   1b0fc:	06012903          	lw	s2,96(sp)
   1b100:	06412483          	lw	s1,100(sp)
   1b104:	00000513          	li	a0,0
   1b108:	07010113          	add	sp,sp,112
   1b10c:	00008067          	ret

0001b110 <__swbuf_r>:
   1b110:	fe010113          	add	sp,sp,-32
   1b114:	00812c23          	sw	s0,24(sp)
   1b118:	00912a23          	sw	s1,20(sp)
   1b11c:	01212823          	sw	s2,16(sp)
   1b120:	00112e23          	sw	ra,28(sp)
   1b124:	00050913          	mv	s2,a0
   1b128:	00058493          	mv	s1,a1
   1b12c:	00060413          	mv	s0,a2
   1b130:	00050663          	beqz	a0,1b13c <__swbuf_r+0x2c>
   1b134:	03452783          	lw	a5,52(a0)
   1b138:	16078063          	beqz	a5,1b298 <__swbuf_r+0x188>
   1b13c:	01842783          	lw	a5,24(s0)
   1b140:	00c41703          	lh	a4,12(s0)
   1b144:	00f42423          	sw	a5,8(s0)
   1b148:	00877793          	and	a5,a4,8
   1b14c:	08078063          	beqz	a5,1b1cc <__swbuf_r+0xbc>
   1b150:	01042783          	lw	a5,16(s0)
   1b154:	06078c63          	beqz	a5,1b1cc <__swbuf_r+0xbc>
   1b158:	01312623          	sw	s3,12(sp)
   1b15c:	01271693          	sll	a3,a4,0x12
   1b160:	0ff4f993          	zext.b	s3,s1
   1b164:	0ff4f493          	zext.b	s1,s1
   1b168:	0806d863          	bgez	a3,1b1f8 <__swbuf_r+0xe8>
   1b16c:	00042703          	lw	a4,0(s0)
   1b170:	01442683          	lw	a3,20(s0)
   1b174:	40f707b3          	sub	a5,a4,a5
   1b178:	0ad7d863          	bge	a5,a3,1b228 <__swbuf_r+0x118>
   1b17c:	00842683          	lw	a3,8(s0)
   1b180:	00170613          	add	a2,a4,1 # ffffe001 <__BSS_END__+0xfffda4e1>
   1b184:	00c42023          	sw	a2,0(s0)
   1b188:	fff68693          	add	a3,a3,-1
   1b18c:	00d42423          	sw	a3,8(s0)
   1b190:	01370023          	sb	s3,0(a4)
   1b194:	01442703          	lw	a4,20(s0)
   1b198:	00178793          	add	a5,a5,1 # f001 <exit-0x1093>
   1b19c:	0cf70263          	beq	a4,a5,1b260 <__swbuf_r+0x150>
   1b1a0:	00c45783          	lhu	a5,12(s0)
   1b1a4:	0017f793          	and	a5,a5,1
   1b1a8:	0c079a63          	bnez	a5,1b27c <__swbuf_r+0x16c>
   1b1ac:	00c12983          	lw	s3,12(sp)
   1b1b0:	01c12083          	lw	ra,28(sp)
   1b1b4:	01812403          	lw	s0,24(sp)
   1b1b8:	01012903          	lw	s2,16(sp)
   1b1bc:	00048513          	mv	a0,s1
   1b1c0:	01412483          	lw	s1,20(sp)
   1b1c4:	02010113          	add	sp,sp,32
   1b1c8:	00008067          	ret
   1b1cc:	00040593          	mv	a1,s0
   1b1d0:	00090513          	mv	a0,s2
   1b1d4:	878fb0ef          	jal	1624c <__swsetup_r>
   1b1d8:	08051e63          	bnez	a0,1b274 <__swbuf_r+0x164>
   1b1dc:	00c41703          	lh	a4,12(s0)
   1b1e0:	01312623          	sw	s3,12(sp)
   1b1e4:	01042783          	lw	a5,16(s0)
   1b1e8:	01271693          	sll	a3,a4,0x12
   1b1ec:	0ff4f993          	zext.b	s3,s1
   1b1f0:	0ff4f493          	zext.b	s1,s1
   1b1f4:	f606cce3          	bltz	a3,1b16c <__swbuf_r+0x5c>
   1b1f8:	06442683          	lw	a3,100(s0)
   1b1fc:	ffffe637          	lui	a2,0xffffe
   1b200:	000025b7          	lui	a1,0x2
   1b204:	00b76733          	or	a4,a4,a1
   1b208:	fff60613          	add	a2,a2,-1 # ffffdfff <__BSS_END__+0xfffda4df>
   1b20c:	00c6f6b3          	and	a3,a3,a2
   1b210:	00e41623          	sh	a4,12(s0)
   1b214:	00042703          	lw	a4,0(s0)
   1b218:	06d42223          	sw	a3,100(s0)
   1b21c:	01442683          	lw	a3,20(s0)
   1b220:	40f707b3          	sub	a5,a4,a5
   1b224:	f4d7cce3          	blt	a5,a3,1b17c <__swbuf_r+0x6c>
   1b228:	00040593          	mv	a1,s0
   1b22c:	00090513          	mv	a0,s2
   1b230:	a25fa0ef          	jal	15c54 <_fflush_r>
   1b234:	02051e63          	bnez	a0,1b270 <__swbuf_r+0x160>
   1b238:	00042703          	lw	a4,0(s0)
   1b23c:	00842683          	lw	a3,8(s0)
   1b240:	00100793          	li	a5,1
   1b244:	00170613          	add	a2,a4,1
   1b248:	fff68693          	add	a3,a3,-1
   1b24c:	00c42023          	sw	a2,0(s0)
   1b250:	00d42423          	sw	a3,8(s0)
   1b254:	01370023          	sb	s3,0(a4)
   1b258:	01442703          	lw	a4,20(s0)
   1b25c:	f4f712e3          	bne	a4,a5,1b1a0 <__swbuf_r+0x90>
   1b260:	00040593          	mv	a1,s0
   1b264:	00090513          	mv	a0,s2
   1b268:	9edfa0ef          	jal	15c54 <_fflush_r>
   1b26c:	f40500e3          	beqz	a0,1b1ac <__swbuf_r+0x9c>
   1b270:	00c12983          	lw	s3,12(sp)
   1b274:	fff00493          	li	s1,-1
   1b278:	f39ff06f          	j	1b1b0 <__swbuf_r+0xa0>
   1b27c:	00a00793          	li	a5,10
   1b280:	f2f496e3          	bne	s1,a5,1b1ac <__swbuf_r+0x9c>
   1b284:	00040593          	mv	a1,s0
   1b288:	00090513          	mv	a0,s2
   1b28c:	9c9fa0ef          	jal	15c54 <_fflush_r>
   1b290:	f0050ee3          	beqz	a0,1b1ac <__swbuf_r+0x9c>
   1b294:	fddff06f          	j	1b270 <__swbuf_r+0x160>
   1b298:	ae4f50ef          	jal	1057c <__sinit>
   1b29c:	ea1ff06f          	j	1b13c <__swbuf_r+0x2c>

0001b2a0 <__swbuf>:
   1b2a0:	00058613          	mv	a2,a1
   1b2a4:	00050593          	mv	a1,a0
   1b2a8:	f0c1a503          	lw	a0,-244(gp) # 237cc <_impure_ptr>
   1b2ac:	e65ff06f          	j	1b110 <__swbuf_r>

0001b2b0 <_fstat_r>:
   1b2b0:	ff010113          	add	sp,sp,-16
   1b2b4:	00058713          	mv	a4,a1
   1b2b8:	00812423          	sw	s0,8(sp)
   1b2bc:	00060593          	mv	a1,a2
   1b2c0:	00050413          	mv	s0,a0
   1b2c4:	00070513          	mv	a0,a4
   1b2c8:	f001ae23          	sw	zero,-228(gp) # 237dc <errno>
   1b2cc:	00112623          	sw	ra,12(sp)
   1b2d0:	15d000ef          	jal	1bc2c <_fstat>
   1b2d4:	fff00793          	li	a5,-1
   1b2d8:	00f50a63          	beq	a0,a5,1b2ec <_fstat_r+0x3c>
   1b2dc:	00c12083          	lw	ra,12(sp)
   1b2e0:	00812403          	lw	s0,8(sp)
   1b2e4:	01010113          	add	sp,sp,16
   1b2e8:	00008067          	ret
   1b2ec:	f1c1a783          	lw	a5,-228(gp) # 237dc <errno>
   1b2f0:	fe0786e3          	beqz	a5,1b2dc <_fstat_r+0x2c>
   1b2f4:	00c12083          	lw	ra,12(sp)
   1b2f8:	00f42023          	sw	a5,0(s0)
   1b2fc:	00812403          	lw	s0,8(sp)
   1b300:	01010113          	add	sp,sp,16
   1b304:	00008067          	ret

0001b308 <_isatty_r>:
   1b308:	ff010113          	add	sp,sp,-16
   1b30c:	00812423          	sw	s0,8(sp)
   1b310:	00050413          	mv	s0,a0
   1b314:	00058513          	mv	a0,a1
   1b318:	f001ae23          	sw	zero,-228(gp) # 237dc <errno>
   1b31c:	00112623          	sw	ra,12(sp)
   1b320:	175000ef          	jal	1bc94 <_isatty>
   1b324:	fff00793          	li	a5,-1
   1b328:	00f50a63          	beq	a0,a5,1b33c <_isatty_r+0x34>
   1b32c:	00c12083          	lw	ra,12(sp)
   1b330:	00812403          	lw	s0,8(sp)
   1b334:	01010113          	add	sp,sp,16
   1b338:	00008067          	ret
   1b33c:	f1c1a783          	lw	a5,-228(gp) # 237dc <errno>
   1b340:	fe0786e3          	beqz	a5,1b32c <_isatty_r+0x24>
   1b344:	00c12083          	lw	ra,12(sp)
   1b348:	00f42023          	sw	a5,0(s0)
   1b34c:	00812403          	lw	s0,8(sp)
   1b350:	01010113          	add	sp,sp,16
   1b354:	00008067          	ret

0001b358 <__assert_func>:
   1b358:	ff010113          	add	sp,sp,-16
   1b35c:	00068793          	mv	a5,a3
   1b360:	f0c1a703          	lw	a4,-244(gp) # 237cc <_impure_ptr>
   1b364:	00060813          	mv	a6,a2
   1b368:	00112623          	sw	ra,12(sp)
   1b36c:	00c72883          	lw	a7,12(a4)
   1b370:	00078613          	mv	a2,a5
   1b374:	00050693          	mv	a3,a0
   1b378:	00058713          	mv	a4,a1
   1b37c:	00007797          	auipc	a5,0x7
   1b380:	b4c78793          	add	a5,a5,-1204 # 21ec8 <__clzsi2+0x148>
   1b384:	00080c63          	beqz	a6,1b39c <__assert_func+0x44>
   1b388:	00007597          	auipc	a1,0x7
   1b38c:	b5058593          	add	a1,a1,-1200 # 21ed8 <__clzsi2+0x158>
   1b390:	00088513          	mv	a0,a7
   1b394:	220000ef          	jal	1b5b4 <fiprintf>
   1b398:	26c000ef          	jal	1b604 <abort>
   1b39c:	00007797          	auipc	a5,0x7
   1b3a0:	b3878793          	add	a5,a5,-1224 # 21ed4 <__clzsi2+0x154>
   1b3a4:	00078813          	mv	a6,a5
   1b3a8:	fe1ff06f          	j	1b388 <__assert_func+0x30>

0001b3ac <__assert>:
   1b3ac:	ff010113          	add	sp,sp,-16
   1b3b0:	00060693          	mv	a3,a2
   1b3b4:	00000613          	li	a2,0
   1b3b8:	00112623          	sw	ra,12(sp)
   1b3bc:	f9dff0ef          	jal	1b358 <__assert_func>

0001b3c0 <_calloc_r>:
   1b3c0:	fe010113          	add	sp,sp,-32
   1b3c4:	00812c23          	sw	s0,24(sp)
   1b3c8:	00112e23          	sw	ra,28(sp)
   1b3cc:	0105d693          	srl	a3,a1,0x10
   1b3d0:	00058793          	mv	a5,a1
   1b3d4:	00050413          	mv	s0,a0
   1b3d8:	01065713          	srl	a4,a2,0x10
   1b3dc:	0c069063          	bnez	a3,1b49c <_calloc_r+0xdc>
   1b3e0:	14071a63          	bnez	a4,1b534 <_calloc_r+0x174>
   1b3e4:	01061593          	sll	a1,a2,0x10
   1b3e8:	01079513          	sll	a0,a5,0x10
   1b3ec:	0105d593          	srl	a1,a1,0x10
   1b3f0:	01055513          	srl	a0,a0,0x10
   1b3f4:	0b5060ef          	jal	21ca8 <__mulsi3>
   1b3f8:	00050593          	mv	a1,a0
   1b3fc:	00040513          	mv	a0,s0
   1b400:	df1f50ef          	jal	111f0 <_malloc_r>
   1b404:	00050413          	mv	s0,a0
   1b408:	10050a63          	beqz	a0,1b51c <_calloc_r+0x15c>
   1b40c:	ffc52603          	lw	a2,-4(a0)
   1b410:	02400713          	li	a4,36
   1b414:	ffc67613          	and	a2,a2,-4
   1b418:	ffc60613          	add	a2,a2,-4
   1b41c:	04c76863          	bltu	a4,a2,1b46c <_calloc_r+0xac>
   1b420:	01300693          	li	a3,19
   1b424:	00050793          	mv	a5,a0
   1b428:	02c6f263          	bgeu	a3,a2,1b44c <_calloc_r+0x8c>
   1b42c:	00052023          	sw	zero,0(a0)
   1b430:	00052223          	sw	zero,4(a0)
   1b434:	01b00793          	li	a5,27
   1b438:	04c7f863          	bgeu	a5,a2,1b488 <_calloc_r+0xc8>
   1b43c:	00052423          	sw	zero,8(a0)
   1b440:	00052623          	sw	zero,12(a0)
   1b444:	01050793          	add	a5,a0,16
   1b448:	10e60263          	beq	a2,a4,1b54c <_calloc_r+0x18c>
   1b44c:	0007a023          	sw	zero,0(a5)
   1b450:	0007a223          	sw	zero,4(a5)
   1b454:	0007a423          	sw	zero,8(a5)
   1b458:	01c12083          	lw	ra,28(sp)
   1b45c:	00040513          	mv	a0,s0
   1b460:	01812403          	lw	s0,24(sp)
   1b464:	02010113          	add	sp,sp,32
   1b468:	00008067          	ret
   1b46c:	00000593          	li	a1,0
   1b470:	f1cf50ef          	jal	10b8c <memset>
   1b474:	01c12083          	lw	ra,28(sp)
   1b478:	00040513          	mv	a0,s0
   1b47c:	01812403          	lw	s0,24(sp)
   1b480:	02010113          	add	sp,sp,32
   1b484:	00008067          	ret
   1b488:	00850793          	add	a5,a0,8
   1b48c:	0007a023          	sw	zero,0(a5)
   1b490:	0007a223          	sw	zero,4(a5)
   1b494:	0007a423          	sw	zero,8(a5)
   1b498:	fc1ff06f          	j	1b458 <_calloc_r+0x98>
   1b49c:	0c071663          	bnez	a4,1b568 <_calloc_r+0x1a8>
   1b4a0:	01212823          	sw	s2,16(sp)
   1b4a4:	01312623          	sw	s3,12(sp)
   1b4a8:	00912a23          	sw	s1,20(sp)
   1b4ac:	00068913          	mv	s2,a3
   1b4b0:	00060993          	mv	s3,a2
   1b4b4:	01079513          	sll	a0,a5,0x10
   1b4b8:	01061593          	sll	a1,a2,0x10
   1b4bc:	0105d593          	srl	a1,a1,0x10
   1b4c0:	01055513          	srl	a0,a0,0x10
   1b4c4:	7e4060ef          	jal	21ca8 <__mulsi3>
   1b4c8:	00050493          	mv	s1,a0
   1b4cc:	01091593          	sll	a1,s2,0x10
   1b4d0:	01099513          	sll	a0,s3,0x10
   1b4d4:	0105d593          	srl	a1,a1,0x10
   1b4d8:	01055513          	srl	a0,a0,0x10
   1b4dc:	7cc060ef          	jal	21ca8 <__mulsi3>
   1b4e0:	0104d793          	srl	a5,s1,0x10
   1b4e4:	00f505b3          	add	a1,a0,a5
   1b4e8:	0105d793          	srl	a5,a1,0x10
   1b4ec:	06079863          	bnez	a5,1b55c <_calloc_r+0x19c>
   1b4f0:	01049493          	sll	s1,s1,0x10
   1b4f4:	0104d493          	srl	s1,s1,0x10
   1b4f8:	01059593          	sll	a1,a1,0x10
   1b4fc:	0095e5b3          	or	a1,a1,s1
   1b500:	00040513          	mv	a0,s0
   1b504:	01412483          	lw	s1,20(sp)
   1b508:	01012903          	lw	s2,16(sp)
   1b50c:	00c12983          	lw	s3,12(sp)
   1b510:	ce1f50ef          	jal	111f0 <_malloc_r>
   1b514:	00050413          	mv	s0,a0
   1b518:	ee051ae3          	bnez	a0,1b40c <_calloc_r+0x4c>
   1b51c:	00000413          	li	s0,0
   1b520:	01c12083          	lw	ra,28(sp)
   1b524:	00040513          	mv	a0,s0
   1b528:	01812403          	lw	s0,24(sp)
   1b52c:	02010113          	add	sp,sp,32
   1b530:	00008067          	ret
   1b534:	01212823          	sw	s2,16(sp)
   1b538:	01312623          	sw	s3,12(sp)
   1b53c:	00912a23          	sw	s1,20(sp)
   1b540:	00070913          	mv	s2,a4
   1b544:	00058993          	mv	s3,a1
   1b548:	f6dff06f          	j	1b4b4 <_calloc_r+0xf4>
   1b54c:	00052823          	sw	zero,16(a0)
   1b550:	01850793          	add	a5,a0,24
   1b554:	00052a23          	sw	zero,20(a0)
   1b558:	ef5ff06f          	j	1b44c <_calloc_r+0x8c>
   1b55c:	01412483          	lw	s1,20(sp)
   1b560:	01012903          	lw	s2,16(sp)
   1b564:	00c12983          	lw	s3,12(sp)
   1b568:	094000ef          	jal	1b5fc <__errno>
   1b56c:	00c00793          	li	a5,12
   1b570:	00f52023          	sw	a5,0(a0)
   1b574:	00000413          	li	s0,0
   1b578:	fa9ff06f          	j	1b520 <_calloc_r+0x160>

0001b57c <_fiprintf_r>:
   1b57c:	fc010113          	add	sp,sp,-64
   1b580:	02c10313          	add	t1,sp,44
   1b584:	02d12623          	sw	a3,44(sp)
   1b588:	00030693          	mv	a3,t1
   1b58c:	00112e23          	sw	ra,28(sp)
   1b590:	02e12823          	sw	a4,48(sp)
   1b594:	02f12a23          	sw	a5,52(sp)
   1b598:	03012c23          	sw	a6,56(sp)
   1b59c:	03112e23          	sw	a7,60(sp)
   1b5a0:	00612623          	sw	t1,12(sp)
   1b5a4:	ef5f80ef          	jal	14498 <_vfiprintf_r>
   1b5a8:	01c12083          	lw	ra,28(sp)
   1b5ac:	04010113          	add	sp,sp,64
   1b5b0:	00008067          	ret

0001b5b4 <fiprintf>:
   1b5b4:	fc010113          	add	sp,sp,-64
   1b5b8:	02810313          	add	t1,sp,40
   1b5bc:	02c12423          	sw	a2,40(sp)
   1b5c0:	02d12623          	sw	a3,44(sp)
   1b5c4:	00058613          	mv	a2,a1
   1b5c8:	00030693          	mv	a3,t1
   1b5cc:	00050593          	mv	a1,a0
   1b5d0:	f0c1a503          	lw	a0,-244(gp) # 237cc <_impure_ptr>
   1b5d4:	00112e23          	sw	ra,28(sp)
   1b5d8:	02e12823          	sw	a4,48(sp)
   1b5dc:	02f12a23          	sw	a5,52(sp)
   1b5e0:	03012c23          	sw	a6,56(sp)
   1b5e4:	03112e23          	sw	a7,60(sp)
   1b5e8:	00612623          	sw	t1,12(sp)
   1b5ec:	eadf80ef          	jal	14498 <_vfiprintf_r>
   1b5f0:	01c12083          	lw	ra,28(sp)
   1b5f4:	04010113          	add	sp,sp,64
   1b5f8:	00008067          	ret

0001b5fc <__errno>:
   1b5fc:	f0c1a503          	lw	a0,-244(gp) # 237cc <_impure_ptr>
   1b600:	00008067          	ret

0001b604 <abort>:
   1b604:	ff010113          	add	sp,sp,-16
   1b608:	00600513          	li	a0,6
   1b60c:	00112623          	sw	ra,12(sp)
   1b610:	2a8000ef          	jal	1b8b8 <raise>
   1b614:	00100513          	li	a0,1
   1b618:	5e4000ef          	jal	1bbfc <_exit>

0001b61c <_init_signal_r>:
   1b61c:	11852783          	lw	a5,280(a0)
   1b620:	00078663          	beqz	a5,1b62c <_init_signal_r+0x10>
   1b624:	00000513          	li	a0,0
   1b628:	00008067          	ret
   1b62c:	ff010113          	add	sp,sp,-16
   1b630:	08000593          	li	a1,128
   1b634:	00812423          	sw	s0,8(sp)
   1b638:	00112623          	sw	ra,12(sp)
   1b63c:	00050413          	mv	s0,a0
   1b640:	bb1f50ef          	jal	111f0 <_malloc_r>
   1b644:	10a42c23          	sw	a0,280(s0)
   1b648:	02050463          	beqz	a0,1b670 <_init_signal_r+0x54>
   1b64c:	08050793          	add	a5,a0,128
   1b650:	00052023          	sw	zero,0(a0)
   1b654:	00450513          	add	a0,a0,4
   1b658:	fef51ce3          	bne	a0,a5,1b650 <_init_signal_r+0x34>
   1b65c:	00000513          	li	a0,0
   1b660:	00c12083          	lw	ra,12(sp)
   1b664:	00812403          	lw	s0,8(sp)
   1b668:	01010113          	add	sp,sp,16
   1b66c:	00008067          	ret
   1b670:	fff00513          	li	a0,-1
   1b674:	fedff06f          	j	1b660 <_init_signal_r+0x44>

0001b678 <_signal_r>:
   1b678:	fe010113          	add	sp,sp,-32
   1b67c:	00912a23          	sw	s1,20(sp)
   1b680:	00112e23          	sw	ra,28(sp)
   1b684:	01f00793          	li	a5,31
   1b688:	00050493          	mv	s1,a0
   1b68c:	02b7ec63          	bltu	a5,a1,1b6c4 <_signal_r+0x4c>
   1b690:	11852783          	lw	a5,280(a0)
   1b694:	00812c23          	sw	s0,24(sp)
   1b698:	00058413          	mv	s0,a1
   1b69c:	02078c63          	beqz	a5,1b6d4 <_signal_r+0x5c>
   1b6a0:	00241413          	sll	s0,s0,0x2
   1b6a4:	008787b3          	add	a5,a5,s0
   1b6a8:	01812403          	lw	s0,24(sp)
   1b6ac:	0007a503          	lw	a0,0(a5)
   1b6b0:	00c7a023          	sw	a2,0(a5)
   1b6b4:	01c12083          	lw	ra,28(sp)
   1b6b8:	01412483          	lw	s1,20(sp)
   1b6bc:	02010113          	add	sp,sp,32
   1b6c0:	00008067          	ret
   1b6c4:	01600793          	li	a5,22
   1b6c8:	00f52023          	sw	a5,0(a0)
   1b6cc:	fff00513          	li	a0,-1
   1b6d0:	fe5ff06f          	j	1b6b4 <_signal_r+0x3c>
   1b6d4:	08000593          	li	a1,128
   1b6d8:	00c12623          	sw	a2,12(sp)
   1b6dc:	b15f50ef          	jal	111f0 <_malloc_r>
   1b6e0:	10a4ac23          	sw	a0,280(s1)
   1b6e4:	00c12603          	lw	a2,12(sp)
   1b6e8:	00050793          	mv	a5,a0
   1b6ec:	00050713          	mv	a4,a0
   1b6f0:	08050693          	add	a3,a0,128
   1b6f4:	00050a63          	beqz	a0,1b708 <_signal_r+0x90>
   1b6f8:	00072023          	sw	zero,0(a4)
   1b6fc:	00470713          	add	a4,a4,4
   1b700:	fed71ce3          	bne	a4,a3,1b6f8 <_signal_r+0x80>
   1b704:	f9dff06f          	j	1b6a0 <_signal_r+0x28>
   1b708:	01812403          	lw	s0,24(sp)
   1b70c:	fff00513          	li	a0,-1
   1b710:	fa5ff06f          	j	1b6b4 <_signal_r+0x3c>

0001b714 <_raise_r>:
   1b714:	ff010113          	add	sp,sp,-16
   1b718:	00912223          	sw	s1,4(sp)
   1b71c:	00112623          	sw	ra,12(sp)
   1b720:	01f00793          	li	a5,31
   1b724:	00050493          	mv	s1,a0
   1b728:	0ab7e063          	bltu	a5,a1,1b7c8 <_raise_r+0xb4>
   1b72c:	11852783          	lw	a5,280(a0)
   1b730:	00812423          	sw	s0,8(sp)
   1b734:	00058413          	mv	s0,a1
   1b738:	04078463          	beqz	a5,1b780 <_raise_r+0x6c>
   1b73c:	00259713          	sll	a4,a1,0x2
   1b740:	00e787b3          	add	a5,a5,a4
   1b744:	0007a703          	lw	a4,0(a5)
   1b748:	02070c63          	beqz	a4,1b780 <_raise_r+0x6c>
   1b74c:	00100693          	li	a3,1
   1b750:	00d70c63          	beq	a4,a3,1b768 <_raise_r+0x54>
   1b754:	fff00693          	li	a3,-1
   1b758:	04d70863          	beq	a4,a3,1b7a8 <_raise_r+0x94>
   1b75c:	0007a023          	sw	zero,0(a5)
   1b760:	00058513          	mv	a0,a1
   1b764:	000700e7          	jalr	a4
   1b768:	00812403          	lw	s0,8(sp)
   1b76c:	00000513          	li	a0,0
   1b770:	00c12083          	lw	ra,12(sp)
   1b774:	00412483          	lw	s1,4(sp)
   1b778:	01010113          	add	sp,sp,16
   1b77c:	00008067          	ret
   1b780:	00048513          	mv	a0,s1
   1b784:	430000ef          	jal	1bbb4 <_getpid_r>
   1b788:	00040613          	mv	a2,s0
   1b78c:	00812403          	lw	s0,8(sp)
   1b790:	00c12083          	lw	ra,12(sp)
   1b794:	00050593          	mv	a1,a0
   1b798:	00048513          	mv	a0,s1
   1b79c:	00412483          	lw	s1,4(sp)
   1b7a0:	01010113          	add	sp,sp,16
   1b7a4:	3b80006f          	j	1bb5c <_kill_r>
   1b7a8:	00812403          	lw	s0,8(sp)
   1b7ac:	00c12083          	lw	ra,12(sp)
   1b7b0:	01600793          	li	a5,22
   1b7b4:	00f52023          	sw	a5,0(a0)
   1b7b8:	00412483          	lw	s1,4(sp)
   1b7bc:	00100513          	li	a0,1
   1b7c0:	01010113          	add	sp,sp,16
   1b7c4:	00008067          	ret
   1b7c8:	01600793          	li	a5,22
   1b7cc:	00f52023          	sw	a5,0(a0)
   1b7d0:	fff00513          	li	a0,-1
   1b7d4:	f9dff06f          	j	1b770 <_raise_r+0x5c>

0001b7d8 <__sigtramp_r>:
   1b7d8:	01f00793          	li	a5,31
   1b7dc:	0cb7ea63          	bltu	a5,a1,1b8b0 <__sigtramp_r+0xd8>
   1b7e0:	11852783          	lw	a5,280(a0)
   1b7e4:	ff010113          	add	sp,sp,-16
   1b7e8:	00812423          	sw	s0,8(sp)
   1b7ec:	00912223          	sw	s1,4(sp)
   1b7f0:	00112623          	sw	ra,12(sp)
   1b7f4:	00058413          	mv	s0,a1
   1b7f8:	00050493          	mv	s1,a0
   1b7fc:	08078063          	beqz	a5,1b87c <__sigtramp_r+0xa4>
   1b800:	00241713          	sll	a4,s0,0x2
   1b804:	00e787b3          	add	a5,a5,a4
   1b808:	0007a703          	lw	a4,0(a5)
   1b80c:	02070c63          	beqz	a4,1b844 <__sigtramp_r+0x6c>
   1b810:	fff00693          	li	a3,-1
   1b814:	06d70063          	beq	a4,a3,1b874 <__sigtramp_r+0x9c>
   1b818:	00100693          	li	a3,1
   1b81c:	04d70063          	beq	a4,a3,1b85c <__sigtramp_r+0x84>
   1b820:	00040513          	mv	a0,s0
   1b824:	0007a023          	sw	zero,0(a5)
   1b828:	000700e7          	jalr	a4
   1b82c:	00000513          	li	a0,0
   1b830:	00c12083          	lw	ra,12(sp)
   1b834:	00812403          	lw	s0,8(sp)
   1b838:	00412483          	lw	s1,4(sp)
   1b83c:	01010113          	add	sp,sp,16
   1b840:	00008067          	ret
   1b844:	00c12083          	lw	ra,12(sp)
   1b848:	00812403          	lw	s0,8(sp)
   1b84c:	00412483          	lw	s1,4(sp)
   1b850:	00100513          	li	a0,1
   1b854:	01010113          	add	sp,sp,16
   1b858:	00008067          	ret
   1b85c:	00c12083          	lw	ra,12(sp)
   1b860:	00812403          	lw	s0,8(sp)
   1b864:	00412483          	lw	s1,4(sp)
   1b868:	00300513          	li	a0,3
   1b86c:	01010113          	add	sp,sp,16
   1b870:	00008067          	ret
   1b874:	00200513          	li	a0,2
   1b878:	fb9ff06f          	j	1b830 <__sigtramp_r+0x58>
   1b87c:	08000593          	li	a1,128
   1b880:	971f50ef          	jal	111f0 <_malloc_r>
   1b884:	10a4ac23          	sw	a0,280(s1)
   1b888:	00050793          	mv	a5,a0
   1b88c:	00050e63          	beqz	a0,1b8a8 <__sigtramp_r+0xd0>
   1b890:	00050713          	mv	a4,a0
   1b894:	08050693          	add	a3,a0,128
   1b898:	00072023          	sw	zero,0(a4)
   1b89c:	00470713          	add	a4,a4,4
   1b8a0:	fed71ce3          	bne	a4,a3,1b898 <__sigtramp_r+0xc0>
   1b8a4:	f5dff06f          	j	1b800 <__sigtramp_r+0x28>
   1b8a8:	fff00513          	li	a0,-1
   1b8ac:	f85ff06f          	j	1b830 <__sigtramp_r+0x58>
   1b8b0:	fff00513          	li	a0,-1
   1b8b4:	00008067          	ret

0001b8b8 <raise>:
   1b8b8:	ff010113          	add	sp,sp,-16
   1b8bc:	00912223          	sw	s1,4(sp)
   1b8c0:	00112623          	sw	ra,12(sp)
   1b8c4:	01f00793          	li	a5,31
   1b8c8:	f0c1a483          	lw	s1,-244(gp) # 237cc <_impure_ptr>
   1b8cc:	08a7ee63          	bltu	a5,a0,1b968 <raise+0xb0>
   1b8d0:	1184a783          	lw	a5,280(s1)
   1b8d4:	00812423          	sw	s0,8(sp)
   1b8d8:	00050413          	mv	s0,a0
   1b8dc:	04078263          	beqz	a5,1b920 <raise+0x68>
   1b8e0:	00251713          	sll	a4,a0,0x2
   1b8e4:	00e787b3          	add	a5,a5,a4
   1b8e8:	0007a703          	lw	a4,0(a5)
   1b8ec:	02070a63          	beqz	a4,1b920 <raise+0x68>
   1b8f0:	00100693          	li	a3,1
   1b8f4:	00d70a63          	beq	a4,a3,1b908 <raise+0x50>
   1b8f8:	fff00693          	li	a3,-1
   1b8fc:	04d70663          	beq	a4,a3,1b948 <raise+0x90>
   1b900:	0007a023          	sw	zero,0(a5)
   1b904:	000700e7          	jalr	a4
   1b908:	00812403          	lw	s0,8(sp)
   1b90c:	00000513          	li	a0,0
   1b910:	00c12083          	lw	ra,12(sp)
   1b914:	00412483          	lw	s1,4(sp)
   1b918:	01010113          	add	sp,sp,16
   1b91c:	00008067          	ret
   1b920:	00048513          	mv	a0,s1
   1b924:	290000ef          	jal	1bbb4 <_getpid_r>
   1b928:	00040613          	mv	a2,s0
   1b92c:	00812403          	lw	s0,8(sp)
   1b930:	00c12083          	lw	ra,12(sp)
   1b934:	00050593          	mv	a1,a0
   1b938:	00048513          	mv	a0,s1
   1b93c:	00412483          	lw	s1,4(sp)
   1b940:	01010113          	add	sp,sp,16
   1b944:	2180006f          	j	1bb5c <_kill_r>
   1b948:	00812403          	lw	s0,8(sp)
   1b94c:	00c12083          	lw	ra,12(sp)
   1b950:	01600793          	li	a5,22
   1b954:	00f4a023          	sw	a5,0(s1)
   1b958:	00100513          	li	a0,1
   1b95c:	00412483          	lw	s1,4(sp)
   1b960:	01010113          	add	sp,sp,16
   1b964:	00008067          	ret
   1b968:	01600793          	li	a5,22
   1b96c:	00f4a023          	sw	a5,0(s1)
   1b970:	fff00513          	li	a0,-1
   1b974:	f9dff06f          	j	1b910 <raise+0x58>

0001b978 <signal>:
   1b978:	ff010113          	add	sp,sp,-16
   1b97c:	01212023          	sw	s2,0(sp)
   1b980:	00112623          	sw	ra,12(sp)
   1b984:	01f00793          	li	a5,31
   1b988:	f0c1a903          	lw	s2,-244(gp) # 237cc <_impure_ptr>
   1b98c:	04a7e263          	bltu	a5,a0,1b9d0 <signal+0x58>
   1b990:	00812423          	sw	s0,8(sp)
   1b994:	00050413          	mv	s0,a0
   1b998:	11892503          	lw	a0,280(s2)
   1b99c:	00912223          	sw	s1,4(sp)
   1b9a0:	00058493          	mv	s1,a1
   1b9a4:	02050e63          	beqz	a0,1b9e0 <signal+0x68>
   1b9a8:	00241413          	sll	s0,s0,0x2
   1b9ac:	008507b3          	add	a5,a0,s0
   1b9b0:	0007a503          	lw	a0,0(a5)
   1b9b4:	00812403          	lw	s0,8(sp)
   1b9b8:	0097a023          	sw	s1,0(a5)
   1b9bc:	00412483          	lw	s1,4(sp)
   1b9c0:	00c12083          	lw	ra,12(sp)
   1b9c4:	00012903          	lw	s2,0(sp)
   1b9c8:	01010113          	add	sp,sp,16
   1b9cc:	00008067          	ret
   1b9d0:	01600793          	li	a5,22
   1b9d4:	00f92023          	sw	a5,0(s2)
   1b9d8:	fff00513          	li	a0,-1
   1b9dc:	fe5ff06f          	j	1b9c0 <signal+0x48>
   1b9e0:	08000593          	li	a1,128
   1b9e4:	00090513          	mv	a0,s2
   1b9e8:	809f50ef          	jal	111f0 <_malloc_r>
   1b9ec:	10a92c23          	sw	a0,280(s2)
   1b9f0:	00050793          	mv	a5,a0
   1b9f4:	08050713          	add	a4,a0,128
   1b9f8:	00050a63          	beqz	a0,1ba0c <signal+0x94>
   1b9fc:	0007a023          	sw	zero,0(a5)
   1ba00:	00478793          	add	a5,a5,4
   1ba04:	fef71ce3          	bne	a4,a5,1b9fc <signal+0x84>
   1ba08:	fa1ff06f          	j	1b9a8 <signal+0x30>
   1ba0c:	00812403          	lw	s0,8(sp)
   1ba10:	00412483          	lw	s1,4(sp)
   1ba14:	fff00513          	li	a0,-1
   1ba18:	fa9ff06f          	j	1b9c0 <signal+0x48>

0001ba1c <_init_signal>:
   1ba1c:	ff010113          	add	sp,sp,-16
   1ba20:	00812423          	sw	s0,8(sp)
   1ba24:	f0c1a403          	lw	s0,-244(gp) # 237cc <_impure_ptr>
   1ba28:	11842783          	lw	a5,280(s0)
   1ba2c:	00112623          	sw	ra,12(sp)
   1ba30:	00078c63          	beqz	a5,1ba48 <_init_signal+0x2c>
   1ba34:	00000513          	li	a0,0
   1ba38:	00c12083          	lw	ra,12(sp)
   1ba3c:	00812403          	lw	s0,8(sp)
   1ba40:	01010113          	add	sp,sp,16
   1ba44:	00008067          	ret
   1ba48:	08000593          	li	a1,128
   1ba4c:	00040513          	mv	a0,s0
   1ba50:	fa0f50ef          	jal	111f0 <_malloc_r>
   1ba54:	10a42c23          	sw	a0,280(s0)
   1ba58:	00050c63          	beqz	a0,1ba70 <_init_signal+0x54>
   1ba5c:	08050793          	add	a5,a0,128
   1ba60:	00052023          	sw	zero,0(a0)
   1ba64:	00450513          	add	a0,a0,4
   1ba68:	fef51ce3          	bne	a0,a5,1ba60 <_init_signal+0x44>
   1ba6c:	fc9ff06f          	j	1ba34 <_init_signal+0x18>
   1ba70:	fff00513          	li	a0,-1
   1ba74:	fc5ff06f          	j	1ba38 <_init_signal+0x1c>

0001ba78 <__sigtramp>:
   1ba78:	ff010113          	add	sp,sp,-16
   1ba7c:	00912223          	sw	s1,4(sp)
   1ba80:	00112623          	sw	ra,12(sp)
   1ba84:	01f00793          	li	a5,31
   1ba88:	f0c1a483          	lw	s1,-244(gp) # 237cc <_impure_ptr>
   1ba8c:	0ca7e463          	bltu	a5,a0,1bb54 <__sigtramp+0xdc>
   1ba90:	1184a783          	lw	a5,280(s1)
   1ba94:	00812423          	sw	s0,8(sp)
   1ba98:	00050413          	mv	s0,a0
   1ba9c:	08078263          	beqz	a5,1bb20 <__sigtramp+0xa8>
   1baa0:	00241713          	sll	a4,s0,0x2
   1baa4:	00e787b3          	add	a5,a5,a4
   1baa8:	0007a703          	lw	a4,0(a5)
   1baac:	02070c63          	beqz	a4,1bae4 <__sigtramp+0x6c>
   1bab0:	fff00693          	li	a3,-1
   1bab4:	06d70063          	beq	a4,a3,1bb14 <__sigtramp+0x9c>
   1bab8:	00100693          	li	a3,1
   1babc:	04d70063          	beq	a4,a3,1bafc <__sigtramp+0x84>
   1bac0:	00040513          	mv	a0,s0
   1bac4:	0007a023          	sw	zero,0(a5)
   1bac8:	000700e7          	jalr	a4
   1bacc:	00812403          	lw	s0,8(sp)
   1bad0:	00000513          	li	a0,0
   1bad4:	00c12083          	lw	ra,12(sp)
   1bad8:	00412483          	lw	s1,4(sp)
   1badc:	01010113          	add	sp,sp,16
   1bae0:	00008067          	ret
   1bae4:	00812403          	lw	s0,8(sp)
   1bae8:	00c12083          	lw	ra,12(sp)
   1baec:	00412483          	lw	s1,4(sp)
   1baf0:	00100513          	li	a0,1
   1baf4:	01010113          	add	sp,sp,16
   1baf8:	00008067          	ret
   1bafc:	00812403          	lw	s0,8(sp)
   1bb00:	00c12083          	lw	ra,12(sp)
   1bb04:	00412483          	lw	s1,4(sp)
   1bb08:	00300513          	li	a0,3
   1bb0c:	01010113          	add	sp,sp,16
   1bb10:	00008067          	ret
   1bb14:	00812403          	lw	s0,8(sp)
   1bb18:	00200513          	li	a0,2
   1bb1c:	fb9ff06f          	j	1bad4 <__sigtramp+0x5c>
   1bb20:	08000593          	li	a1,128
   1bb24:	00048513          	mv	a0,s1
   1bb28:	ec8f50ef          	jal	111f0 <_malloc_r>
   1bb2c:	10a4ac23          	sw	a0,280(s1)
   1bb30:	00050793          	mv	a5,a0
   1bb34:	00050e63          	beqz	a0,1bb50 <__sigtramp+0xd8>
   1bb38:	00050713          	mv	a4,a0
   1bb3c:	08050693          	add	a3,a0,128
   1bb40:	00072023          	sw	zero,0(a4)
   1bb44:	00470713          	add	a4,a4,4
   1bb48:	fee69ce3          	bne	a3,a4,1bb40 <__sigtramp+0xc8>
   1bb4c:	f55ff06f          	j	1baa0 <__sigtramp+0x28>
   1bb50:	00812403          	lw	s0,8(sp)
   1bb54:	fff00513          	li	a0,-1
   1bb58:	f7dff06f          	j	1bad4 <__sigtramp+0x5c>

0001bb5c <_kill_r>:
   1bb5c:	ff010113          	add	sp,sp,-16
   1bb60:	00058713          	mv	a4,a1
   1bb64:	00812423          	sw	s0,8(sp)
   1bb68:	00060593          	mv	a1,a2
   1bb6c:	00050413          	mv	s0,a0
   1bb70:	00070513          	mv	a0,a4
   1bb74:	f001ae23          	sw	zero,-228(gp) # 237dc <errno>
   1bb78:	00112623          	sw	ra,12(sp)
   1bb7c:	158000ef          	jal	1bcd4 <_kill>
   1bb80:	fff00793          	li	a5,-1
   1bb84:	00f50a63          	beq	a0,a5,1bb98 <_kill_r+0x3c>
   1bb88:	00c12083          	lw	ra,12(sp)
   1bb8c:	00812403          	lw	s0,8(sp)
   1bb90:	01010113          	add	sp,sp,16
   1bb94:	00008067          	ret
   1bb98:	f1c1a783          	lw	a5,-228(gp) # 237dc <errno>
   1bb9c:	fe0786e3          	beqz	a5,1bb88 <_kill_r+0x2c>
   1bba0:	00c12083          	lw	ra,12(sp)
   1bba4:	00f42023          	sw	a5,0(s0)
   1bba8:	00812403          	lw	s0,8(sp)
   1bbac:	01010113          	add	sp,sp,16
   1bbb0:	00008067          	ret

0001bbb4 <_getpid_r>:
   1bbb4:	0d80006f          	j	1bc8c <_getpid>

0001bbb8 <_close>:
   1bbb8:	ff010113          	add	sp,sp,-16
   1bbbc:	00112623          	sw	ra,12(sp)
   1bbc0:	00812423          	sw	s0,8(sp)
   1bbc4:	03900893          	li	a7,57
   1bbc8:	00000073          	ecall
   1bbcc:	00050413          	mv	s0,a0
   1bbd0:	00054c63          	bltz	a0,1bbe8 <_close+0x30>
   1bbd4:	00c12083          	lw	ra,12(sp)
   1bbd8:	00040513          	mv	a0,s0
   1bbdc:	00812403          	lw	s0,8(sp)
   1bbe0:	01010113          	add	sp,sp,16
   1bbe4:	00008067          	ret
   1bbe8:	40800433          	neg	s0,s0
   1bbec:	a11ff0ef          	jal	1b5fc <__errno>
   1bbf0:	00852023          	sw	s0,0(a0)
   1bbf4:	fff00413          	li	s0,-1
   1bbf8:	fddff06f          	j	1bbd4 <_close+0x1c>

0001bbfc <_exit>:
   1bbfc:	05d00893          	li	a7,93
   1bc00:	00000073          	ecall
   1bc04:	00054463          	bltz	a0,1bc0c <_exit+0x10>
   1bc08:	0000006f          	j	1bc08 <_exit+0xc>
   1bc0c:	ff010113          	add	sp,sp,-16
   1bc10:	00812423          	sw	s0,8(sp)
   1bc14:	00050413          	mv	s0,a0
   1bc18:	00112623          	sw	ra,12(sp)
   1bc1c:	40800433          	neg	s0,s0
   1bc20:	9ddff0ef          	jal	1b5fc <__errno>
   1bc24:	00852023          	sw	s0,0(a0)
   1bc28:	0000006f          	j	1bc28 <_exit+0x2c>

0001bc2c <_fstat>:
   1bc2c:	f7010113          	add	sp,sp,-144
   1bc30:	08912223          	sw	s1,132(sp)
   1bc34:	08112623          	sw	ra,140(sp)
   1bc38:	00058493          	mv	s1,a1
   1bc3c:	08812423          	sw	s0,136(sp)
   1bc40:	05000893          	li	a7,80
   1bc44:	00010593          	mv	a1,sp
   1bc48:	00000073          	ecall
   1bc4c:	00050413          	mv	s0,a0
   1bc50:	02054463          	bltz	a0,1bc78 <_fstat+0x4c>
   1bc54:	00048513          	mv	a0,s1
   1bc58:	00010593          	mv	a1,sp
   1bc5c:	2b0000ef          	jal	1bf0c <_conv_stat>
   1bc60:	08c12083          	lw	ra,140(sp)
   1bc64:	00040513          	mv	a0,s0
   1bc68:	08812403          	lw	s0,136(sp)
   1bc6c:	08412483          	lw	s1,132(sp)
   1bc70:	09010113          	add	sp,sp,144
   1bc74:	00008067          	ret
   1bc78:	40800433          	neg	s0,s0
   1bc7c:	981ff0ef          	jal	1b5fc <__errno>
   1bc80:	00852023          	sw	s0,0(a0)
   1bc84:	fff00413          	li	s0,-1
   1bc88:	fcdff06f          	j	1bc54 <_fstat+0x28>

0001bc8c <_getpid>:
   1bc8c:	00100513          	li	a0,1
   1bc90:	00008067          	ret

0001bc94 <_isatty>:
   1bc94:	f9010113          	add	sp,sp,-112
   1bc98:	00810593          	add	a1,sp,8
   1bc9c:	06112623          	sw	ra,108(sp)
   1bca0:	f8dff0ef          	jal	1bc2c <_fstat>
   1bca4:	fff00793          	li	a5,-1
   1bca8:	00f50e63          	beq	a0,a5,1bcc4 <_isatty+0x30>
   1bcac:	00c12503          	lw	a0,12(sp)
   1bcb0:	06c12083          	lw	ra,108(sp)
   1bcb4:	00d55513          	srl	a0,a0,0xd
   1bcb8:	00157513          	and	a0,a0,1
   1bcbc:	07010113          	add	sp,sp,112
   1bcc0:	00008067          	ret
   1bcc4:	06c12083          	lw	ra,108(sp)
   1bcc8:	00000513          	li	a0,0
   1bccc:	07010113          	add	sp,sp,112
   1bcd0:	00008067          	ret

0001bcd4 <_kill>:
   1bcd4:	ff010113          	add	sp,sp,-16
   1bcd8:	00112623          	sw	ra,12(sp)
   1bcdc:	921ff0ef          	jal	1b5fc <__errno>
   1bce0:	00c12083          	lw	ra,12(sp)
   1bce4:	01600793          	li	a5,22
   1bce8:	00f52023          	sw	a5,0(a0)
   1bcec:	fff00513          	li	a0,-1
   1bcf0:	01010113          	add	sp,sp,16
   1bcf4:	00008067          	ret

0001bcf8 <_lseek>:
   1bcf8:	ff010113          	add	sp,sp,-16
   1bcfc:	00112623          	sw	ra,12(sp)
   1bd00:	00812423          	sw	s0,8(sp)
   1bd04:	03e00893          	li	a7,62
   1bd08:	00000073          	ecall
   1bd0c:	00050413          	mv	s0,a0
   1bd10:	00054c63          	bltz	a0,1bd28 <_lseek+0x30>
   1bd14:	00c12083          	lw	ra,12(sp)
   1bd18:	00040513          	mv	a0,s0
   1bd1c:	00812403          	lw	s0,8(sp)
   1bd20:	01010113          	add	sp,sp,16
   1bd24:	00008067          	ret
   1bd28:	40800433          	neg	s0,s0
   1bd2c:	8d1ff0ef          	jal	1b5fc <__errno>
   1bd30:	00852023          	sw	s0,0(a0)
   1bd34:	fff00413          	li	s0,-1
   1bd38:	fddff06f          	j	1bd14 <_lseek+0x1c>

0001bd3c <_read>:
   1bd3c:	ff010113          	add	sp,sp,-16
   1bd40:	00112623          	sw	ra,12(sp)
   1bd44:	00812423          	sw	s0,8(sp)
   1bd48:	03f00893          	li	a7,63
   1bd4c:	00000073          	ecall
   1bd50:	00050413          	mv	s0,a0
   1bd54:	00054c63          	bltz	a0,1bd6c <_read+0x30>
   1bd58:	00c12083          	lw	ra,12(sp)
   1bd5c:	00040513          	mv	a0,s0
   1bd60:	00812403          	lw	s0,8(sp)
   1bd64:	01010113          	add	sp,sp,16
   1bd68:	00008067          	ret
   1bd6c:	40800433          	neg	s0,s0
   1bd70:	88dff0ef          	jal	1b5fc <__errno>
   1bd74:	00852023          	sw	s0,0(a0)
   1bd78:	fff00413          	li	s0,-1
   1bd7c:	fddff06f          	j	1bd58 <_read+0x1c>

0001bd80 <_sbrk>:
   1bd80:	f3418693          	add	a3,gp,-204 # 237f4 <heap_end.0>
   1bd84:	0006a703          	lw	a4,0(a3)
   1bd88:	ff010113          	add	sp,sp,-16
   1bd8c:	00112623          	sw	ra,12(sp)
   1bd90:	00050793          	mv	a5,a0
   1bd94:	02071063          	bnez	a4,1bdb4 <_sbrk+0x34>
   1bd98:	0d600893          	li	a7,214
   1bd9c:	00000513          	li	a0,0
   1bda0:	00000073          	ecall
   1bda4:	fff00613          	li	a2,-1
   1bda8:	00050713          	mv	a4,a0
   1bdac:	02c50a63          	beq	a0,a2,1bde0 <_sbrk+0x60>
   1bdb0:	00a6a023          	sw	a0,0(a3)
   1bdb4:	0d600893          	li	a7,214
   1bdb8:	00e78533          	add	a0,a5,a4
   1bdbc:	00000073          	ecall
   1bdc0:	0006a703          	lw	a4,0(a3)
   1bdc4:	00e787b3          	add	a5,a5,a4
   1bdc8:	00f51c63          	bne	a0,a5,1bde0 <_sbrk+0x60>
   1bdcc:	00c12083          	lw	ra,12(sp)
   1bdd0:	00a6a023          	sw	a0,0(a3)
   1bdd4:	00070513          	mv	a0,a4
   1bdd8:	01010113          	add	sp,sp,16
   1bddc:	00008067          	ret
   1bde0:	81dff0ef          	jal	1b5fc <__errno>
   1bde4:	00c12083          	lw	ra,12(sp)
   1bde8:	00c00793          	li	a5,12
   1bdec:	00f52023          	sw	a5,0(a0)
   1bdf0:	fff00513          	li	a0,-1
   1bdf4:	01010113          	add	sp,sp,16
   1bdf8:	00008067          	ret

0001bdfc <_times>:
   1bdfc:	fe010113          	add	sp,sp,-32
   1be00:	00812c23          	sw	s0,24(sp)
   1be04:	00000593          	li	a1,0
   1be08:	00050413          	mv	s0,a0
   1be0c:	00010513          	mv	a0,sp
   1be10:	00112e23          	sw	ra,28(sp)
   1be14:	1a0000ef          	jal	1bfb4 <_gettimeofday>
   1be18:	f3818793          	add	a5,gp,-200 # 237f8 <initialized.1>
   1be1c:	0007c703          	lbu	a4,0(a5)
   1be20:	06070063          	beqz	a4,1be80 <_times+0x84>
   1be24:	25018793          	add	a5,gp,592 # 23b10 <t0.0>
   1be28:	0007a683          	lw	a3,0(a5)
   1be2c:	00012703          	lw	a4,0(sp)
   1be30:	0087a603          	lw	a2,8(a5)
   1be34:	01c12083          	lw	ra,28(sp)
   1be38:	40d70733          	sub	a4,a4,a3
   1be3c:	00571693          	sll	a3,a4,0x5
   1be40:	40e686b3          	sub	a3,a3,a4
   1be44:	00669793          	sll	a5,a3,0x6
   1be48:	40d787b3          	sub	a5,a5,a3
   1be4c:	00379793          	sll	a5,a5,0x3
   1be50:	00e787b3          	add	a5,a5,a4
   1be54:	00812703          	lw	a4,8(sp)
   1be58:	00679793          	sll	a5,a5,0x6
   1be5c:	00042423          	sw	zero,8(s0)
   1be60:	40c70733          	sub	a4,a4,a2
   1be64:	00e78533          	add	a0,a5,a4
   1be68:	00a42023          	sw	a0,0(s0)
   1be6c:	00042623          	sw	zero,12(s0)
   1be70:	00042223          	sw	zero,4(s0)
   1be74:	01812403          	lw	s0,24(sp)
   1be78:	02010113          	add	sp,sp,32
   1be7c:	00008067          	ret
   1be80:	00412683          	lw	a3,4(sp)
   1be84:	25018713          	add	a4,gp,592 # 23b10 <t0.0>
   1be88:	00012603          	lw	a2,0(sp)
   1be8c:	00d72223          	sw	a3,4(a4)
   1be90:	00812683          	lw	a3,8(sp)
   1be94:	00c72023          	sw	a2,0(a4)
   1be98:	00000513          	li	a0,0
   1be9c:	00d72423          	sw	a3,8(a4)
   1bea0:	00100713          	li	a4,1
   1bea4:	00e78023          	sb	a4,0(a5)
   1bea8:	01c12083          	lw	ra,28(sp)
   1beac:	00a42023          	sw	a0,0(s0)
   1beb0:	00042423          	sw	zero,8(s0)
   1beb4:	00042623          	sw	zero,12(s0)
   1beb8:	00042223          	sw	zero,4(s0)
   1bebc:	01812403          	lw	s0,24(sp)
   1bec0:	02010113          	add	sp,sp,32
   1bec4:	00008067          	ret

0001bec8 <_write>:
   1bec8:	ff010113          	add	sp,sp,-16
   1becc:	00112623          	sw	ra,12(sp)
   1bed0:	00812423          	sw	s0,8(sp)
   1bed4:	04000893          	li	a7,64
   1bed8:	00000073          	ecall
   1bedc:	00050413          	mv	s0,a0
   1bee0:	00054c63          	bltz	a0,1bef8 <_write+0x30>
   1bee4:	00c12083          	lw	ra,12(sp)
   1bee8:	00040513          	mv	a0,s0
   1beec:	00812403          	lw	s0,8(sp)
   1bef0:	01010113          	add	sp,sp,16
   1bef4:	00008067          	ret
   1bef8:	40800433          	neg	s0,s0
   1befc:	f00ff0ef          	jal	1b5fc <__errno>
   1bf00:	00852023          	sw	s0,0(a0)
   1bf04:	fff00413          	li	s0,-1
   1bf08:	fddff06f          	j	1bee4 <_write+0x1c>

0001bf0c <_conv_stat>:
   1bf0c:	0185d703          	lhu	a4,24(a1)
   1bf10:	0145d783          	lhu	a5,20(a1)
   1bf14:	ff010113          	add	sp,sp,-16
   1bf18:	01c5a283          	lw	t0,28(a1)
   1bf1c:	0205af83          	lw	t6,32(a1)
   1bf20:	0305af03          	lw	t5,48(a1)
   1bf24:	0405ae83          	lw	t4,64(a1)
   1bf28:	0385ae03          	lw	t3,56(a1)
   1bf2c:	0485a303          	lw	t1,72(a1)
   1bf30:	04c5a383          	lw	t2,76(a1)
   1bf34:	0585a803          	lw	a6,88(a1)
   1bf38:	05c5a883          	lw	a7,92(a1)
   1bf3c:	00812623          	sw	s0,12(sp)
   1bf40:	00912423          	sw	s1,8(sp)
   1bf44:	0105a403          	lw	s0,16(a1)
   1bf48:	0085a483          	lw	s1,8(a1)
   1bf4c:	01212223          	sw	s2,4(sp)
   1bf50:	0005a903          	lw	s2,0(a1)
   1bf54:	0685a603          	lw	a2,104(a1)
   1bf58:	01071713          	sll	a4,a4,0x10
   1bf5c:	00e7e7b3          	or	a5,a5,a4
   1bf60:	06c5a683          	lw	a3,108(a1)
   1bf64:	01251023          	sh	s2,0(a0)
   1bf68:	00951123          	sh	s1,2(a0)
   1bf6c:	00852223          	sw	s0,4(a0)
   1bf70:	00f52423          	sw	a5,8(a0)
   1bf74:	00551623          	sh	t0,12(a0)
   1bf78:	01f51723          	sh	t6,14(a0)
   1bf7c:	01e52823          	sw	t5,16(a0)
   1bf80:	05d52623          	sw	t4,76(a0)
   1bf84:	05c52423          	sw	t3,72(a0)
   1bf88:	00652c23          	sw	t1,24(a0)
   1bf8c:	00752e23          	sw	t2,28(a0)
   1bf90:	03052423          	sw	a6,40(a0)
   1bf94:	03152623          	sw	a7,44(a0)
   1bf98:	02c52c23          	sw	a2,56(a0)
   1bf9c:	00c12403          	lw	s0,12(sp)
   1bfa0:	02d52e23          	sw	a3,60(a0)
   1bfa4:	00812483          	lw	s1,8(sp)
   1bfa8:	00412903          	lw	s2,4(sp)
   1bfac:	01010113          	add	sp,sp,16
   1bfb0:	00008067          	ret

0001bfb4 <_gettimeofday>:
   1bfb4:	fe010113          	add	sp,sp,-32
   1bfb8:	00912a23          	sw	s1,20(sp)
   1bfbc:	00112e23          	sw	ra,28(sp)
   1bfc0:	00050493          	mv	s1,a0
   1bfc4:	00812c23          	sw	s0,24(sp)
   1bfc8:	19300893          	li	a7,403
   1bfcc:	00000513          	li	a0,0
   1bfd0:	00010593          	mv	a1,sp
   1bfd4:	00000073          	ecall
   1bfd8:	00050413          	mv	s0,a0
   1bfdc:	04054463          	bltz	a0,1c024 <_gettimeofday+0x70>
   1bfe0:	00812703          	lw	a4,8(sp)
   1bfe4:	00012603          	lw	a2,0(sp)
   1bfe8:	00412683          	lw	a3,4(sp)
   1bfec:	00571793          	sll	a5,a4,0x5
   1bff0:	40e787b3          	sub	a5,a5,a4
   1bff4:	00279793          	sll	a5,a5,0x2
   1bff8:	01c12083          	lw	ra,28(sp)
   1bffc:	00040513          	mv	a0,s0
   1c000:	00e787b3          	add	a5,a5,a4
   1c004:	01812403          	lw	s0,24(sp)
   1c008:	00379793          	sll	a5,a5,0x3
   1c00c:	00c4a023          	sw	a2,0(s1)
   1c010:	00d4a223          	sw	a3,4(s1)
   1c014:	00f4a423          	sw	a5,8(s1)
   1c018:	01412483          	lw	s1,20(sp)
   1c01c:	02010113          	add	sp,sp,32
   1c020:	00008067          	ret
   1c024:	40800433          	neg	s0,s0
   1c028:	dd4ff0ef          	jal	1b5fc <__errno>
   1c02c:	00852023          	sw	s0,0(a0)
   1c030:	fff00413          	li	s0,-1
   1c034:	fadff06f          	j	1bfe0 <_gettimeofday+0x2c>

0001c038 <__udivdi3>:
   1c038:	fd010113          	add	sp,sp,-48
   1c03c:	01412c23          	sw	s4,24(sp)
   1c040:	02112623          	sw	ra,44(sp)
   1c044:	02812423          	sw	s0,40(sp)
   1c048:	02912223          	sw	s1,36(sp)
   1c04c:	03212023          	sw	s2,32(sp)
   1c050:	01312e23          	sw	s3,28(sp)
   1c054:	01512a23          	sw	s5,20(sp)
   1c058:	01612823          	sw	s6,16(sp)
   1c05c:	01712623          	sw	s7,12(sp)
   1c060:	01812423          	sw	s8,8(sp)
   1c064:	01912223          	sw	s9,4(sp)
   1c068:	00050a13          	mv	s4,a0
   1c06c:	38069463          	bnez	a3,1c3f4 <__udivdi3+0x3bc>
   1c070:	00060993          	mv	s3,a2
   1c074:	00050493          	mv	s1,a0
   1c078:	00006797          	auipc	a5,0x6
   1c07c:	52078793          	add	a5,a5,1312 # 22598 <__clz_tab>
   1c080:	12c5f863          	bgeu	a1,a2,1c1b0 <__udivdi3+0x178>
   1c084:	00010737          	lui	a4,0x10
   1c088:	00058913          	mv	s2,a1
   1c08c:	10e67863          	bgeu	a2,a4,1c19c <__udivdi3+0x164>
   1c090:	10063713          	sltiu	a4,a2,256
   1c094:	00173713          	seqz	a4,a4
   1c098:	00371713          	sll	a4,a4,0x3
   1c09c:	00e656b3          	srl	a3,a2,a4
   1c0a0:	00d787b3          	add	a5,a5,a3
   1c0a4:	0007c683          	lbu	a3,0(a5)
   1c0a8:	00e68733          	add	a4,a3,a4
   1c0ac:	02000693          	li	a3,32
   1c0b0:	40e687b3          	sub	a5,a3,a4
   1c0b4:	00e68c63          	beq	a3,a4,1c0cc <__udivdi3+0x94>
   1c0b8:	00f59933          	sll	s2,a1,a5
   1c0bc:	00ea5733          	srl	a4,s4,a4
   1c0c0:	00f619b3          	sll	s3,a2,a5
   1c0c4:	01276933          	or	s2,a4,s2
   1c0c8:	00fa14b3          	sll	s1,s4,a5
   1c0cc:	0109da93          	srl	s5,s3,0x10
   1c0d0:	000a8593          	mv	a1,s5
   1c0d4:	00090513          	mv	a0,s2
   1c0d8:	01099b13          	sll	s6,s3,0x10
   1c0dc:	3f9050ef          	jal	21cd4 <__hidden___udivsi3>
   1c0e0:	010b5b13          	srl	s6,s6,0x10
   1c0e4:	00050593          	mv	a1,a0
   1c0e8:	00050a13          	mv	s4,a0
   1c0ec:	000b0513          	mv	a0,s6
   1c0f0:	3b9050ef          	jal	21ca8 <__mulsi3>
   1c0f4:	00050413          	mv	s0,a0
   1c0f8:	000a8593          	mv	a1,s5
   1c0fc:	00090513          	mv	a0,s2
   1c100:	41d050ef          	jal	21d1c <__umodsi3>
   1c104:	01051513          	sll	a0,a0,0x10
   1c108:	0104d713          	srl	a4,s1,0x10
   1c10c:	00a76733          	or	a4,a4,a0
   1c110:	000a0913          	mv	s2,s4
   1c114:	00877e63          	bgeu	a4,s0,1c130 <__udivdi3+0xf8>
   1c118:	00e98733          	add	a4,s3,a4
   1c11c:	fffa0913          	add	s2,s4,-1
   1c120:	01376863          	bltu	a4,s3,1c130 <__udivdi3+0xf8>
   1c124:	00877663          	bgeu	a4,s0,1c130 <__udivdi3+0xf8>
   1c128:	ffea0913          	add	s2,s4,-2
   1c12c:	01370733          	add	a4,a4,s3
   1c130:	40870433          	sub	s0,a4,s0
   1c134:	000a8593          	mv	a1,s5
   1c138:	00040513          	mv	a0,s0
   1c13c:	399050ef          	jal	21cd4 <__hidden___udivsi3>
   1c140:	00050593          	mv	a1,a0
   1c144:	00050a13          	mv	s4,a0
   1c148:	000b0513          	mv	a0,s6
   1c14c:	35d050ef          	jal	21ca8 <__mulsi3>
   1c150:	00050b13          	mv	s6,a0
   1c154:	000a8593          	mv	a1,s5
   1c158:	00040513          	mv	a0,s0
   1c15c:	3c1050ef          	jal	21d1c <__umodsi3>
   1c160:	01049493          	sll	s1,s1,0x10
   1c164:	01051513          	sll	a0,a0,0x10
   1c168:	0104d493          	srl	s1,s1,0x10
   1c16c:	00a4e4b3          	or	s1,s1,a0
   1c170:	000a0713          	mv	a4,s4
   1c174:	0164fc63          	bgeu	s1,s6,1c18c <__udivdi3+0x154>
   1c178:	009984b3          	add	s1,s3,s1
   1c17c:	fffa0713          	add	a4,s4,-1
   1c180:	0134e663          	bltu	s1,s3,1c18c <__udivdi3+0x154>
   1c184:	0164f463          	bgeu	s1,s6,1c18c <__udivdi3+0x154>
   1c188:	ffea0713          	add	a4,s4,-2
   1c18c:	01091793          	sll	a5,s2,0x10
   1c190:	00e7e7b3          	or	a5,a5,a4
   1c194:	00000913          	li	s2,0
   1c198:	1200006f          	j	1c2b8 <__udivdi3+0x280>
   1c19c:	010006b7          	lui	a3,0x1000
   1c1a0:	01800713          	li	a4,24
   1c1a4:	eed67ce3          	bgeu	a2,a3,1c09c <__udivdi3+0x64>
   1c1a8:	01000713          	li	a4,16
   1c1ac:	ef1ff06f          	j	1c09c <__udivdi3+0x64>
   1c1b0:	00000713          	li	a4,0
   1c1b4:	00060c63          	beqz	a2,1c1cc <__udivdi3+0x194>
   1c1b8:	00010737          	lui	a4,0x10
   1c1bc:	12e67c63          	bgeu	a2,a4,1c2f4 <__udivdi3+0x2bc>
   1c1c0:	10063713          	sltiu	a4,a2,256
   1c1c4:	00173713          	seqz	a4,a4
   1c1c8:	00371713          	sll	a4,a4,0x3
   1c1cc:	00e656b3          	srl	a3,a2,a4
   1c1d0:	00d787b3          	add	a5,a5,a3
   1c1d4:	0007c783          	lbu	a5,0(a5)
   1c1d8:	02000693          	li	a3,32
   1c1dc:	00e787b3          	add	a5,a5,a4
   1c1e0:	40f68733          	sub	a4,a3,a5
   1c1e4:	12f69263          	bne	a3,a5,1c308 <__udivdi3+0x2d0>
   1c1e8:	40c58a33          	sub	s4,a1,a2
   1c1ec:	00100913          	li	s2,1
   1c1f0:	0109db13          	srl	s6,s3,0x10
   1c1f4:	000b0593          	mv	a1,s6
   1c1f8:	000a0513          	mv	a0,s4
   1c1fc:	01099b93          	sll	s7,s3,0x10
   1c200:	2d5050ef          	jal	21cd4 <__hidden___udivsi3>
   1c204:	010bdb93          	srl	s7,s7,0x10
   1c208:	00050593          	mv	a1,a0
   1c20c:	00050c13          	mv	s8,a0
   1c210:	000b8513          	mv	a0,s7
   1c214:	295050ef          	jal	21ca8 <__mulsi3>
   1c218:	00050a93          	mv	s5,a0
   1c21c:	000b0593          	mv	a1,s6
   1c220:	000a0513          	mv	a0,s4
   1c224:	2f9050ef          	jal	21d1c <__umodsi3>
   1c228:	01051513          	sll	a0,a0,0x10
   1c22c:	0104d713          	srl	a4,s1,0x10
   1c230:	00a76733          	or	a4,a4,a0
   1c234:	000c0a13          	mv	s4,s8
   1c238:	01577e63          	bgeu	a4,s5,1c254 <__udivdi3+0x21c>
   1c23c:	00e98733          	add	a4,s3,a4
   1c240:	fffc0a13          	add	s4,s8,-1
   1c244:	01376863          	bltu	a4,s3,1c254 <__udivdi3+0x21c>
   1c248:	01577663          	bgeu	a4,s5,1c254 <__udivdi3+0x21c>
   1c24c:	ffec0a13          	add	s4,s8,-2
   1c250:	01370733          	add	a4,a4,s3
   1c254:	41570433          	sub	s0,a4,s5
   1c258:	000b0593          	mv	a1,s6
   1c25c:	00040513          	mv	a0,s0
   1c260:	275050ef          	jal	21cd4 <__hidden___udivsi3>
   1c264:	00050593          	mv	a1,a0
   1c268:	00050a93          	mv	s5,a0
   1c26c:	000b8513          	mv	a0,s7
   1c270:	239050ef          	jal	21ca8 <__mulsi3>
   1c274:	00050b93          	mv	s7,a0
   1c278:	000b0593          	mv	a1,s6
   1c27c:	00040513          	mv	a0,s0
   1c280:	29d050ef          	jal	21d1c <__umodsi3>
   1c284:	01049493          	sll	s1,s1,0x10
   1c288:	01051513          	sll	a0,a0,0x10
   1c28c:	0104d493          	srl	s1,s1,0x10
   1c290:	00a4e4b3          	or	s1,s1,a0
   1c294:	000a8713          	mv	a4,s5
   1c298:	0174fc63          	bgeu	s1,s7,1c2b0 <__udivdi3+0x278>
   1c29c:	009984b3          	add	s1,s3,s1
   1c2a0:	fffa8713          	add	a4,s5,-1
   1c2a4:	0134e663          	bltu	s1,s3,1c2b0 <__udivdi3+0x278>
   1c2a8:	0174f463          	bgeu	s1,s7,1c2b0 <__udivdi3+0x278>
   1c2ac:	ffea8713          	add	a4,s5,-2
   1c2b0:	010a1793          	sll	a5,s4,0x10
   1c2b4:	00e7e7b3          	or	a5,a5,a4
   1c2b8:	02c12083          	lw	ra,44(sp)
   1c2bc:	02812403          	lw	s0,40(sp)
   1c2c0:	02412483          	lw	s1,36(sp)
   1c2c4:	01c12983          	lw	s3,28(sp)
   1c2c8:	01812a03          	lw	s4,24(sp)
   1c2cc:	01412a83          	lw	s5,20(sp)
   1c2d0:	01012b03          	lw	s6,16(sp)
   1c2d4:	00c12b83          	lw	s7,12(sp)
   1c2d8:	00812c03          	lw	s8,8(sp)
   1c2dc:	00412c83          	lw	s9,4(sp)
   1c2e0:	00090593          	mv	a1,s2
   1c2e4:	00078513          	mv	a0,a5
   1c2e8:	02012903          	lw	s2,32(sp)
   1c2ec:	03010113          	add	sp,sp,48
   1c2f0:	00008067          	ret
   1c2f4:	010006b7          	lui	a3,0x1000
   1c2f8:	01800713          	li	a4,24
   1c2fc:	ecd678e3          	bgeu	a2,a3,1c1cc <__udivdi3+0x194>
   1c300:	01000713          	li	a4,16
   1c304:	ec9ff06f          	j	1c1cc <__udivdi3+0x194>
   1c308:	00e619b3          	sll	s3,a2,a4
   1c30c:	00f5d933          	srl	s2,a1,a5
   1c310:	0109db93          	srl	s7,s3,0x10
   1c314:	00e595b3          	sll	a1,a1,a4
   1c318:	00fa57b3          	srl	a5,s4,a5
   1c31c:	00b7eab3          	or	s5,a5,a1
   1c320:	00ea14b3          	sll	s1,s4,a4
   1c324:	000b8593          	mv	a1,s7
   1c328:	00090513          	mv	a0,s2
   1c32c:	01099a13          	sll	s4,s3,0x10
   1c330:	1a5050ef          	jal	21cd4 <__hidden___udivsi3>
   1c334:	010a5a13          	srl	s4,s4,0x10
   1c338:	00050593          	mv	a1,a0
   1c33c:	00050b13          	mv	s6,a0
   1c340:	000a0513          	mv	a0,s4
   1c344:	165050ef          	jal	21ca8 <__mulsi3>
   1c348:	00050413          	mv	s0,a0
   1c34c:	000b8593          	mv	a1,s7
   1c350:	00090513          	mv	a0,s2
   1c354:	1c9050ef          	jal	21d1c <__umodsi3>
   1c358:	01051513          	sll	a0,a0,0x10
   1c35c:	010ad713          	srl	a4,s5,0x10
   1c360:	00a76733          	or	a4,a4,a0
   1c364:	000b0913          	mv	s2,s6
   1c368:	00877e63          	bgeu	a4,s0,1c384 <__udivdi3+0x34c>
   1c36c:	00e98733          	add	a4,s3,a4
   1c370:	fffb0913          	add	s2,s6,-1
   1c374:	01376863          	bltu	a4,s3,1c384 <__udivdi3+0x34c>
   1c378:	00877663          	bgeu	a4,s0,1c384 <__udivdi3+0x34c>
   1c37c:	ffeb0913          	add	s2,s6,-2
   1c380:	01370733          	add	a4,a4,s3
   1c384:	40870433          	sub	s0,a4,s0
   1c388:	000b8593          	mv	a1,s7
   1c38c:	00040513          	mv	a0,s0
   1c390:	145050ef          	jal	21cd4 <__hidden___udivsi3>
   1c394:	00050593          	mv	a1,a0
   1c398:	00050b13          	mv	s6,a0
   1c39c:	000a0513          	mv	a0,s4
   1c3a0:	109050ef          	jal	21ca8 <__mulsi3>
   1c3a4:	00050a13          	mv	s4,a0
   1c3a8:	000b8593          	mv	a1,s7
   1c3ac:	00040513          	mv	a0,s0
   1c3b0:	16d050ef          	jal	21d1c <__umodsi3>
   1c3b4:	010a9793          	sll	a5,s5,0x10
   1c3b8:	01051513          	sll	a0,a0,0x10
   1c3bc:	0107d793          	srl	a5,a5,0x10
   1c3c0:	00a7e7b3          	or	a5,a5,a0
   1c3c4:	000b0713          	mv	a4,s6
   1c3c8:	0147fe63          	bgeu	a5,s4,1c3e4 <__udivdi3+0x3ac>
   1c3cc:	00f987b3          	add	a5,s3,a5
   1c3d0:	fffb0713          	add	a4,s6,-1
   1c3d4:	0137e863          	bltu	a5,s3,1c3e4 <__udivdi3+0x3ac>
   1c3d8:	0147f663          	bgeu	a5,s4,1c3e4 <__udivdi3+0x3ac>
   1c3dc:	ffeb0713          	add	a4,s6,-2
   1c3e0:	013787b3          	add	a5,a5,s3
   1c3e4:	01091913          	sll	s2,s2,0x10
   1c3e8:	41478a33          	sub	s4,a5,s4
   1c3ec:	00e96933          	or	s2,s2,a4
   1c3f0:	e01ff06f          	j	1c1f0 <__udivdi3+0x1b8>
   1c3f4:	1ed5ee63          	bltu	a1,a3,1c5f0 <__udivdi3+0x5b8>
   1c3f8:	000107b7          	lui	a5,0x10
   1c3fc:	04f6f463          	bgeu	a3,a5,1c444 <__udivdi3+0x40c>
   1c400:	1006b713          	sltiu	a4,a3,256
   1c404:	00173713          	seqz	a4,a4
   1c408:	00371713          	sll	a4,a4,0x3
   1c40c:	00e6d533          	srl	a0,a3,a4
   1c410:	00006797          	auipc	a5,0x6
   1c414:	18878793          	add	a5,a5,392 # 22598 <__clz_tab>
   1c418:	00a787b3          	add	a5,a5,a0
   1c41c:	0007c803          	lbu	a6,0(a5)
   1c420:	02000793          	li	a5,32
   1c424:	00e80833          	add	a6,a6,a4
   1c428:	41078933          	sub	s2,a5,a6
   1c42c:	03079663          	bne	a5,a6,1c458 <__udivdi3+0x420>
   1c430:	00100793          	li	a5,1
   1c434:	e8b6e2e3          	bltu	a3,a1,1c2b8 <__udivdi3+0x280>
   1c438:	00ca37b3          	sltu	a5,s4,a2
   1c43c:	0017b793          	seqz	a5,a5
   1c440:	e79ff06f          	j	1c2b8 <__udivdi3+0x280>
   1c444:	010007b7          	lui	a5,0x1000
   1c448:	01800713          	li	a4,24
   1c44c:	fcf6f0e3          	bgeu	a3,a5,1c40c <__udivdi3+0x3d4>
   1c450:	01000713          	li	a4,16
   1c454:	fb9ff06f          	j	1c40c <__udivdi3+0x3d4>
   1c458:	012696b3          	sll	a3,a3,s2
   1c45c:	01065b33          	srl	s6,a2,a6
   1c460:	00db6b33          	or	s6,s6,a3
   1c464:	0105d4b3          	srl	s1,a1,a6
   1c468:	010b5c13          	srl	s8,s6,0x10
   1c46c:	010a5833          	srl	a6,s4,a6
   1c470:	012595b3          	sll	a1,a1,s2
   1c474:	00b869b3          	or	s3,a6,a1
   1c478:	00048513          	mv	a0,s1
   1c47c:	000c0593          	mv	a1,s8
   1c480:	010b1b93          	sll	s7,s6,0x10
   1c484:	01261433          	sll	s0,a2,s2
   1c488:	010bdb93          	srl	s7,s7,0x10
   1c48c:	049050ef          	jal	21cd4 <__hidden___udivsi3>
   1c490:	00050593          	mv	a1,a0
   1c494:	00050c93          	mv	s9,a0
   1c498:	000b8513          	mv	a0,s7
   1c49c:	00d050ef          	jal	21ca8 <__mulsi3>
   1c4a0:	00050a93          	mv	s5,a0
   1c4a4:	000c0593          	mv	a1,s8
   1c4a8:	00048513          	mv	a0,s1
   1c4ac:	071050ef          	jal	21d1c <__umodsi3>
   1c4b0:	01051513          	sll	a0,a0,0x10
   1c4b4:	0109d693          	srl	a3,s3,0x10
   1c4b8:	00a6e6b3          	or	a3,a3,a0
   1c4bc:	000c8493          	mv	s1,s9
   1c4c0:	0156fe63          	bgeu	a3,s5,1c4dc <__udivdi3+0x4a4>
   1c4c4:	00db06b3          	add	a3,s6,a3
   1c4c8:	fffc8493          	add	s1,s9,-1
   1c4cc:	0166e863          	bltu	a3,s6,1c4dc <__udivdi3+0x4a4>
   1c4d0:	0156f663          	bgeu	a3,s5,1c4dc <__udivdi3+0x4a4>
   1c4d4:	ffec8493          	add	s1,s9,-2
   1c4d8:	016686b3          	add	a3,a3,s6
   1c4dc:	41568ab3          	sub	s5,a3,s5
   1c4e0:	000c0593          	mv	a1,s8
   1c4e4:	000a8513          	mv	a0,s5
   1c4e8:	7ec050ef          	jal	21cd4 <__hidden___udivsi3>
   1c4ec:	00050593          	mv	a1,a0
   1c4f0:	00050c93          	mv	s9,a0
   1c4f4:	000b8513          	mv	a0,s7
   1c4f8:	7b0050ef          	jal	21ca8 <__mulsi3>
   1c4fc:	00050b93          	mv	s7,a0
   1c500:	000c0593          	mv	a1,s8
   1c504:	000a8513          	mv	a0,s5
   1c508:	015050ef          	jal	21d1c <__umodsi3>
   1c50c:	01099713          	sll	a4,s3,0x10
   1c510:	01051513          	sll	a0,a0,0x10
   1c514:	01075713          	srl	a4,a4,0x10
   1c518:	00a76733          	or	a4,a4,a0
   1c51c:	000c8693          	mv	a3,s9
   1c520:	01777e63          	bgeu	a4,s7,1c53c <__udivdi3+0x504>
   1c524:	00eb0733          	add	a4,s6,a4
   1c528:	fffc8693          	add	a3,s9,-1
   1c52c:	01676863          	bltu	a4,s6,1c53c <__udivdi3+0x504>
   1c530:	01777663          	bgeu	a4,s7,1c53c <__udivdi3+0x504>
   1c534:	ffec8693          	add	a3,s9,-2
   1c538:	01670733          	add	a4,a4,s6
   1c53c:	01049793          	sll	a5,s1,0x10
   1c540:	00010e37          	lui	t3,0x10
   1c544:	00d7e7b3          	or	a5,a5,a3
   1c548:	fffe0313          	add	t1,t3,-1 # ffff <exit-0x95>
   1c54c:	0067f8b3          	and	a7,a5,t1
   1c550:	00647333          	and	t1,s0,t1
   1c554:	41770733          	sub	a4,a4,s7
   1c558:	0107de93          	srl	t4,a5,0x10
   1c55c:	01045413          	srl	s0,s0,0x10
   1c560:	00088513          	mv	a0,a7
   1c564:	00030593          	mv	a1,t1
   1c568:	740050ef          	jal	21ca8 <__mulsi3>
   1c56c:	00050813          	mv	a6,a0
   1c570:	00040593          	mv	a1,s0
   1c574:	00088513          	mv	a0,a7
   1c578:	730050ef          	jal	21ca8 <__mulsi3>
   1c57c:	00050893          	mv	a7,a0
   1c580:	00030593          	mv	a1,t1
   1c584:	000e8513          	mv	a0,t4
   1c588:	720050ef          	jal	21ca8 <__mulsi3>
   1c58c:	00050313          	mv	t1,a0
   1c590:	00040593          	mv	a1,s0
   1c594:	000e8513          	mv	a0,t4
   1c598:	710050ef          	jal	21ca8 <__mulsi3>
   1c59c:	01085693          	srl	a3,a6,0x10
   1c5a0:	006888b3          	add	a7,a7,t1
   1c5a4:	011686b3          	add	a3,a3,a7
   1c5a8:	00050613          	mv	a2,a0
   1c5ac:	0066f463          	bgeu	a3,t1,1c5b4 <__udivdi3+0x57c>
   1c5b0:	01c50633          	add	a2,a0,t3
   1c5b4:	0106d593          	srl	a1,a3,0x10
   1c5b8:	00c58633          	add	a2,a1,a2
   1c5bc:	02c76663          	bltu	a4,a2,1c5e8 <__udivdi3+0x5b0>
   1c5c0:	bcc71ae3          	bne	a4,a2,1c194 <__udivdi3+0x15c>
   1c5c4:	00010637          	lui	a2,0x10
   1c5c8:	fff60613          	add	a2,a2,-1 # ffff <exit-0x95>
   1c5cc:	00c6f6b3          	and	a3,a3,a2
   1c5d0:	01069693          	sll	a3,a3,0x10
   1c5d4:	00c87833          	and	a6,a6,a2
   1c5d8:	012a1733          	sll	a4,s4,s2
   1c5dc:	010686b3          	add	a3,a3,a6
   1c5e0:	00000913          	li	s2,0
   1c5e4:	ccd77ae3          	bgeu	a4,a3,1c2b8 <__udivdi3+0x280>
   1c5e8:	fff78793          	add	a5,a5,-1 # ffffff <__BSS_END__+0xfdc4df>
   1c5ec:	ba9ff06f          	j	1c194 <__udivdi3+0x15c>
   1c5f0:	00000913          	li	s2,0
   1c5f4:	00000793          	li	a5,0
   1c5f8:	cc1ff06f          	j	1c2b8 <__udivdi3+0x280>

0001c5fc <__umoddi3>:
   1c5fc:	fd010113          	add	sp,sp,-48
   1c600:	02812423          	sw	s0,40(sp)
   1c604:	02912223          	sw	s1,36(sp)
   1c608:	02112623          	sw	ra,44(sp)
   1c60c:	03212023          	sw	s2,32(sp)
   1c610:	01312e23          	sw	s3,28(sp)
   1c614:	01412c23          	sw	s4,24(sp)
   1c618:	01512a23          	sw	s5,20(sp)
   1c61c:	01612823          	sw	s6,16(sp)
   1c620:	01712623          	sw	s7,12(sp)
   1c624:	01812423          	sw	s8,8(sp)
   1c628:	01912223          	sw	s9,4(sp)
   1c62c:	01a12023          	sw	s10,0(sp)
   1c630:	00050413          	mv	s0,a0
   1c634:	00058493          	mv	s1,a1
   1c638:	24069c63          	bnez	a3,1c890 <__umoddi3+0x294>
   1c63c:	00060993          	mv	s3,a2
   1c640:	00006697          	auipc	a3,0x6
   1c644:	f5868693          	add	a3,a3,-168 # 22598 <__clz_tab>
   1c648:	12c5fe63          	bgeu	a1,a2,1c784 <__umoddi3+0x188>
   1c64c:	000107b7          	lui	a5,0x10
   1c650:	12f67063          	bgeu	a2,a5,1c770 <__umoddi3+0x174>
   1c654:	10063793          	sltiu	a5,a2,256
   1c658:	0017b793          	seqz	a5,a5
   1c65c:	00379793          	sll	a5,a5,0x3
   1c660:	00f65733          	srl	a4,a2,a5
   1c664:	00e686b3          	add	a3,a3,a4
   1c668:	0006c703          	lbu	a4,0(a3)
   1c66c:	00f707b3          	add	a5,a4,a5
   1c670:	02000713          	li	a4,32
   1c674:	40f70933          	sub	s2,a4,a5
   1c678:	00f70c63          	beq	a4,a5,1c690 <__umoddi3+0x94>
   1c67c:	012594b3          	sll	s1,a1,s2
   1c680:	00f557b3          	srl	a5,a0,a5
   1c684:	012619b3          	sll	s3,a2,s2
   1c688:	0097e4b3          	or	s1,a5,s1
   1c68c:	01251433          	sll	s0,a0,s2
   1c690:	0109da93          	srl	s5,s3,0x10
   1c694:	000a8593          	mv	a1,s5
   1c698:	01099b13          	sll	s6,s3,0x10
   1c69c:	00048513          	mv	a0,s1
   1c6a0:	634050ef          	jal	21cd4 <__hidden___udivsi3>
   1c6a4:	010b5b13          	srl	s6,s6,0x10
   1c6a8:	000b0593          	mv	a1,s6
   1c6ac:	5fc050ef          	jal	21ca8 <__mulsi3>
   1c6b0:	00050a13          	mv	s4,a0
   1c6b4:	000a8593          	mv	a1,s5
   1c6b8:	00048513          	mv	a0,s1
   1c6bc:	660050ef          	jal	21d1c <__umodsi3>
   1c6c0:	01051513          	sll	a0,a0,0x10
   1c6c4:	01045793          	srl	a5,s0,0x10
   1c6c8:	00a7e7b3          	or	a5,a5,a0
   1c6cc:	0147fa63          	bgeu	a5,s4,1c6e0 <__umoddi3+0xe4>
   1c6d0:	00f987b3          	add	a5,s3,a5
   1c6d4:	0137e663          	bltu	a5,s3,1c6e0 <__umoddi3+0xe4>
   1c6d8:	0147f463          	bgeu	a5,s4,1c6e0 <__umoddi3+0xe4>
   1c6dc:	013787b3          	add	a5,a5,s3
   1c6e0:	414784b3          	sub	s1,a5,s4
   1c6e4:	000a8593          	mv	a1,s5
   1c6e8:	00048513          	mv	a0,s1
   1c6ec:	5e8050ef          	jal	21cd4 <__hidden___udivsi3>
   1c6f0:	000b0593          	mv	a1,s6
   1c6f4:	5b4050ef          	jal	21ca8 <__mulsi3>
   1c6f8:	00050a13          	mv	s4,a0
   1c6fc:	000a8593          	mv	a1,s5
   1c700:	00048513          	mv	a0,s1
   1c704:	618050ef          	jal	21d1c <__umodsi3>
   1c708:	01041413          	sll	s0,s0,0x10
   1c70c:	01051513          	sll	a0,a0,0x10
   1c710:	01045413          	srl	s0,s0,0x10
   1c714:	00a46433          	or	s0,s0,a0
   1c718:	01447a63          	bgeu	s0,s4,1c72c <__umoddi3+0x130>
   1c71c:	00898433          	add	s0,s3,s0
   1c720:	01346663          	bltu	s0,s3,1c72c <__umoddi3+0x130>
   1c724:	01447463          	bgeu	s0,s4,1c72c <__umoddi3+0x130>
   1c728:	01340433          	add	s0,s0,s3
   1c72c:	41440433          	sub	s0,s0,s4
   1c730:	01245533          	srl	a0,s0,s2
   1c734:	00000593          	li	a1,0
   1c738:	02c12083          	lw	ra,44(sp)
   1c73c:	02812403          	lw	s0,40(sp)
   1c740:	02412483          	lw	s1,36(sp)
   1c744:	02012903          	lw	s2,32(sp)
   1c748:	01c12983          	lw	s3,28(sp)
   1c74c:	01812a03          	lw	s4,24(sp)
   1c750:	01412a83          	lw	s5,20(sp)
   1c754:	01012b03          	lw	s6,16(sp)
   1c758:	00c12b83          	lw	s7,12(sp)
   1c75c:	00812c03          	lw	s8,8(sp)
   1c760:	00412c83          	lw	s9,4(sp)
   1c764:	00012d03          	lw	s10,0(sp)
   1c768:	03010113          	add	sp,sp,48
   1c76c:	00008067          	ret
   1c770:	01000737          	lui	a4,0x1000
   1c774:	01800793          	li	a5,24
   1c778:	eee674e3          	bgeu	a2,a4,1c660 <__umoddi3+0x64>
   1c77c:	01000793          	li	a5,16
   1c780:	ee1ff06f          	j	1c660 <__umoddi3+0x64>
   1c784:	00000713          	li	a4,0
   1c788:	00060c63          	beqz	a2,1c7a0 <__umoddi3+0x1a4>
   1c78c:	000107b7          	lui	a5,0x10
   1c790:	0ef67663          	bgeu	a2,a5,1c87c <__umoddi3+0x280>
   1c794:	10063713          	sltiu	a4,a2,256
   1c798:	00173713          	seqz	a4,a4
   1c79c:	00371713          	sll	a4,a4,0x3
   1c7a0:	00e657b3          	srl	a5,a2,a4
   1c7a4:	00f686b3          	add	a3,a3,a5
   1c7a8:	0006c783          	lbu	a5,0(a3)
   1c7ac:	40c584b3          	sub	s1,a1,a2
   1c7b0:	00e787b3          	add	a5,a5,a4
   1c7b4:	02000713          	li	a4,32
   1c7b8:	40f70933          	sub	s2,a4,a5
   1c7bc:	ecf70ae3          	beq	a4,a5,1c690 <__umoddi3+0x94>
   1c7c0:	012619b3          	sll	s3,a2,s2
   1c7c4:	00f5dbb3          	srl	s7,a1,a5
   1c7c8:	0109db13          	srl	s6,s3,0x10
   1c7cc:	00f557b3          	srl	a5,a0,a5
   1c7d0:	012595b3          	sll	a1,a1,s2
   1c7d4:	00b7ea33          	or	s4,a5,a1
   1c7d8:	01251433          	sll	s0,a0,s2
   1c7dc:	000b0593          	mv	a1,s6
   1c7e0:	01099a93          	sll	s5,s3,0x10
   1c7e4:	000b8513          	mv	a0,s7
   1c7e8:	4ec050ef          	jal	21cd4 <__hidden___udivsi3>
   1c7ec:	010ada93          	srl	s5,s5,0x10
   1c7f0:	000a8593          	mv	a1,s5
   1c7f4:	4b4050ef          	jal	21ca8 <__mulsi3>
   1c7f8:	00050493          	mv	s1,a0
   1c7fc:	000b0593          	mv	a1,s6
   1c800:	000b8513          	mv	a0,s7
   1c804:	518050ef          	jal	21d1c <__umodsi3>
   1c808:	01051513          	sll	a0,a0,0x10
   1c80c:	010a5713          	srl	a4,s4,0x10
   1c810:	00a76733          	or	a4,a4,a0
   1c814:	00977a63          	bgeu	a4,s1,1c828 <__umoddi3+0x22c>
   1c818:	00e98733          	add	a4,s3,a4
   1c81c:	01376663          	bltu	a4,s3,1c828 <__umoddi3+0x22c>
   1c820:	00977463          	bgeu	a4,s1,1c828 <__umoddi3+0x22c>
   1c824:	01370733          	add	a4,a4,s3
   1c828:	409704b3          	sub	s1,a4,s1
   1c82c:	000b0593          	mv	a1,s6
   1c830:	00048513          	mv	a0,s1
   1c834:	4a0050ef          	jal	21cd4 <__hidden___udivsi3>
   1c838:	000a8593          	mv	a1,s5
   1c83c:	46c050ef          	jal	21ca8 <__mulsi3>
   1c840:	00050a93          	mv	s5,a0
   1c844:	000b0593          	mv	a1,s6
   1c848:	00048513          	mv	a0,s1
   1c84c:	4d0050ef          	jal	21d1c <__umodsi3>
   1c850:	010a1793          	sll	a5,s4,0x10
   1c854:	01051513          	sll	a0,a0,0x10
   1c858:	0107d793          	srl	a5,a5,0x10
   1c85c:	00a7e7b3          	or	a5,a5,a0
   1c860:	0157fa63          	bgeu	a5,s5,1c874 <__umoddi3+0x278>
   1c864:	00f987b3          	add	a5,s3,a5
   1c868:	0137e663          	bltu	a5,s3,1c874 <__umoddi3+0x278>
   1c86c:	0157f463          	bgeu	a5,s5,1c874 <__umoddi3+0x278>
   1c870:	013787b3          	add	a5,a5,s3
   1c874:	415784b3          	sub	s1,a5,s5
   1c878:	e19ff06f          	j	1c690 <__umoddi3+0x94>
   1c87c:	010007b7          	lui	a5,0x1000
   1c880:	01800713          	li	a4,24
   1c884:	f0f67ee3          	bgeu	a2,a5,1c7a0 <__umoddi3+0x1a4>
   1c888:	01000713          	li	a4,16
   1c88c:	f15ff06f          	j	1c7a0 <__umoddi3+0x1a4>
   1c890:	ead5e4e3          	bltu	a1,a3,1c738 <__umoddi3+0x13c>
   1c894:	000107b7          	lui	a5,0x10
   1c898:	04f6fe63          	bgeu	a3,a5,1c8f4 <__umoddi3+0x2f8>
   1c89c:	1006b793          	sltiu	a5,a3,256
   1c8a0:	0017b793          	seqz	a5,a5
   1c8a4:	00379793          	sll	a5,a5,0x3
   1c8a8:	00f6d833          	srl	a6,a3,a5
   1c8ac:	00006717          	auipc	a4,0x6
   1c8b0:	cec70713          	add	a4,a4,-788 # 22598 <__clz_tab>
   1c8b4:	01070733          	add	a4,a4,a6
   1c8b8:	00074a83          	lbu	s5,0(a4)
   1c8bc:	00fa8ab3          	add	s5,s5,a5
   1c8c0:	02000793          	li	a5,32
   1c8c4:	41578a33          	sub	s4,a5,s5
   1c8c8:	05579063          	bne	a5,s5,1c908 <__umoddi3+0x30c>
   1c8cc:	00b6e463          	bltu	a3,a1,1c8d4 <__umoddi3+0x2d8>
   1c8d0:	00c56c63          	bltu	a0,a2,1c8e8 <__umoddi3+0x2ec>
   1c8d4:	40c50933          	sub	s2,a0,a2
   1c8d8:	40d586b3          	sub	a3,a1,a3
   1c8dc:	012534b3          	sltu	s1,a0,s2
   1c8e0:	00090413          	mv	s0,s2
   1c8e4:	409684b3          	sub	s1,a3,s1
   1c8e8:	00040513          	mv	a0,s0
   1c8ec:	00048593          	mv	a1,s1
   1c8f0:	e49ff06f          	j	1c738 <__umoddi3+0x13c>
   1c8f4:	01000737          	lui	a4,0x1000
   1c8f8:	01800793          	li	a5,24
   1c8fc:	fae6f6e3          	bgeu	a3,a4,1c8a8 <__umoddi3+0x2ac>
   1c900:	01000793          	li	a5,16
   1c904:	fa5ff06f          	j	1c8a8 <__umoddi3+0x2ac>
   1c908:	014696b3          	sll	a3,a3,s4
   1c90c:	01565bb3          	srl	s7,a2,s5
   1c910:	00dbebb3          	or	s7,s7,a3
   1c914:	0155d9b3          	srl	s3,a1,s5
   1c918:	01555433          	srl	s0,a0,s5
   1c91c:	014595b3          	sll	a1,a1,s4
   1c920:	010bd493          	srl	s1,s7,0x10
   1c924:	00b46433          	or	s0,s0,a1
   1c928:	01451b33          	sll	s6,a0,s4
   1c92c:	00048593          	mv	a1,s1
   1c930:	00098513          	mv	a0,s3
   1c934:	010b9c13          	sll	s8,s7,0x10
   1c938:	01461933          	sll	s2,a2,s4
   1c93c:	010c5c13          	srl	s8,s8,0x10
   1c940:	394050ef          	jal	21cd4 <__hidden___udivsi3>
   1c944:	00050593          	mv	a1,a0
   1c948:	00050d13          	mv	s10,a0
   1c94c:	000c0513          	mv	a0,s8
   1c950:	358050ef          	jal	21ca8 <__mulsi3>
   1c954:	00050c93          	mv	s9,a0
   1c958:	00048593          	mv	a1,s1
   1c95c:	00098513          	mv	a0,s3
   1c960:	3bc050ef          	jal	21d1c <__umodsi3>
   1c964:	01051513          	sll	a0,a0,0x10
   1c968:	01045793          	srl	a5,s0,0x10
   1c96c:	00a7e7b3          	or	a5,a5,a0
   1c970:	000d0993          	mv	s3,s10
   1c974:	0197fe63          	bgeu	a5,s9,1c990 <__umoddi3+0x394>
   1c978:	00fb87b3          	add	a5,s7,a5
   1c97c:	fffd0993          	add	s3,s10,-1
   1c980:	0177e863          	bltu	a5,s7,1c990 <__umoddi3+0x394>
   1c984:	0197f663          	bgeu	a5,s9,1c990 <__umoddi3+0x394>
   1c988:	ffed0993          	add	s3,s10,-2
   1c98c:	017787b3          	add	a5,a5,s7
   1c990:	41978cb3          	sub	s9,a5,s9
   1c994:	00048593          	mv	a1,s1
   1c998:	000c8513          	mv	a0,s9
   1c99c:	338050ef          	jal	21cd4 <__hidden___udivsi3>
   1c9a0:	00050593          	mv	a1,a0
   1c9a4:	00050d13          	mv	s10,a0
   1c9a8:	000c0513          	mv	a0,s8
   1c9ac:	2fc050ef          	jal	21ca8 <__mulsi3>
   1c9b0:	00048593          	mv	a1,s1
   1c9b4:	00050c13          	mv	s8,a0
   1c9b8:	000c8513          	mv	a0,s9
   1c9bc:	360050ef          	jal	21d1c <__umodsi3>
   1c9c0:	01041593          	sll	a1,s0,0x10
   1c9c4:	01051513          	sll	a0,a0,0x10
   1c9c8:	0105d593          	srl	a1,a1,0x10
   1c9cc:	00a5e5b3          	or	a1,a1,a0
   1c9d0:	000d0793          	mv	a5,s10
   1c9d4:	0185fe63          	bgeu	a1,s8,1c9f0 <__umoddi3+0x3f4>
   1c9d8:	00bb85b3          	add	a1,s7,a1
   1c9dc:	fffd0793          	add	a5,s10,-1
   1c9e0:	0175e863          	bltu	a1,s7,1c9f0 <__umoddi3+0x3f4>
   1c9e4:	0185f663          	bgeu	a1,s8,1c9f0 <__umoddi3+0x3f4>
   1c9e8:	ffed0793          	add	a5,s10,-2
   1c9ec:	017585b3          	add	a1,a1,s7
   1c9f0:	00010e37          	lui	t3,0x10
   1c9f4:	01099993          	sll	s3,s3,0x10
   1c9f8:	00f9e9b3          	or	s3,s3,a5
   1c9fc:	fffe0793          	add	a5,t3,-1 # ffff <exit-0x95>
   1ca00:	00f9f733          	and	a4,s3,a5
   1ca04:	00f977b3          	and	a5,s2,a5
   1ca08:	418584b3          	sub	s1,a1,s8
   1ca0c:	0109d993          	srl	s3,s3,0x10
   1ca10:	01095313          	srl	t1,s2,0x10
   1ca14:	00070513          	mv	a0,a4
   1ca18:	00078593          	mv	a1,a5
   1ca1c:	28c050ef          	jal	21ca8 <__mulsi3>
   1ca20:	00050813          	mv	a6,a0
   1ca24:	00030593          	mv	a1,t1
   1ca28:	00070513          	mv	a0,a4
   1ca2c:	27c050ef          	jal	21ca8 <__mulsi3>
   1ca30:	00050713          	mv	a4,a0
   1ca34:	00078593          	mv	a1,a5
   1ca38:	00098513          	mv	a0,s3
   1ca3c:	26c050ef          	jal	21ca8 <__mulsi3>
   1ca40:	00050893          	mv	a7,a0
   1ca44:	00030593          	mv	a1,t1
   1ca48:	00098513          	mv	a0,s3
   1ca4c:	25c050ef          	jal	21ca8 <__mulsi3>
   1ca50:	01085793          	srl	a5,a6,0x10
   1ca54:	01170733          	add	a4,a4,a7
   1ca58:	00e787b3          	add	a5,a5,a4
   1ca5c:	00050693          	mv	a3,a0
   1ca60:	0117f463          	bgeu	a5,a7,1ca68 <__umoddi3+0x46c>
   1ca64:	01c506b3          	add	a3,a0,t3
   1ca68:	0107d713          	srl	a4,a5,0x10
   1ca6c:	00d70733          	add	a4,a4,a3
   1ca70:	000106b7          	lui	a3,0x10
   1ca74:	fff68693          	add	a3,a3,-1 # ffff <exit-0x95>
   1ca78:	00d7f7b3          	and	a5,a5,a3
   1ca7c:	01079793          	sll	a5,a5,0x10
   1ca80:	00d87833          	and	a6,a6,a3
   1ca84:	010787b3          	add	a5,a5,a6
   1ca88:	00e4e663          	bltu	s1,a4,1ca94 <__umoddi3+0x498>
   1ca8c:	00e49e63          	bne	s1,a4,1caa8 <__umoddi3+0x4ac>
   1ca90:	00fb7c63          	bgeu	s6,a5,1caa8 <__umoddi3+0x4ac>
   1ca94:	41278933          	sub	s2,a5,s2
   1ca98:	0127b6b3          	sltu	a3,a5,s2
   1ca9c:	017686b3          	add	a3,a3,s7
   1caa0:	00090793          	mv	a5,s2
   1caa4:	40d70733          	sub	a4,a4,a3
   1caa8:	40fb07b3          	sub	a5,s6,a5
   1caac:	00fb3b33          	sltu	s6,s6,a5
   1cab0:	40e485b3          	sub	a1,s1,a4
   1cab4:	416585b3          	sub	a1,a1,s6
   1cab8:	01559ab3          	sll	s5,a1,s5
   1cabc:	0147d7b3          	srl	a5,a5,s4
   1cac0:	00fae533          	or	a0,s5,a5
   1cac4:	0145d5b3          	srl	a1,a1,s4
   1cac8:	c71ff06f          	j	1c738 <__umoddi3+0x13c>

0001cacc <__adddf3>:
   1cacc:	00100837          	lui	a6,0x100
   1cad0:	fff80813          	add	a6,a6,-1 # fffff <__BSS_END__+0xdc4df>
   1cad4:	fe010113          	add	sp,sp,-32
   1cad8:	00b878b3          	and	a7,a6,a1
   1cadc:	0145d713          	srl	a4,a1,0x14
   1cae0:	01d55793          	srl	a5,a0,0x1d
   1cae4:	00d87833          	and	a6,a6,a3
   1cae8:	00912a23          	sw	s1,20(sp)
   1caec:	7ff77493          	and	s1,a4,2047
   1caf0:	00389713          	sll	a4,a7,0x3
   1caf4:	0146d893          	srl	a7,a3,0x14
   1caf8:	00381813          	sll	a6,a6,0x3
   1cafc:	01212823          	sw	s2,16(sp)
   1cb00:	00e7e7b3          	or	a5,a5,a4
   1cb04:	7ff8f893          	and	a7,a7,2047
   1cb08:	01d65713          	srl	a4,a2,0x1d
   1cb0c:	00112e23          	sw	ra,28(sp)
   1cb10:	00812c23          	sw	s0,24(sp)
   1cb14:	01312623          	sw	s3,12(sp)
   1cb18:	01f5d913          	srl	s2,a1,0x1f
   1cb1c:	01f6d693          	srl	a3,a3,0x1f
   1cb20:	01076733          	or	a4,a4,a6
   1cb24:	00351513          	sll	a0,a0,0x3
   1cb28:	00361613          	sll	a2,a2,0x3
   1cb2c:	41148833          	sub	a6,s1,a7
   1cb30:	2ad91a63          	bne	s2,a3,1cde4 <__adddf3+0x318>
   1cb34:	11005c63          	blez	a6,1cc4c <__adddf3+0x180>
   1cb38:	04089063          	bnez	a7,1cb78 <__adddf3+0xac>
   1cb3c:	00c766b3          	or	a3,a4,a2
   1cb40:	66068063          	beqz	a3,1d1a0 <__adddf3+0x6d4>
   1cb44:	fff80593          	add	a1,a6,-1
   1cb48:	02059063          	bnez	a1,1cb68 <__adddf3+0x9c>
   1cb4c:	00c50633          	add	a2,a0,a2
   1cb50:	00a636b3          	sltu	a3,a2,a0
   1cb54:	00e78733          	add	a4,a5,a4
   1cb58:	00060513          	mv	a0,a2
   1cb5c:	00d707b3          	add	a5,a4,a3
   1cb60:	00100493          	li	s1,1
   1cb64:	06c0006f          	j	1cbd0 <__adddf3+0x104>
   1cb68:	7ff00693          	li	a3,2047
   1cb6c:	02d81063          	bne	a6,a3,1cb8c <__adddf3+0xc0>
   1cb70:	7ff00493          	li	s1,2047
   1cb74:	1f80006f          	j	1cd6c <__adddf3+0x2a0>
   1cb78:	7ff00693          	li	a3,2047
   1cb7c:	1ed48863          	beq	s1,a3,1cd6c <__adddf3+0x2a0>
   1cb80:	008006b7          	lui	a3,0x800
   1cb84:	00d76733          	or	a4,a4,a3
   1cb88:	00080593          	mv	a1,a6
   1cb8c:	03800693          	li	a3,56
   1cb90:	0ab6c863          	blt	a3,a1,1cc40 <__adddf3+0x174>
   1cb94:	01f00693          	li	a3,31
   1cb98:	06b6ca63          	blt	a3,a1,1cc0c <__adddf3+0x140>
   1cb9c:	02000813          	li	a6,32
   1cba0:	40b80833          	sub	a6,a6,a1
   1cba4:	010716b3          	sll	a3,a4,a6
   1cba8:	00b658b3          	srl	a7,a2,a1
   1cbac:	01061833          	sll	a6,a2,a6
   1cbb0:	0116e6b3          	or	a3,a3,a7
   1cbb4:	01003833          	snez	a6,a6
   1cbb8:	0106e6b3          	or	a3,a3,a6
   1cbbc:	00b755b3          	srl	a1,a4,a1
   1cbc0:	00a68533          	add	a0,a3,a0
   1cbc4:	00f585b3          	add	a1,a1,a5
   1cbc8:	00d536b3          	sltu	a3,a0,a3
   1cbcc:	00d587b3          	add	a5,a1,a3
   1cbd0:	00879713          	sll	a4,a5,0x8
   1cbd4:	18075c63          	bgez	a4,1cd6c <__adddf3+0x2a0>
   1cbd8:	00148493          	add	s1,s1,1
   1cbdc:	7ff00713          	li	a4,2047
   1cbe0:	5ae48a63          	beq	s1,a4,1d194 <__adddf3+0x6c8>
   1cbe4:	ff800737          	lui	a4,0xff800
   1cbe8:	fff70713          	add	a4,a4,-1 # ff7fffff <__BSS_END__+0xff7dc4df>
   1cbec:	00e7f733          	and	a4,a5,a4
   1cbf0:	00155793          	srl	a5,a0,0x1
   1cbf4:	00157513          	and	a0,a0,1
   1cbf8:	00a7e7b3          	or	a5,a5,a0
   1cbfc:	01f71513          	sll	a0,a4,0x1f
   1cc00:	00f56533          	or	a0,a0,a5
   1cc04:	00175793          	srl	a5,a4,0x1
   1cc08:	1640006f          	j	1cd6c <__adddf3+0x2a0>
   1cc0c:	fe058693          	add	a3,a1,-32
   1cc10:	02000893          	li	a7,32
   1cc14:	00d756b3          	srl	a3,a4,a3
   1cc18:	00000813          	li	a6,0
   1cc1c:	01158863          	beq	a1,a7,1cc2c <__adddf3+0x160>
   1cc20:	04000813          	li	a6,64
   1cc24:	40b80833          	sub	a6,a6,a1
   1cc28:	01071833          	sll	a6,a4,a6
   1cc2c:	00c86833          	or	a6,a6,a2
   1cc30:	01003833          	snez	a6,a6
   1cc34:	0106e6b3          	or	a3,a3,a6
   1cc38:	00000593          	li	a1,0
   1cc3c:	f85ff06f          	j	1cbc0 <__adddf3+0xf4>
   1cc40:	00c766b3          	or	a3,a4,a2
   1cc44:	00d036b3          	snez	a3,a3
   1cc48:	ff1ff06f          	j	1cc38 <__adddf3+0x16c>
   1cc4c:	0c080a63          	beqz	a6,1cd20 <__adddf3+0x254>
   1cc50:	409886b3          	sub	a3,a7,s1
   1cc54:	02049463          	bnez	s1,1cc7c <__adddf3+0x1b0>
   1cc58:	00a7e5b3          	or	a1,a5,a0
   1cc5c:	50058e63          	beqz	a1,1d178 <__adddf3+0x6ac>
   1cc60:	fff68593          	add	a1,a3,-1 # 7fffff <__BSS_END__+0x7dc4df>
   1cc64:	ee0584e3          	beqz	a1,1cb4c <__adddf3+0x80>
   1cc68:	7ff00813          	li	a6,2047
   1cc6c:	03069263          	bne	a3,a6,1cc90 <__adddf3+0x1c4>
   1cc70:	00070793          	mv	a5,a4
   1cc74:	00060513          	mv	a0,a2
   1cc78:	ef9ff06f          	j	1cb70 <__adddf3+0xa4>
   1cc7c:	7ff00593          	li	a1,2047
   1cc80:	feb888e3          	beq	a7,a1,1cc70 <__adddf3+0x1a4>
   1cc84:	008005b7          	lui	a1,0x800
   1cc88:	00b7e7b3          	or	a5,a5,a1
   1cc8c:	00068593          	mv	a1,a3
   1cc90:	03800693          	li	a3,56
   1cc94:	08b6c063          	blt	a3,a1,1cd14 <__adddf3+0x248>
   1cc98:	01f00693          	li	a3,31
   1cc9c:	04b6c263          	blt	a3,a1,1cce0 <__adddf3+0x214>
   1cca0:	02000813          	li	a6,32
   1cca4:	40b80833          	sub	a6,a6,a1
   1cca8:	010796b3          	sll	a3,a5,a6
   1ccac:	00b55333          	srl	t1,a0,a1
   1ccb0:	01051833          	sll	a6,a0,a6
   1ccb4:	0066e6b3          	or	a3,a3,t1
   1ccb8:	01003833          	snez	a6,a6
   1ccbc:	0106e6b3          	or	a3,a3,a6
   1ccc0:	00b7d5b3          	srl	a1,a5,a1
   1ccc4:	00c68633          	add	a2,a3,a2
   1ccc8:	00e585b3          	add	a1,a1,a4
   1cccc:	00d636b3          	sltu	a3,a2,a3
   1ccd0:	00060513          	mv	a0,a2
   1ccd4:	00d587b3          	add	a5,a1,a3
   1ccd8:	00088493          	mv	s1,a7
   1ccdc:	ef5ff06f          	j	1cbd0 <__adddf3+0x104>
   1cce0:	fe058693          	add	a3,a1,-32 # 7fffe0 <__BSS_END__+0x7dc4c0>
   1cce4:	02000313          	li	t1,32
   1cce8:	00d7d6b3          	srl	a3,a5,a3
   1ccec:	00000813          	li	a6,0
   1ccf0:	00658863          	beq	a1,t1,1cd00 <__adddf3+0x234>
   1ccf4:	04000813          	li	a6,64
   1ccf8:	40b80833          	sub	a6,a6,a1
   1ccfc:	01079833          	sll	a6,a5,a6
   1cd00:	00a86833          	or	a6,a6,a0
   1cd04:	01003833          	snez	a6,a6
   1cd08:	0106e6b3          	or	a3,a3,a6
   1cd0c:	00000593          	li	a1,0
   1cd10:	fb5ff06f          	j	1ccc4 <__adddf3+0x1f8>
   1cd14:	00a7e6b3          	or	a3,a5,a0
   1cd18:	00d036b3          	snez	a3,a3
   1cd1c:	ff1ff06f          	j	1cd0c <__adddf3+0x240>
   1cd20:	00148693          	add	a3,s1,1
   1cd24:	7fe6f593          	and	a1,a3,2046
   1cd28:	08059663          	bnez	a1,1cdb4 <__adddf3+0x2e8>
   1cd2c:	00a7e6b3          	or	a3,a5,a0
   1cd30:	06049263          	bnez	s1,1cd94 <__adddf3+0x2c8>
   1cd34:	44068863          	beqz	a3,1d184 <__adddf3+0x6b8>
   1cd38:	00c766b3          	or	a3,a4,a2
   1cd3c:	02068863          	beqz	a3,1cd6c <__adddf3+0x2a0>
   1cd40:	00c50633          	add	a2,a0,a2
   1cd44:	00a636b3          	sltu	a3,a2,a0
   1cd48:	00e78733          	add	a4,a5,a4
   1cd4c:	00d707b3          	add	a5,a4,a3
   1cd50:	00879713          	sll	a4,a5,0x8
   1cd54:	00060513          	mv	a0,a2
   1cd58:	00075a63          	bgez	a4,1cd6c <__adddf3+0x2a0>
   1cd5c:	ff800737          	lui	a4,0xff800
   1cd60:	fff70713          	add	a4,a4,-1 # ff7fffff <__BSS_END__+0xff7dc4df>
   1cd64:	00e7f7b3          	and	a5,a5,a4
   1cd68:	00100493          	li	s1,1
   1cd6c:	00757713          	and	a4,a0,7
   1cd70:	44070863          	beqz	a4,1d1c0 <__adddf3+0x6f4>
   1cd74:	00f57713          	and	a4,a0,15
   1cd78:	00400693          	li	a3,4
   1cd7c:	44d70263          	beq	a4,a3,1d1c0 <__adddf3+0x6f4>
   1cd80:	00450713          	add	a4,a0,4
   1cd84:	00a736b3          	sltu	a3,a4,a0
   1cd88:	00d787b3          	add	a5,a5,a3
   1cd8c:	00070513          	mv	a0,a4
   1cd90:	4300006f          	j	1d1c0 <__adddf3+0x6f4>
   1cd94:	ec068ee3          	beqz	a3,1cc70 <__adddf3+0x1a4>
   1cd98:	00c76633          	or	a2,a4,a2
   1cd9c:	dc060ae3          	beqz	a2,1cb70 <__adddf3+0xa4>
   1cda0:	00000913          	li	s2,0
   1cda4:	004007b7          	lui	a5,0x400
   1cda8:	00000513          	li	a0,0
   1cdac:	7ff00493          	li	s1,2047
   1cdb0:	4100006f          	j	1d1c0 <__adddf3+0x6f4>
   1cdb4:	7ff00593          	li	a1,2047
   1cdb8:	3cb68c63          	beq	a3,a1,1d190 <__adddf3+0x6c4>
   1cdbc:	00c50633          	add	a2,a0,a2
   1cdc0:	00a63533          	sltu	a0,a2,a0
   1cdc4:	00e78733          	add	a4,a5,a4
   1cdc8:	00a70733          	add	a4,a4,a0
   1cdcc:	01f71513          	sll	a0,a4,0x1f
   1cdd0:	00165613          	srl	a2,a2,0x1
   1cdd4:	00c56533          	or	a0,a0,a2
   1cdd8:	00175793          	srl	a5,a4,0x1
   1cddc:	00068493          	mv	s1,a3
   1cde0:	f8dff06f          	j	1cd6c <__adddf3+0x2a0>
   1cde4:	0f005c63          	blez	a6,1cedc <__adddf3+0x410>
   1cde8:	08089e63          	bnez	a7,1ce84 <__adddf3+0x3b8>
   1cdec:	00c766b3          	or	a3,a4,a2
   1cdf0:	3a068863          	beqz	a3,1d1a0 <__adddf3+0x6d4>
   1cdf4:	fff80693          	add	a3,a6,-1
   1cdf8:	02069063          	bnez	a3,1ce18 <__adddf3+0x34c>
   1cdfc:	40c50633          	sub	a2,a0,a2
   1ce00:	00c536b3          	sltu	a3,a0,a2
   1ce04:	40e78733          	sub	a4,a5,a4
   1ce08:	00060513          	mv	a0,a2
   1ce0c:	40d707b3          	sub	a5,a4,a3
   1ce10:	00100493          	li	s1,1
   1ce14:	0540006f          	j	1ce68 <__adddf3+0x39c>
   1ce18:	7ff00593          	li	a1,2047
   1ce1c:	d4b80ae3          	beq	a6,a1,1cb70 <__adddf3+0xa4>
   1ce20:	03800593          	li	a1,56
   1ce24:	0ad5c663          	blt	a1,a3,1ced0 <__adddf3+0x404>
   1ce28:	01f00593          	li	a1,31
   1ce2c:	06d5c863          	blt	a1,a3,1ce9c <__adddf3+0x3d0>
   1ce30:	02000813          	li	a6,32
   1ce34:	40d80833          	sub	a6,a6,a3
   1ce38:	00d658b3          	srl	a7,a2,a3
   1ce3c:	010715b3          	sll	a1,a4,a6
   1ce40:	01061833          	sll	a6,a2,a6
   1ce44:	0115e5b3          	or	a1,a1,a7
   1ce48:	01003833          	snez	a6,a6
   1ce4c:	0105e633          	or	a2,a1,a6
   1ce50:	00d756b3          	srl	a3,a4,a3
   1ce54:	40c50633          	sub	a2,a0,a2
   1ce58:	00c53733          	sltu	a4,a0,a2
   1ce5c:	40d786b3          	sub	a3,a5,a3
   1ce60:	00060513          	mv	a0,a2
   1ce64:	40e687b3          	sub	a5,a3,a4
   1ce68:	00879713          	sll	a4,a5,0x8
   1ce6c:	f00750e3          	bgez	a4,1cd6c <__adddf3+0x2a0>
   1ce70:	00800437          	lui	s0,0x800
   1ce74:	fff40413          	add	s0,s0,-1 # 7fffff <__BSS_END__+0x7dc4df>
   1ce78:	0087f433          	and	s0,a5,s0
   1ce7c:	00050993          	mv	s3,a0
   1ce80:	2100006f          	j	1d090 <__adddf3+0x5c4>
   1ce84:	7ff00693          	li	a3,2047
   1ce88:	eed482e3          	beq	s1,a3,1cd6c <__adddf3+0x2a0>
   1ce8c:	008006b7          	lui	a3,0x800
   1ce90:	00d76733          	or	a4,a4,a3
   1ce94:	00080693          	mv	a3,a6
   1ce98:	f89ff06f          	j	1ce20 <__adddf3+0x354>
   1ce9c:	fe068593          	add	a1,a3,-32 # 7fffe0 <__BSS_END__+0x7dc4c0>
   1cea0:	02000893          	li	a7,32
   1cea4:	00b755b3          	srl	a1,a4,a1
   1cea8:	00000813          	li	a6,0
   1ceac:	01168863          	beq	a3,a7,1cebc <__adddf3+0x3f0>
   1ceb0:	04000813          	li	a6,64
   1ceb4:	40d80833          	sub	a6,a6,a3
   1ceb8:	01071833          	sll	a6,a4,a6
   1cebc:	00c86833          	or	a6,a6,a2
   1cec0:	01003833          	snez	a6,a6
   1cec4:	0105e633          	or	a2,a1,a6
   1cec8:	00000693          	li	a3,0
   1cecc:	f89ff06f          	j	1ce54 <__adddf3+0x388>
   1ced0:	00c76633          	or	a2,a4,a2
   1ced4:	00c03633          	snez	a2,a2
   1ced8:	ff1ff06f          	j	1cec8 <__adddf3+0x3fc>
   1cedc:	0e080863          	beqz	a6,1cfcc <__adddf3+0x500>
   1cee0:	40988833          	sub	a6,a7,s1
   1cee4:	04049263          	bnez	s1,1cf28 <__adddf3+0x45c>
   1cee8:	00a7e5b3          	or	a1,a5,a0
   1ceec:	2a058e63          	beqz	a1,1d1a8 <__adddf3+0x6dc>
   1cef0:	fff80593          	add	a1,a6,-1
   1cef4:	00059e63          	bnez	a1,1cf10 <__adddf3+0x444>
   1cef8:	40a60533          	sub	a0,a2,a0
   1cefc:	40f70733          	sub	a4,a4,a5
   1cf00:	00a63633          	sltu	a2,a2,a0
   1cf04:	40c707b3          	sub	a5,a4,a2
   1cf08:	00068913          	mv	s2,a3
   1cf0c:	f05ff06f          	j	1ce10 <__adddf3+0x344>
   1cf10:	7ff00313          	li	t1,2047
   1cf14:	02681463          	bne	a6,t1,1cf3c <__adddf3+0x470>
   1cf18:	00070793          	mv	a5,a4
   1cf1c:	00060513          	mv	a0,a2
   1cf20:	7ff00493          	li	s1,2047
   1cf24:	0d00006f          	j	1cff4 <__adddf3+0x528>
   1cf28:	7ff00593          	li	a1,2047
   1cf2c:	feb886e3          	beq	a7,a1,1cf18 <__adddf3+0x44c>
   1cf30:	008005b7          	lui	a1,0x800
   1cf34:	00b7e7b3          	or	a5,a5,a1
   1cf38:	00080593          	mv	a1,a6
   1cf3c:	03800813          	li	a6,56
   1cf40:	08b84063          	blt	a6,a1,1cfc0 <__adddf3+0x4f4>
   1cf44:	01f00813          	li	a6,31
   1cf48:	04b84263          	blt	a6,a1,1cf8c <__adddf3+0x4c0>
   1cf4c:	02000313          	li	t1,32
   1cf50:	40b30333          	sub	t1,t1,a1
   1cf54:	00b55e33          	srl	t3,a0,a1
   1cf58:	00679833          	sll	a6,a5,t1
   1cf5c:	00651333          	sll	t1,a0,t1
   1cf60:	01c86833          	or	a6,a6,t3
   1cf64:	00603333          	snez	t1,t1
   1cf68:	00686533          	or	a0,a6,t1
   1cf6c:	00b7d5b3          	srl	a1,a5,a1
   1cf70:	40a60533          	sub	a0,a2,a0
   1cf74:	40b705b3          	sub	a1,a4,a1
   1cf78:	00a63633          	sltu	a2,a2,a0
   1cf7c:	40c587b3          	sub	a5,a1,a2
   1cf80:	00088493          	mv	s1,a7
   1cf84:	00068913          	mv	s2,a3
   1cf88:	ee1ff06f          	j	1ce68 <__adddf3+0x39c>
   1cf8c:	fe058813          	add	a6,a1,-32 # 7fffe0 <__BSS_END__+0x7dc4c0>
   1cf90:	02000e13          	li	t3,32
   1cf94:	0107d833          	srl	a6,a5,a6
   1cf98:	00000313          	li	t1,0
   1cf9c:	01c58863          	beq	a1,t3,1cfac <__adddf3+0x4e0>
   1cfa0:	04000313          	li	t1,64
   1cfa4:	40b30333          	sub	t1,t1,a1
   1cfa8:	00679333          	sll	t1,a5,t1
   1cfac:	00a36333          	or	t1,t1,a0
   1cfb0:	00603333          	snez	t1,t1
   1cfb4:	00686533          	or	a0,a6,t1
   1cfb8:	00000593          	li	a1,0
   1cfbc:	fb5ff06f          	j	1cf70 <__adddf3+0x4a4>
   1cfc0:	00a7e533          	or	a0,a5,a0
   1cfc4:	00a03533          	snez	a0,a0
   1cfc8:	ff1ff06f          	j	1cfb8 <__adddf3+0x4ec>
   1cfcc:	00148593          	add	a1,s1,1
   1cfd0:	7fe5f593          	and	a1,a1,2046
   1cfd4:	08059663          	bnez	a1,1d060 <__adddf3+0x594>
   1cfd8:	00a7e833          	or	a6,a5,a0
   1cfdc:	00c765b3          	or	a1,a4,a2
   1cfe0:	06049063          	bnez	s1,1d040 <__adddf3+0x574>
   1cfe4:	00081c63          	bnez	a6,1cffc <__adddf3+0x530>
   1cfe8:	10058e63          	beqz	a1,1d104 <__adddf3+0x638>
   1cfec:	00070793          	mv	a5,a4
   1cff0:	00060513          	mv	a0,a2
   1cff4:	00068913          	mv	s2,a3
   1cff8:	d75ff06f          	j	1cd6c <__adddf3+0x2a0>
   1cffc:	d60588e3          	beqz	a1,1cd6c <__adddf3+0x2a0>
   1d000:	40c50833          	sub	a6,a0,a2
   1d004:	010538b3          	sltu	a7,a0,a6
   1d008:	40e785b3          	sub	a1,a5,a4
   1d00c:	411585b3          	sub	a1,a1,a7
   1d010:	00859893          	sll	a7,a1,0x8
   1d014:	0008dc63          	bgez	a7,1d02c <__adddf3+0x560>
   1d018:	40a60533          	sub	a0,a2,a0
   1d01c:	40f70733          	sub	a4,a4,a5
   1d020:	00a63633          	sltu	a2,a2,a0
   1d024:	40c707b3          	sub	a5,a4,a2
   1d028:	fcdff06f          	j	1cff4 <__adddf3+0x528>
   1d02c:	00b86533          	or	a0,a6,a1
   1d030:	18050463          	beqz	a0,1d1b8 <__adddf3+0x6ec>
   1d034:	00058793          	mv	a5,a1
   1d038:	00080513          	mv	a0,a6
   1d03c:	d31ff06f          	j	1cd6c <__adddf3+0x2a0>
   1d040:	00081c63          	bnez	a6,1d058 <__adddf3+0x58c>
   1d044:	d4058ee3          	beqz	a1,1cda0 <__adddf3+0x2d4>
   1d048:	00070793          	mv	a5,a4
   1d04c:	00060513          	mv	a0,a2
   1d050:	00068913          	mv	s2,a3
   1d054:	b1dff06f          	j	1cb70 <__adddf3+0xa4>
   1d058:	b0058ce3          	beqz	a1,1cb70 <__adddf3+0xa4>
   1d05c:	d45ff06f          	j	1cda0 <__adddf3+0x2d4>
   1d060:	40c505b3          	sub	a1,a0,a2
   1d064:	00b53833          	sltu	a6,a0,a1
   1d068:	40e78433          	sub	s0,a5,a4
   1d06c:	41040433          	sub	s0,s0,a6
   1d070:	00841813          	sll	a6,s0,0x8
   1d074:	00058993          	mv	s3,a1
   1d078:	08085063          	bgez	a6,1d0f8 <__adddf3+0x62c>
   1d07c:	40a609b3          	sub	s3,a2,a0
   1d080:	40f70433          	sub	s0,a4,a5
   1d084:	01363633          	sltu	a2,a2,s3
   1d088:	40c40433          	sub	s0,s0,a2
   1d08c:	00068913          	mv	s2,a3
   1d090:	06040e63          	beqz	s0,1d10c <__adddf3+0x640>
   1d094:	00040513          	mv	a0,s0
   1d098:	4e9040ef          	jal	21d80 <__clzsi2>
   1d09c:	ff850693          	add	a3,a0,-8
   1d0a0:	02000793          	li	a5,32
   1d0a4:	40d787b3          	sub	a5,a5,a3
   1d0a8:	00d41433          	sll	s0,s0,a3
   1d0ac:	00f9d7b3          	srl	a5,s3,a5
   1d0b0:	0087e7b3          	or	a5,a5,s0
   1d0b4:	00d99433          	sll	s0,s3,a3
   1d0b8:	0a96c463          	blt	a3,s1,1d160 <__adddf3+0x694>
   1d0bc:	409686b3          	sub	a3,a3,s1
   1d0c0:	00168613          	add	a2,a3,1
   1d0c4:	01f00713          	li	a4,31
   1d0c8:	06c74263          	blt	a4,a2,1d12c <__adddf3+0x660>
   1d0cc:	02000713          	li	a4,32
   1d0d0:	40c70733          	sub	a4,a4,a2
   1d0d4:	00e79533          	sll	a0,a5,a4
   1d0d8:	00c456b3          	srl	a3,s0,a2
   1d0dc:	00e41733          	sll	a4,s0,a4
   1d0e0:	00d56533          	or	a0,a0,a3
   1d0e4:	00e03733          	snez	a4,a4
   1d0e8:	00e56533          	or	a0,a0,a4
   1d0ec:	00c7d7b3          	srl	a5,a5,a2
   1d0f0:	00000493          	li	s1,0
   1d0f4:	c79ff06f          	j	1cd6c <__adddf3+0x2a0>
   1d0f8:	0085e5b3          	or	a1,a1,s0
   1d0fc:	f8059ae3          	bnez	a1,1d090 <__adddf3+0x5c4>
   1d100:	00000493          	li	s1,0
   1d104:	00000913          	li	s2,0
   1d108:	08c0006f          	j	1d194 <__adddf3+0x6c8>
   1d10c:	00098513          	mv	a0,s3
   1d110:	471040ef          	jal	21d80 <__clzsi2>
   1d114:	01850693          	add	a3,a0,24
   1d118:	01f00793          	li	a5,31
   1d11c:	f8d7d2e3          	bge	a5,a3,1d0a0 <__adddf3+0x5d4>
   1d120:	ff850793          	add	a5,a0,-8
   1d124:	00f997b3          	sll	a5,s3,a5
   1d128:	f91ff06f          	j	1d0b8 <__adddf3+0x5ec>
   1d12c:	fe168693          	add	a3,a3,-31
   1d130:	00d7d533          	srl	a0,a5,a3
   1d134:	02000693          	li	a3,32
   1d138:	00000713          	li	a4,0
   1d13c:	00d60863          	beq	a2,a3,1d14c <__adddf3+0x680>
   1d140:	04000713          	li	a4,64
   1d144:	40c70733          	sub	a4,a4,a2
   1d148:	00e79733          	sll	a4,a5,a4
   1d14c:	00e46733          	or	a4,s0,a4
   1d150:	00e03733          	snez	a4,a4
   1d154:	00e56533          	or	a0,a0,a4
   1d158:	00000793          	li	a5,0
   1d15c:	f95ff06f          	j	1d0f0 <__adddf3+0x624>
   1d160:	ff800737          	lui	a4,0xff800
   1d164:	fff70713          	add	a4,a4,-1 # ff7fffff <__BSS_END__+0xff7dc4df>
   1d168:	40d484b3          	sub	s1,s1,a3
   1d16c:	00e7f7b3          	and	a5,a5,a4
   1d170:	00040513          	mv	a0,s0
   1d174:	bf9ff06f          	j	1cd6c <__adddf3+0x2a0>
   1d178:	00070793          	mv	a5,a4
   1d17c:	00060513          	mv	a0,a2
   1d180:	c5dff06f          	j	1cddc <__adddf3+0x310>
   1d184:	00070793          	mv	a5,a4
   1d188:	00060513          	mv	a0,a2
   1d18c:	be1ff06f          	j	1cd6c <__adddf3+0x2a0>
   1d190:	7ff00493          	li	s1,2047
   1d194:	00000793          	li	a5,0
   1d198:	00000513          	li	a0,0
   1d19c:	0240006f          	j	1d1c0 <__adddf3+0x6f4>
   1d1a0:	00080493          	mv	s1,a6
   1d1a4:	bc9ff06f          	j	1cd6c <__adddf3+0x2a0>
   1d1a8:	00070793          	mv	a5,a4
   1d1ac:	00060513          	mv	a0,a2
   1d1b0:	00080493          	mv	s1,a6
   1d1b4:	e41ff06f          	j	1cff4 <__adddf3+0x528>
   1d1b8:	00000793          	li	a5,0
   1d1bc:	00000913          	li	s2,0
   1d1c0:	00879713          	sll	a4,a5,0x8
   1d1c4:	00075e63          	bgez	a4,1d1e0 <__adddf3+0x714>
   1d1c8:	00148493          	add	s1,s1,1
   1d1cc:	7ff00713          	li	a4,2047
   1d1d0:	08e48263          	beq	s1,a4,1d254 <__adddf3+0x788>
   1d1d4:	ff800737          	lui	a4,0xff800
   1d1d8:	fff70713          	add	a4,a4,-1 # ff7fffff <__BSS_END__+0xff7dc4df>
   1d1dc:	00e7f7b3          	and	a5,a5,a4
   1d1e0:	01d79693          	sll	a3,a5,0x1d
   1d1e4:	00355513          	srl	a0,a0,0x3
   1d1e8:	7ff00713          	li	a4,2047
   1d1ec:	00a6e6b3          	or	a3,a3,a0
   1d1f0:	0037d793          	srl	a5,a5,0x3
   1d1f4:	00e49e63          	bne	s1,a4,1d210 <__adddf3+0x744>
   1d1f8:	00f6e6b3          	or	a3,a3,a5
   1d1fc:	00000793          	li	a5,0
   1d200:	00068863          	beqz	a3,1d210 <__adddf3+0x744>
   1d204:	000807b7          	lui	a5,0x80
   1d208:	00000693          	li	a3,0
   1d20c:	00000913          	li	s2,0
   1d210:	01449713          	sll	a4,s1,0x14
   1d214:	7ff00637          	lui	a2,0x7ff00
   1d218:	00c79793          	sll	a5,a5,0xc
   1d21c:	00c77733          	and	a4,a4,a2
   1d220:	01c12083          	lw	ra,28(sp)
   1d224:	01812403          	lw	s0,24(sp)
   1d228:	00c7d793          	srl	a5,a5,0xc
   1d22c:	00f767b3          	or	a5,a4,a5
   1d230:	01f91713          	sll	a4,s2,0x1f
   1d234:	00e7e633          	or	a2,a5,a4
   1d238:	01412483          	lw	s1,20(sp)
   1d23c:	01012903          	lw	s2,16(sp)
   1d240:	00c12983          	lw	s3,12(sp)
   1d244:	00068513          	mv	a0,a3
   1d248:	00060593          	mv	a1,a2
   1d24c:	02010113          	add	sp,sp,32
   1d250:	00008067          	ret
   1d254:	00000793          	li	a5,0
   1d258:	00000513          	li	a0,0
   1d25c:	f85ff06f          	j	1d1e0 <__adddf3+0x714>

0001d260 <__divdf3>:
   1d260:	fb010113          	add	sp,sp,-80
   1d264:	05212023          	sw	s2,64(sp)
   1d268:	0145d913          	srl	s2,a1,0x14
   1d26c:	04912223          	sw	s1,68(sp)
   1d270:	03312e23          	sw	s3,60(sp)
   1d274:	03412c23          	sw	s4,56(sp)
   1d278:	03512a23          	sw	s5,52(sp)
   1d27c:	03712623          	sw	s7,44(sp)
   1d280:	00c59493          	sll	s1,a1,0xc
   1d284:	04112623          	sw	ra,76(sp)
   1d288:	04812423          	sw	s0,72(sp)
   1d28c:	03612823          	sw	s6,48(sp)
   1d290:	03812423          	sw	s8,40(sp)
   1d294:	03912223          	sw	s9,36(sp)
   1d298:	03a12023          	sw	s10,32(sp)
   1d29c:	01b12e23          	sw	s11,28(sp)
   1d2a0:	7ff97913          	and	s2,s2,2047
   1d2a4:	00050993          	mv	s3,a0
   1d2a8:	00060b93          	mv	s7,a2
   1d2ac:	00068a13          	mv	s4,a3
   1d2b0:	00c4d493          	srl	s1,s1,0xc
   1d2b4:	01f5da93          	srl	s5,a1,0x1f
   1d2b8:	0a090263          	beqz	s2,1d35c <__divdf3+0xfc>
   1d2bc:	7ff00793          	li	a5,2047
   1d2c0:	10f90263          	beq	s2,a5,1d3c4 <__divdf3+0x164>
   1d2c4:	01d55d13          	srl	s10,a0,0x1d
   1d2c8:	00349493          	sll	s1,s1,0x3
   1d2cc:	009d6d33          	or	s10,s10,s1
   1d2d0:	008007b7          	lui	a5,0x800
   1d2d4:	00fd6d33          	or	s10,s10,a5
   1d2d8:	00351413          	sll	s0,a0,0x3
   1d2dc:	c0190913          	add	s2,s2,-1023
   1d2e0:	00000b13          	li	s6,0
   1d2e4:	014a5713          	srl	a4,s4,0x14
   1d2e8:	00ca1993          	sll	s3,s4,0xc
   1d2ec:	7ff77713          	and	a4,a4,2047
   1d2f0:	00c9d993          	srl	s3,s3,0xc
   1d2f4:	01fa5a13          	srl	s4,s4,0x1f
   1d2f8:	10070463          	beqz	a4,1d400 <__divdf3+0x1a0>
   1d2fc:	7ff00793          	li	a5,2047
   1d300:	16f70863          	beq	a4,a5,1d470 <__divdf3+0x210>
   1d304:	00399993          	sll	s3,s3,0x3
   1d308:	01dbd793          	srl	a5,s7,0x1d
   1d30c:	0137e7b3          	or	a5,a5,s3
   1d310:	008009b7          	lui	s3,0x800
   1d314:	0137e9b3          	or	s3,a5,s3
   1d318:	003b9693          	sll	a3,s7,0x3
   1d31c:	c0170713          	add	a4,a4,-1023
   1d320:	00000793          	li	a5,0
   1d324:	40e90933          	sub	s2,s2,a4
   1d328:	002b1713          	sll	a4,s6,0x2
   1d32c:	00f76733          	or	a4,a4,a5
   1d330:	fff70713          	add	a4,a4,-1
   1d334:	00e00613          	li	a2,14
   1d338:	014ac4b3          	xor	s1,s5,s4
   1d33c:	16e66663          	bltu	a2,a4,1d4a8 <__divdf3+0x248>
   1d340:	00005617          	auipc	a2,0x5
   1d344:	21c60613          	add	a2,a2,540 # 2255c <_ctype_+0x104>
   1d348:	00271713          	sll	a4,a4,0x2
   1d34c:	00c70733          	add	a4,a4,a2
   1d350:	00072703          	lw	a4,0(a4)
   1d354:	00c70733          	add	a4,a4,a2
   1d358:	00070067          	jr	a4
   1d35c:	00a4ed33          	or	s10,s1,a0
   1d360:	060d0e63          	beqz	s10,1d3dc <__divdf3+0x17c>
   1d364:	02048e63          	beqz	s1,1d3a0 <__divdf3+0x140>
   1d368:	00048513          	mv	a0,s1
   1d36c:	215040ef          	jal	21d80 <__clzsi2>
   1d370:	ff550793          	add	a5,a0,-11
   1d374:	01d00d13          	li	s10,29
   1d378:	ff850713          	add	a4,a0,-8
   1d37c:	40fd0d33          	sub	s10,s10,a5
   1d380:	00e494b3          	sll	s1,s1,a4
   1d384:	01a9dd33          	srl	s10,s3,s10
   1d388:	009d6d33          	or	s10,s10,s1
   1d38c:	00e994b3          	sll	s1,s3,a4
   1d390:	c0d00913          	li	s2,-1011
   1d394:	40a90933          	sub	s2,s2,a0
   1d398:	00048413          	mv	s0,s1
   1d39c:	f45ff06f          	j	1d2e0 <__divdf3+0x80>
   1d3a0:	1e1040ef          	jal	21d80 <__clzsi2>
   1d3a4:	00050d13          	mv	s10,a0
   1d3a8:	015d0793          	add	a5,s10,21
   1d3ac:	01c00713          	li	a4,28
   1d3b0:	02050513          	add	a0,a0,32
   1d3b4:	fcf750e3          	bge	a4,a5,1d374 <__divdf3+0x114>
   1d3b8:	ff8d0d13          	add	s10,s10,-8
   1d3bc:	01a99d33          	sll	s10,s3,s10
   1d3c0:	fd1ff06f          	j	1d390 <__divdf3+0x130>
   1d3c4:	00a4ed33          	or	s10,s1,a0
   1d3c8:	020d1263          	bnez	s10,1d3ec <__divdf3+0x18c>
   1d3cc:	00000413          	li	s0,0
   1d3d0:	7ff00913          	li	s2,2047
   1d3d4:	00200b13          	li	s6,2
   1d3d8:	f0dff06f          	j	1d2e4 <__divdf3+0x84>
   1d3dc:	00000413          	li	s0,0
   1d3e0:	00000913          	li	s2,0
   1d3e4:	00100b13          	li	s6,1
   1d3e8:	efdff06f          	j	1d2e4 <__divdf3+0x84>
   1d3ec:	00050413          	mv	s0,a0
   1d3f0:	00048d13          	mv	s10,s1
   1d3f4:	7ff00913          	li	s2,2047
   1d3f8:	00300b13          	li	s6,3
   1d3fc:	ee9ff06f          	j	1d2e4 <__divdf3+0x84>
   1d400:	0179e6b3          	or	a3,s3,s7
   1d404:	08068263          	beqz	a3,1d488 <__divdf3+0x228>
   1d408:	04098063          	beqz	s3,1d448 <__divdf3+0x1e8>
   1d40c:	00098513          	mv	a0,s3
   1d410:	171040ef          	jal	21d80 <__clzsi2>
   1d414:	ff550713          	add	a4,a0,-11
   1d418:	01d00793          	li	a5,29
   1d41c:	ff850693          	add	a3,a0,-8
   1d420:	40e787b3          	sub	a5,a5,a4
   1d424:	00d999b3          	sll	s3,s3,a3
   1d428:	00fbd7b3          	srl	a5,s7,a5
   1d42c:	0137e7b3          	or	a5,a5,s3
   1d430:	00db99b3          	sll	s3,s7,a3
   1d434:	c0d00713          	li	a4,-1011
   1d438:	00098693          	mv	a3,s3
   1d43c:	40a70733          	sub	a4,a4,a0
   1d440:	00078993          	mv	s3,a5
   1d444:	eddff06f          	j	1d320 <__divdf3+0xc0>
   1d448:	000b8513          	mv	a0,s7
   1d44c:	135040ef          	jal	21d80 <__clzsi2>
   1d450:	00050793          	mv	a5,a0
   1d454:	01578713          	add	a4,a5,21 # 800015 <__BSS_END__+0x7dc4f5>
   1d458:	01c00693          	li	a3,28
   1d45c:	02050513          	add	a0,a0,32
   1d460:	fae6dce3          	bge	a3,a4,1d418 <__divdf3+0x1b8>
   1d464:	ff878793          	add	a5,a5,-8
   1d468:	00fb97b3          	sll	a5,s7,a5
   1d46c:	fc9ff06f          	j	1d434 <__divdf3+0x1d4>
   1d470:	0179e6b3          	or	a3,s3,s7
   1d474:	02069263          	bnez	a3,1d498 <__divdf3+0x238>
   1d478:	00000993          	li	s3,0
   1d47c:	7ff00713          	li	a4,2047
   1d480:	00200793          	li	a5,2
   1d484:	ea1ff06f          	j	1d324 <__divdf3+0xc4>
   1d488:	00000993          	li	s3,0
   1d48c:	00000713          	li	a4,0
   1d490:	00100793          	li	a5,1
   1d494:	e91ff06f          	j	1d324 <__divdf3+0xc4>
   1d498:	000b8693          	mv	a3,s7
   1d49c:	7ff00713          	li	a4,2047
   1d4a0:	00300793          	li	a5,3
   1d4a4:	e81ff06f          	j	1d324 <__divdf3+0xc4>
   1d4a8:	01a9e663          	bltu	s3,s10,1d4b4 <__divdf3+0x254>
   1d4ac:	453d1663          	bne	s10,s3,1d8f8 <__divdf3+0x698>
   1d4b0:	44d46463          	bltu	s0,a3,1d8f8 <__divdf3+0x698>
   1d4b4:	01fd1713          	sll	a4,s10,0x1f
   1d4b8:	00145793          	srl	a5,s0,0x1
   1d4bc:	01f41d93          	sll	s11,s0,0x1f
   1d4c0:	001d5d13          	srl	s10,s10,0x1
   1d4c4:	00f76433          	or	s0,a4,a5
   1d4c8:	0186dc13          	srl	s8,a3,0x18
   1d4cc:	00899b13          	sll	s6,s3,0x8
   1d4d0:	016c6c33          	or	s8,s8,s6
   1d4d4:	010b5b13          	srl	s6,s6,0x10
   1d4d8:	000b0593          	mv	a1,s6
   1d4dc:	010c1b93          	sll	s7,s8,0x10
   1d4e0:	000d0513          	mv	a0,s10
   1d4e4:	00869c93          	sll	s9,a3,0x8
   1d4e8:	010bdb93          	srl	s7,s7,0x10
   1d4ec:	7e8040ef          	jal	21cd4 <__hidden___udivsi3>
   1d4f0:	00050593          	mv	a1,a0
   1d4f4:	00050a93          	mv	s5,a0
   1d4f8:	000b8513          	mv	a0,s7
   1d4fc:	7ac040ef          	jal	21ca8 <__mulsi3>
   1d500:	00050993          	mv	s3,a0
   1d504:	000b0593          	mv	a1,s6
   1d508:	000d0513          	mv	a0,s10
   1d50c:	011040ef          	jal	21d1c <__umodsi3>
   1d510:	01051513          	sll	a0,a0,0x10
   1d514:	01045793          	srl	a5,s0,0x10
   1d518:	00a7e7b3          	or	a5,a5,a0
   1d51c:	000a8a13          	mv	s4,s5
   1d520:	0137fe63          	bgeu	a5,s3,1d53c <__divdf3+0x2dc>
   1d524:	00fc07b3          	add	a5,s8,a5
   1d528:	fffa8a13          	add	s4,s5,-1
   1d52c:	0187e863          	bltu	a5,s8,1d53c <__divdf3+0x2dc>
   1d530:	0137f663          	bgeu	a5,s3,1d53c <__divdf3+0x2dc>
   1d534:	ffea8a13          	add	s4,s5,-2
   1d538:	018787b3          	add	a5,a5,s8
   1d53c:	413789b3          	sub	s3,a5,s3
   1d540:	000b0593          	mv	a1,s6
   1d544:	00098513          	mv	a0,s3
   1d548:	78c040ef          	jal	21cd4 <__hidden___udivsi3>
   1d54c:	00050593          	mv	a1,a0
   1d550:	00050d13          	mv	s10,a0
   1d554:	000b8513          	mv	a0,s7
   1d558:	750040ef          	jal	21ca8 <__mulsi3>
   1d55c:	00050a93          	mv	s5,a0
   1d560:	000b0593          	mv	a1,s6
   1d564:	00098513          	mv	a0,s3
   1d568:	7b4040ef          	jal	21d1c <__umodsi3>
   1d56c:	01041793          	sll	a5,s0,0x10
   1d570:	01051513          	sll	a0,a0,0x10
   1d574:	0107d793          	srl	a5,a5,0x10
   1d578:	00a7e7b3          	or	a5,a5,a0
   1d57c:	000d0713          	mv	a4,s10
   1d580:	0157fe63          	bgeu	a5,s5,1d59c <__divdf3+0x33c>
   1d584:	00fc07b3          	add	a5,s8,a5
   1d588:	fffd0713          	add	a4,s10,-1
   1d58c:	0187e863          	bltu	a5,s8,1d59c <__divdf3+0x33c>
   1d590:	0157f663          	bgeu	a5,s5,1d59c <__divdf3+0x33c>
   1d594:	ffed0713          	add	a4,s10,-2
   1d598:	018787b3          	add	a5,a5,s8
   1d59c:	010a1813          	sll	a6,s4,0x10
   1d5a0:	00010eb7          	lui	t4,0x10
   1d5a4:	00e86833          	or	a6,a6,a4
   1d5a8:	fffe8a13          	add	s4,t4,-1 # ffff <exit-0x95>
   1d5ac:	014878b3          	and	a7,a6,s4
   1d5b0:	010cd693          	srl	a3,s9,0x10
   1d5b4:	014cfa33          	and	s4,s9,s4
   1d5b8:	415787b3          	sub	a5,a5,s5
   1d5bc:	01085713          	srl	a4,a6,0x10
   1d5c0:	00d12623          	sw	a3,12(sp)
   1d5c4:	00088513          	mv	a0,a7
   1d5c8:	000a0593          	mv	a1,s4
   1d5cc:	6dc040ef          	jal	21ca8 <__mulsi3>
   1d5d0:	00050313          	mv	t1,a0
   1d5d4:	010cd593          	srl	a1,s9,0x10
   1d5d8:	00088513          	mv	a0,a7
   1d5dc:	6cc040ef          	jal	21ca8 <__mulsi3>
   1d5e0:	00050893          	mv	a7,a0
   1d5e4:	000a0593          	mv	a1,s4
   1d5e8:	00070513          	mv	a0,a4
   1d5ec:	6bc040ef          	jal	21ca8 <__mulsi3>
   1d5f0:	00050e13          	mv	t3,a0
   1d5f4:	010cd593          	srl	a1,s9,0x10
   1d5f8:	00070513          	mv	a0,a4
   1d5fc:	6ac040ef          	jal	21ca8 <__mulsi3>
   1d600:	01035713          	srl	a4,t1,0x10
   1d604:	01c888b3          	add	a7,a7,t3
   1d608:	01170733          	add	a4,a4,a7
   1d60c:	00050613          	mv	a2,a0
   1d610:	01c77463          	bgeu	a4,t3,1d618 <__divdf3+0x3b8>
   1d614:	01d50633          	add	a2,a0,t4
   1d618:	01075693          	srl	a3,a4,0x10
   1d61c:	00c686b3          	add	a3,a3,a2
   1d620:	00010637          	lui	a2,0x10
   1d624:	fff60613          	add	a2,a2,-1 # ffff <exit-0x95>
   1d628:	00c77733          	and	a4,a4,a2
   1d62c:	01071713          	sll	a4,a4,0x10
   1d630:	00c37333          	and	t1,t1,a2
   1d634:	00670733          	add	a4,a4,t1
   1d638:	00d7e863          	bltu	a5,a3,1d648 <__divdf3+0x3e8>
   1d63c:	00080993          	mv	s3,a6
   1d640:	04d79863          	bne	a5,a3,1d690 <__divdf3+0x430>
   1d644:	04edf663          	bgeu	s11,a4,1d690 <__divdf3+0x430>
   1d648:	019d8633          	add	a2,s11,s9
   1d64c:	01b635b3          	sltu	a1,a2,s11
   1d650:	01858533          	add	a0,a1,s8
   1d654:	00a787b3          	add	a5,a5,a0
   1d658:	fff80993          	add	s3,a6,-1
   1d65c:	00060d93          	mv	s11,a2
   1d660:	00fc6663          	bltu	s8,a5,1d66c <__divdf3+0x40c>
   1d664:	02fc1663          	bne	s8,a5,1d690 <__divdf3+0x430>
   1d668:	02059463          	bnez	a1,1d690 <__divdf3+0x430>
   1d66c:	00d7e663          	bltu	a5,a3,1d678 <__divdf3+0x418>
   1d670:	02f69063          	bne	a3,a5,1d690 <__divdf3+0x430>
   1d674:	00e67e63          	bgeu	a2,a4,1d690 <__divdf3+0x430>
   1d678:	00cc8633          	add	a2,s9,a2
   1d67c:	00060d93          	mv	s11,a2
   1d680:	01963633          	sltu	a2,a2,s9
   1d684:	01860633          	add	a2,a2,s8
   1d688:	ffe80993          	add	s3,a6,-2
   1d68c:	00c787b3          	add	a5,a5,a2
   1d690:	40ed8d33          	sub	s10,s11,a4
   1d694:	40d787b3          	sub	a5,a5,a3
   1d698:	01adbdb3          	sltu	s11,s11,s10
   1d69c:	41b78433          	sub	s0,a5,s11
   1d6a0:	fff00693          	li	a3,-1
   1d6a4:	188c0e63          	beq	s8,s0,1d840 <__divdf3+0x5e0>
   1d6a8:	000b0593          	mv	a1,s6
   1d6ac:	00040513          	mv	a0,s0
   1d6b0:	624040ef          	jal	21cd4 <__hidden___udivsi3>
   1d6b4:	00050593          	mv	a1,a0
   1d6b8:	00050a93          	mv	s5,a0
   1d6bc:	000b8513          	mv	a0,s7
   1d6c0:	5e8040ef          	jal	21ca8 <__mulsi3>
   1d6c4:	00050d93          	mv	s11,a0
   1d6c8:	000b0593          	mv	a1,s6
   1d6cc:	00040513          	mv	a0,s0
   1d6d0:	64c040ef          	jal	21d1c <__umodsi3>
   1d6d4:	01051513          	sll	a0,a0,0x10
   1d6d8:	010d5693          	srl	a3,s10,0x10
   1d6dc:	00a6e6b3          	or	a3,a3,a0
   1d6e0:	000a8413          	mv	s0,s5
   1d6e4:	01b6fe63          	bgeu	a3,s11,1d700 <__divdf3+0x4a0>
   1d6e8:	00dc06b3          	add	a3,s8,a3
   1d6ec:	fffa8413          	add	s0,s5,-1
   1d6f0:	0186e863          	bltu	a3,s8,1d700 <__divdf3+0x4a0>
   1d6f4:	01b6f663          	bgeu	a3,s11,1d700 <__divdf3+0x4a0>
   1d6f8:	ffea8413          	add	s0,s5,-2
   1d6fc:	018686b3          	add	a3,a3,s8
   1d700:	41b68ab3          	sub	s5,a3,s11
   1d704:	000b0593          	mv	a1,s6
   1d708:	000a8513          	mv	a0,s5
   1d70c:	5c8040ef          	jal	21cd4 <__hidden___udivsi3>
   1d710:	00050593          	mv	a1,a0
   1d714:	00050d93          	mv	s11,a0
   1d718:	000b8513          	mv	a0,s7
   1d71c:	58c040ef          	jal	21ca8 <__mulsi3>
   1d720:	00050b93          	mv	s7,a0
   1d724:	000b0593          	mv	a1,s6
   1d728:	000a8513          	mv	a0,s5
   1d72c:	5f0040ef          	jal	21d1c <__umodsi3>
   1d730:	010d1793          	sll	a5,s10,0x10
   1d734:	01051513          	sll	a0,a0,0x10
   1d738:	0107d793          	srl	a5,a5,0x10
   1d73c:	00a7e7b3          	or	a5,a5,a0
   1d740:	000d8713          	mv	a4,s11
   1d744:	0177fe63          	bgeu	a5,s7,1d760 <__divdf3+0x500>
   1d748:	00fc07b3          	add	a5,s8,a5
   1d74c:	fffd8713          	add	a4,s11,-1
   1d750:	0187e863          	bltu	a5,s8,1d760 <__divdf3+0x500>
   1d754:	0177f663          	bgeu	a5,s7,1d760 <__divdf3+0x500>
   1d758:	ffed8713          	add	a4,s11,-2
   1d75c:	018787b3          	add	a5,a5,s8
   1d760:	01041813          	sll	a6,s0,0x10
   1d764:	00e86833          	or	a6,a6,a4
   1d768:	01081893          	sll	a7,a6,0x10
   1d76c:	0108d893          	srl	a7,a7,0x10
   1d770:	417787b3          	sub	a5,a5,s7
   1d774:	01085713          	srl	a4,a6,0x10
   1d778:	00088513          	mv	a0,a7
   1d77c:	000a0593          	mv	a1,s4
   1d780:	528040ef          	jal	21ca8 <__mulsi3>
   1d784:	00050313          	mv	t1,a0
   1d788:	010cd593          	srl	a1,s9,0x10
   1d78c:	00088513          	mv	a0,a7
   1d790:	518040ef          	jal	21ca8 <__mulsi3>
   1d794:	00050893          	mv	a7,a0
   1d798:	000a0593          	mv	a1,s4
   1d79c:	00070513          	mv	a0,a4
   1d7a0:	508040ef          	jal	21ca8 <__mulsi3>
   1d7a4:	00050e13          	mv	t3,a0
   1d7a8:	010cd593          	srl	a1,s9,0x10
   1d7ac:	00070513          	mv	a0,a4
   1d7b0:	4f8040ef          	jal	21ca8 <__mulsi3>
   1d7b4:	01035713          	srl	a4,t1,0x10
   1d7b8:	01c888b3          	add	a7,a7,t3
   1d7bc:	01170733          	add	a4,a4,a7
   1d7c0:	00050693          	mv	a3,a0
   1d7c4:	01c77663          	bgeu	a4,t3,1d7d0 <__divdf3+0x570>
   1d7c8:	00010637          	lui	a2,0x10
   1d7cc:	00c506b3          	add	a3,a0,a2
   1d7d0:	01075613          	srl	a2,a4,0x10
   1d7d4:	00d60633          	add	a2,a2,a3
   1d7d8:	000106b7          	lui	a3,0x10
   1d7dc:	fff68693          	add	a3,a3,-1 # ffff <exit-0x95>
   1d7e0:	00d77733          	and	a4,a4,a3
   1d7e4:	01071713          	sll	a4,a4,0x10
   1d7e8:	00d37333          	and	t1,t1,a3
   1d7ec:	00670733          	add	a4,a4,t1
   1d7f0:	00c7e863          	bltu	a5,a2,1d800 <__divdf3+0x5a0>
   1d7f4:	24c79463          	bne	a5,a2,1da3c <__divdf3+0x7dc>
   1d7f8:	00080693          	mv	a3,a6
   1d7fc:	04070263          	beqz	a4,1d840 <__divdf3+0x5e0>
   1d800:	00fc07b3          	add	a5,s8,a5
   1d804:	fff80693          	add	a3,a6,-1
   1d808:	00078593          	mv	a1,a5
   1d80c:	0387e463          	bltu	a5,s8,1d834 <__divdf3+0x5d4>
   1d810:	00c7e663          	bltu	a5,a2,1d81c <__divdf3+0x5bc>
   1d814:	22c79263          	bne	a5,a2,1da38 <__divdf3+0x7d8>
   1d818:	02ecf063          	bgeu	s9,a4,1d838 <__divdf3+0x5d8>
   1d81c:	001c9513          	sll	a0,s9,0x1
   1d820:	019535b3          	sltu	a1,a0,s9
   1d824:	018585b3          	add	a1,a1,s8
   1d828:	ffe80693          	add	a3,a6,-2
   1d82c:	00b785b3          	add	a1,a5,a1
   1d830:	00050c93          	mv	s9,a0
   1d834:	00c59463          	bne	a1,a2,1d83c <__divdf3+0x5dc>
   1d838:	01970463          	beq	a4,s9,1d840 <__divdf3+0x5e0>
   1d83c:	0016e693          	or	a3,a3,1
   1d840:	3ff90713          	add	a4,s2,1023
   1d844:	10e05a63          	blez	a4,1d958 <__divdf3+0x6f8>
   1d848:	0076f793          	and	a5,a3,7
   1d84c:	02078063          	beqz	a5,1d86c <__divdf3+0x60c>
   1d850:	00f6f793          	and	a5,a3,15
   1d854:	00400613          	li	a2,4
   1d858:	00c78a63          	beq	a5,a2,1d86c <__divdf3+0x60c>
   1d85c:	00468793          	add	a5,a3,4
   1d860:	00d7b633          	sltu	a2,a5,a3
   1d864:	00c989b3          	add	s3,s3,a2
   1d868:	00078693          	mv	a3,a5
   1d86c:	00799793          	sll	a5,s3,0x7
   1d870:	0007da63          	bgez	a5,1d884 <__divdf3+0x624>
   1d874:	ff0007b7          	lui	a5,0xff000
   1d878:	fff78793          	add	a5,a5,-1 # feffffff <__BSS_END__+0xfefdc4df>
   1d87c:	00f9f9b3          	and	s3,s3,a5
   1d880:	40090713          	add	a4,s2,1024
   1d884:	7fe00793          	li	a5,2046
   1d888:	0ae7c263          	blt	a5,a4,1d92c <__divdf3+0x6cc>
   1d88c:	0036d693          	srl	a3,a3,0x3
   1d890:	01d99793          	sll	a5,s3,0x1d
   1d894:	00d7e6b3          	or	a3,a5,a3
   1d898:	0039d593          	srl	a1,s3,0x3
   1d89c:	00c59593          	sll	a1,a1,0xc
   1d8a0:	04c12083          	lw	ra,76(sp)
   1d8a4:	04812403          	lw	s0,72(sp)
   1d8a8:	00c5d593          	srl	a1,a1,0xc
   1d8ac:	01471713          	sll	a4,a4,0x14
   1d8b0:	00b76733          	or	a4,a4,a1
   1d8b4:	01f49493          	sll	s1,s1,0x1f
   1d8b8:	009767b3          	or	a5,a4,s1
   1d8bc:	04012903          	lw	s2,64(sp)
   1d8c0:	04412483          	lw	s1,68(sp)
   1d8c4:	03c12983          	lw	s3,60(sp)
   1d8c8:	03812a03          	lw	s4,56(sp)
   1d8cc:	03412a83          	lw	s5,52(sp)
   1d8d0:	03012b03          	lw	s6,48(sp)
   1d8d4:	02c12b83          	lw	s7,44(sp)
   1d8d8:	02812c03          	lw	s8,40(sp)
   1d8dc:	02412c83          	lw	s9,36(sp)
   1d8e0:	02012d03          	lw	s10,32(sp)
   1d8e4:	01c12d83          	lw	s11,28(sp)
   1d8e8:	00068513          	mv	a0,a3
   1d8ec:	00078593          	mv	a1,a5
   1d8f0:	05010113          	add	sp,sp,80
   1d8f4:	00008067          	ret
   1d8f8:	fff90913          	add	s2,s2,-1
   1d8fc:	00000d93          	li	s11,0
   1d900:	bc9ff06f          	j	1d4c8 <__divdf3+0x268>
   1d904:	000a8493          	mv	s1,s5
   1d908:	000d0993          	mv	s3,s10
   1d90c:	00040693          	mv	a3,s0
   1d910:	000b0793          	mv	a5,s6
   1d914:	00300713          	li	a4,3
   1d918:	0ee78863          	beq	a5,a4,1da08 <__divdf3+0x7a8>
   1d91c:	00100713          	li	a4,1
   1d920:	0ee78e63          	beq	a5,a4,1da1c <__divdf3+0x7bc>
   1d924:	00200713          	li	a4,2
   1d928:	f0e79ce3          	bne	a5,a4,1d840 <__divdf3+0x5e0>
   1d92c:	00000593          	li	a1,0
   1d930:	00000693          	li	a3,0
   1d934:	7ff00713          	li	a4,2047
   1d938:	f65ff06f          	j	1d89c <__divdf3+0x63c>
   1d93c:	000a0493          	mv	s1,s4
   1d940:	fd5ff06f          	j	1d914 <__divdf3+0x6b4>
   1d944:	000809b7          	lui	s3,0x80
   1d948:	00000693          	li	a3,0
   1d94c:	00000493          	li	s1,0
   1d950:	00300793          	li	a5,3
   1d954:	fc1ff06f          	j	1d914 <__divdf3+0x6b4>
   1d958:	00100593          	li	a1,1
   1d95c:	40e585b3          	sub	a1,a1,a4
   1d960:	03800793          	li	a5,56
   1d964:	0ab7cc63          	blt	a5,a1,1da1c <__divdf3+0x7bc>
   1d968:	01f00793          	li	a5,31
   1d96c:	06b7c463          	blt	a5,a1,1d9d4 <__divdf3+0x774>
   1d970:	41e90913          	add	s2,s2,1054
   1d974:	012997b3          	sll	a5,s3,s2
   1d978:	00b6d733          	srl	a4,a3,a1
   1d97c:	01269933          	sll	s2,a3,s2
   1d980:	00e7e7b3          	or	a5,a5,a4
   1d984:	01203933          	snez	s2,s2
   1d988:	0127e7b3          	or	a5,a5,s2
   1d98c:	00b9d5b3          	srl	a1,s3,a1
   1d990:	0077f713          	and	a4,a5,7
   1d994:	02070063          	beqz	a4,1d9b4 <__divdf3+0x754>
   1d998:	00f7f713          	and	a4,a5,15
   1d99c:	00400693          	li	a3,4
   1d9a0:	00d70a63          	beq	a4,a3,1d9b4 <__divdf3+0x754>
   1d9a4:	00478713          	add	a4,a5,4
   1d9a8:	00f736b3          	sltu	a3,a4,a5
   1d9ac:	00d585b3          	add	a1,a1,a3
   1d9b0:	00070793          	mv	a5,a4
   1d9b4:	00859713          	sll	a4,a1,0x8
   1d9b8:	06074863          	bltz	a4,1da28 <__divdf3+0x7c8>
   1d9bc:	01d59693          	sll	a3,a1,0x1d
   1d9c0:	0037d793          	srl	a5,a5,0x3
   1d9c4:	00f6e6b3          	or	a3,a3,a5
   1d9c8:	0035d593          	srl	a1,a1,0x3
   1d9cc:	00000713          	li	a4,0
   1d9d0:	ecdff06f          	j	1d89c <__divdf3+0x63c>
   1d9d4:	fe100793          	li	a5,-31
   1d9d8:	40e787b3          	sub	a5,a5,a4
   1d9dc:	02000613          	li	a2,32
   1d9e0:	00f9d7b3          	srl	a5,s3,a5
   1d9e4:	00000713          	li	a4,0
   1d9e8:	00c58663          	beq	a1,a2,1d9f4 <__divdf3+0x794>
   1d9ec:	43e90713          	add	a4,s2,1086
   1d9f0:	00e99733          	sll	a4,s3,a4
   1d9f4:	00d76733          	or	a4,a4,a3
   1d9f8:	00e03733          	snez	a4,a4
   1d9fc:	00e7e7b3          	or	a5,a5,a4
   1da00:	00000593          	li	a1,0
   1da04:	f8dff06f          	j	1d990 <__divdf3+0x730>
   1da08:	000805b7          	lui	a1,0x80
   1da0c:	00000693          	li	a3,0
   1da10:	7ff00713          	li	a4,2047
   1da14:	00000493          	li	s1,0
   1da18:	e85ff06f          	j	1d89c <__divdf3+0x63c>
   1da1c:	00000593          	li	a1,0
   1da20:	00000693          	li	a3,0
   1da24:	fa9ff06f          	j	1d9cc <__divdf3+0x76c>
   1da28:	00000593          	li	a1,0
   1da2c:	00000693          	li	a3,0
   1da30:	00100713          	li	a4,1
   1da34:	e69ff06f          	j	1d89c <__divdf3+0x63c>
   1da38:	00068813          	mv	a6,a3
   1da3c:	00080693          	mv	a3,a6
   1da40:	dfdff06f          	j	1d83c <__divdf3+0x5dc>

0001da44 <__eqdf2>:
   1da44:	0145d713          	srl	a4,a1,0x14
   1da48:	001007b7          	lui	a5,0x100
   1da4c:	fff78793          	add	a5,a5,-1 # fffff <__BSS_END__+0xdc4df>
   1da50:	0146d813          	srl	a6,a3,0x14
   1da54:	00050313          	mv	t1,a0
   1da58:	00050e93          	mv	t4,a0
   1da5c:	7ff77713          	and	a4,a4,2047
   1da60:	7ff00513          	li	a0,2047
   1da64:	00b7f8b3          	and	a7,a5,a1
   1da68:	00060f13          	mv	t5,a2
   1da6c:	00d7f7b3          	and	a5,a5,a3
   1da70:	01f5d593          	srl	a1,a1,0x1f
   1da74:	7ff87813          	and	a6,a6,2047
   1da78:	01f6d693          	srl	a3,a3,0x1f
   1da7c:	00a71c63          	bne	a4,a0,1da94 <__eqdf2+0x50>
   1da80:	0068ee33          	or	t3,a7,t1
   1da84:	00100513          	li	a0,1
   1da88:	000e1463          	bnez	t3,1da90 <__eqdf2+0x4c>
   1da8c:	00e80663          	beq	a6,a4,1da98 <__eqdf2+0x54>
   1da90:	00008067          	ret
   1da94:	00a81863          	bne	a6,a0,1daa4 <__eqdf2+0x60>
   1da98:	00c7e633          	or	a2,a5,a2
   1da9c:	00100513          	li	a0,1
   1daa0:	fe0618e3          	bnez	a2,1da90 <__eqdf2+0x4c>
   1daa4:	00100513          	li	a0,1
   1daa8:	ff0714e3          	bne	a4,a6,1da90 <__eqdf2+0x4c>
   1daac:	fef892e3          	bne	a7,a5,1da90 <__eqdf2+0x4c>
   1dab0:	ffee90e3          	bne	t4,t5,1da90 <__eqdf2+0x4c>
   1dab4:	00d58a63          	beq	a1,a3,1dac8 <__eqdf2+0x84>
   1dab8:	fc071ce3          	bnez	a4,1da90 <__eqdf2+0x4c>
   1dabc:	0068e8b3          	or	a7,a7,t1
   1dac0:	01103533          	snez	a0,a7
   1dac4:	00008067          	ret
   1dac8:	00000513          	li	a0,0
   1dacc:	00008067          	ret

0001dad0 <__gedf2>:
   1dad0:	0146d793          	srl	a5,a3,0x14
   1dad4:	0145d893          	srl	a7,a1,0x14
   1dad8:	00100737          	lui	a4,0x100
   1dadc:	fff70713          	add	a4,a4,-1 # fffff <__BSS_END__+0xdc4df>
   1dae0:	00050813          	mv	a6,a0
   1dae4:	00050e13          	mv	t3,a0
   1dae8:	7ff8f893          	and	a7,a7,2047
   1daec:	7ff7f513          	and	a0,a5,2047
   1daf0:	7ff00793          	li	a5,2047
   1daf4:	00b77333          	and	t1,a4,a1
   1daf8:	00060e93          	mv	t4,a2
   1dafc:	00d77733          	and	a4,a4,a3
   1db00:	01f5d593          	srl	a1,a1,0x1f
   1db04:	01f6d693          	srl	a3,a3,0x1f
   1db08:	00f89663          	bne	a7,a5,1db14 <__gedf2+0x44>
   1db0c:	010367b3          	or	a5,t1,a6
   1db10:	06079c63          	bnez	a5,1db88 <__gedf2+0xb8>
   1db14:	7ff00793          	li	a5,2047
   1db18:	00f51663          	bne	a0,a5,1db24 <__gedf2+0x54>
   1db1c:	00c767b3          	or	a5,a4,a2
   1db20:	06079463          	bnez	a5,1db88 <__gedf2+0xb8>
   1db24:	00000793          	li	a5,0
   1db28:	00089663          	bnez	a7,1db34 <__gedf2+0x64>
   1db2c:	01036833          	or	a6,t1,a6
   1db30:	00183793          	seqz	a5,a6
   1db34:	04051e63          	bnez	a0,1db90 <__gedf2+0xc0>
   1db38:	00c76633          	or	a2,a4,a2
   1db3c:	00078c63          	beqz	a5,1db54 <__gedf2+0x84>
   1db40:	02060063          	beqz	a2,1db60 <__gedf2+0x90>
   1db44:	00100513          	li	a0,1
   1db48:	00069c63          	bnez	a3,1db60 <__gedf2+0x90>
   1db4c:	fff00513          	li	a0,-1
   1db50:	00008067          	ret
   1db54:	04061063          	bnez	a2,1db94 <__gedf2+0xc4>
   1db58:	fff00513          	li	a0,-1
   1db5c:	04058463          	beqz	a1,1dba4 <__gedf2+0xd4>
   1db60:	00008067          	ret
   1db64:	fea8c0e3          	blt	a7,a0,1db44 <__gedf2+0x74>
   1db68:	fe6768e3          	bltu	a4,t1,1db58 <__gedf2+0x88>
   1db6c:	00e31863          	bne	t1,a4,1db7c <__gedf2+0xac>
   1db70:	ffcee4e3          	bltu	t4,t3,1db58 <__gedf2+0x88>
   1db74:	00000513          	li	a0,0
   1db78:	ffde74e3          	bgeu	t3,t4,1db60 <__gedf2+0x90>
   1db7c:	00100513          	li	a0,1
   1db80:	fe0590e3          	bnez	a1,1db60 <__gedf2+0x90>
   1db84:	fc9ff06f          	j	1db4c <__gedf2+0x7c>
   1db88:	ffe00513          	li	a0,-2
   1db8c:	00008067          	ret
   1db90:	fa079ae3          	bnez	a5,1db44 <__gedf2+0x74>
   1db94:	fcb692e3          	bne	a3,a1,1db58 <__gedf2+0x88>
   1db98:	fd1556e3          	bge	a0,a7,1db64 <__gedf2+0x94>
   1db9c:	fff00513          	li	a0,-1
   1dba0:	fc0690e3          	bnez	a3,1db60 <__gedf2+0x90>
   1dba4:	00100513          	li	a0,1
   1dba8:	00008067          	ret

0001dbac <__ledf2>:
   1dbac:	0146d793          	srl	a5,a3,0x14
   1dbb0:	0145d893          	srl	a7,a1,0x14
   1dbb4:	00100737          	lui	a4,0x100
   1dbb8:	fff70713          	add	a4,a4,-1 # fffff <__BSS_END__+0xdc4df>
   1dbbc:	00050813          	mv	a6,a0
   1dbc0:	00050e13          	mv	t3,a0
   1dbc4:	7ff8f893          	and	a7,a7,2047
   1dbc8:	7ff7f513          	and	a0,a5,2047
   1dbcc:	7ff00793          	li	a5,2047
   1dbd0:	00b77333          	and	t1,a4,a1
   1dbd4:	00060e93          	mv	t4,a2
   1dbd8:	00d77733          	and	a4,a4,a3
   1dbdc:	01f5d593          	srl	a1,a1,0x1f
   1dbe0:	01f6d693          	srl	a3,a3,0x1f
   1dbe4:	00f89663          	bne	a7,a5,1dbf0 <__ledf2+0x44>
   1dbe8:	010367b3          	or	a5,t1,a6
   1dbec:	06079c63          	bnez	a5,1dc64 <__ledf2+0xb8>
   1dbf0:	7ff00793          	li	a5,2047
   1dbf4:	00f51663          	bne	a0,a5,1dc00 <__ledf2+0x54>
   1dbf8:	00c767b3          	or	a5,a4,a2
   1dbfc:	06079463          	bnez	a5,1dc64 <__ledf2+0xb8>
   1dc00:	00000793          	li	a5,0
   1dc04:	00089663          	bnez	a7,1dc10 <__ledf2+0x64>
   1dc08:	01036833          	or	a6,t1,a6
   1dc0c:	00183793          	seqz	a5,a6
   1dc10:	04051e63          	bnez	a0,1dc6c <__ledf2+0xc0>
   1dc14:	00c76633          	or	a2,a4,a2
   1dc18:	00078c63          	beqz	a5,1dc30 <__ledf2+0x84>
   1dc1c:	02060063          	beqz	a2,1dc3c <__ledf2+0x90>
   1dc20:	00100513          	li	a0,1
   1dc24:	00069c63          	bnez	a3,1dc3c <__ledf2+0x90>
   1dc28:	fff00513          	li	a0,-1
   1dc2c:	00008067          	ret
   1dc30:	04061063          	bnez	a2,1dc70 <__ledf2+0xc4>
   1dc34:	fff00513          	li	a0,-1
   1dc38:	04058463          	beqz	a1,1dc80 <__ledf2+0xd4>
   1dc3c:	00008067          	ret
   1dc40:	fea8c0e3          	blt	a7,a0,1dc20 <__ledf2+0x74>
   1dc44:	fe6768e3          	bltu	a4,t1,1dc34 <__ledf2+0x88>
   1dc48:	00e31863          	bne	t1,a4,1dc58 <__ledf2+0xac>
   1dc4c:	ffcee4e3          	bltu	t4,t3,1dc34 <__ledf2+0x88>
   1dc50:	00000513          	li	a0,0
   1dc54:	ffde74e3          	bgeu	t3,t4,1dc3c <__ledf2+0x90>
   1dc58:	00100513          	li	a0,1
   1dc5c:	fe0590e3          	bnez	a1,1dc3c <__ledf2+0x90>
   1dc60:	fc9ff06f          	j	1dc28 <__ledf2+0x7c>
   1dc64:	00200513          	li	a0,2
   1dc68:	00008067          	ret
   1dc6c:	fa079ae3          	bnez	a5,1dc20 <__ledf2+0x74>
   1dc70:	fcb692e3          	bne	a3,a1,1dc34 <__ledf2+0x88>
   1dc74:	fd1556e3          	bge	a0,a7,1dc40 <__ledf2+0x94>
   1dc78:	fff00513          	li	a0,-1
   1dc7c:	fc0690e3          	bnez	a3,1dc3c <__ledf2+0x90>
   1dc80:	00100513          	li	a0,1
   1dc84:	00008067          	ret

0001dc88 <__muldf3>:
   1dc88:	fd010113          	add	sp,sp,-48
   1dc8c:	01512a23          	sw	s5,20(sp)
   1dc90:	0145da93          	srl	s5,a1,0x14
   1dc94:	02812423          	sw	s0,40(sp)
   1dc98:	02912223          	sw	s1,36(sp)
   1dc9c:	03212023          	sw	s2,32(sp)
   1dca0:	01312e23          	sw	s3,28(sp)
   1dca4:	01612823          	sw	s6,16(sp)
   1dca8:	00c59493          	sll	s1,a1,0xc
   1dcac:	02112623          	sw	ra,44(sp)
   1dcb0:	01412c23          	sw	s4,24(sp)
   1dcb4:	01712623          	sw	s7,12(sp)
   1dcb8:	7ffafa93          	and	s5,s5,2047
   1dcbc:	00050413          	mv	s0,a0
   1dcc0:	00060b13          	mv	s6,a2
   1dcc4:	00068913          	mv	s2,a3
   1dcc8:	00c4d493          	srl	s1,s1,0xc
   1dccc:	01f5d993          	srl	s3,a1,0x1f
   1dcd0:	300a8e63          	beqz	s5,1dfec <__muldf3+0x364>
   1dcd4:	7ff00793          	li	a5,2047
   1dcd8:	38fa8063          	beq	s5,a5,1e058 <__muldf3+0x3d0>
   1dcdc:	00349493          	sll	s1,s1,0x3
   1dce0:	01d55793          	srl	a5,a0,0x1d
   1dce4:	0097e7b3          	or	a5,a5,s1
   1dce8:	008004b7          	lui	s1,0x800
   1dcec:	0097e4b3          	or	s1,a5,s1
   1dcf0:	00351a13          	sll	s4,a0,0x3
   1dcf4:	c01a8a93          	add	s5,s5,-1023
   1dcf8:	00000b93          	li	s7,0
   1dcfc:	01495713          	srl	a4,s2,0x14
   1dd00:	00c91413          	sll	s0,s2,0xc
   1dd04:	7ff77713          	and	a4,a4,2047
   1dd08:	00c45413          	srl	s0,s0,0xc
   1dd0c:	01f95913          	srl	s2,s2,0x1f
   1dd10:	38070063          	beqz	a4,1e090 <__muldf3+0x408>
   1dd14:	7ff00793          	li	a5,2047
   1dd18:	3ef70463          	beq	a4,a5,1e100 <__muldf3+0x478>
   1dd1c:	00341413          	sll	s0,s0,0x3
   1dd20:	01db5793          	srl	a5,s6,0x1d
   1dd24:	0087e7b3          	or	a5,a5,s0
   1dd28:	00800437          	lui	s0,0x800
   1dd2c:	0087e433          	or	s0,a5,s0
   1dd30:	c0170693          	add	a3,a4,-1023
   1dd34:	003b1793          	sll	a5,s6,0x3
   1dd38:	00000713          	li	a4,0
   1dd3c:	00da8ab3          	add	s5,s5,a3
   1dd40:	002b9693          	sll	a3,s7,0x2
   1dd44:	00e6e6b3          	or	a3,a3,a4
   1dd48:	00a00613          	li	a2,10
   1dd4c:	001a8893          	add	a7,s5,1
   1dd50:	4cd64663          	blt	a2,a3,1e21c <__muldf3+0x594>
   1dd54:	00200613          	li	a2,2
   1dd58:	0129c833          	xor	a6,s3,s2
   1dd5c:	3cd64e63          	blt	a2,a3,1e138 <__muldf3+0x4b0>
   1dd60:	fff68693          	add	a3,a3,-1
   1dd64:	00100613          	li	a2,1
   1dd68:	3ed67a63          	bgeu	a2,a3,1e15c <__muldf3+0x4d4>
   1dd6c:	00010937          	lui	s2,0x10
   1dd70:	fff90713          	add	a4,s2,-1 # ffff <exit-0x95>
   1dd74:	010a5293          	srl	t0,s4,0x10
   1dd78:	00e7ffb3          	and	t6,a5,a4
   1dd7c:	00ea7a33          	and	s4,s4,a4
   1dd80:	0107df13          	srl	t5,a5,0x10
   1dd84:	000a0513          	mv	a0,s4
   1dd88:	000f8593          	mv	a1,t6
   1dd8c:	71d030ef          	jal	21ca8 <__mulsi3>
   1dd90:	00050793          	mv	a5,a0
   1dd94:	000f0593          	mv	a1,t5
   1dd98:	000a0513          	mv	a0,s4
   1dd9c:	70d030ef          	jal	21ca8 <__mulsi3>
   1dda0:	00050e93          	mv	t4,a0
   1dda4:	000f8593          	mv	a1,t6
   1dda8:	00028513          	mv	a0,t0
   1ddac:	6fd030ef          	jal	21ca8 <__mulsi3>
   1ddb0:	00050393          	mv	t2,a0
   1ddb4:	000f0593          	mv	a1,t5
   1ddb8:	00028513          	mv	a0,t0
   1ddbc:	6ed030ef          	jal	21ca8 <__mulsi3>
   1ddc0:	0107d313          	srl	t1,a5,0x10
   1ddc4:	007e8eb3          	add	t4,t4,t2
   1ddc8:	01d30333          	add	t1,t1,t4
   1ddcc:	00050e13          	mv	t3,a0
   1ddd0:	00737463          	bgeu	t1,t2,1ddd8 <__muldf3+0x150>
   1ddd4:	01250e33          	add	t3,a0,s2
   1ddd8:	01035993          	srl	s3,t1,0x10
   1dddc:	00e37333          	and	t1,t1,a4
   1dde0:	00e7f7b3          	and	a5,a5,a4
   1dde4:	01031313          	sll	t1,t1,0x10
   1dde8:	00e47733          	and	a4,s0,a4
   1ddec:	00f30333          	add	t1,t1,a5
   1ddf0:	01045913          	srl	s2,s0,0x10
   1ddf4:	000a0513          	mv	a0,s4
   1ddf8:	00070593          	mv	a1,a4
   1ddfc:	6ad030ef          	jal	21ca8 <__mulsi3>
   1de00:	00050393          	mv	t2,a0
   1de04:	00090593          	mv	a1,s2
   1de08:	000a0513          	mv	a0,s4
   1de0c:	69d030ef          	jal	21ca8 <__mulsi3>
   1de10:	00050e93          	mv	t4,a0
   1de14:	00070593          	mv	a1,a4
   1de18:	00028513          	mv	a0,t0
   1de1c:	68d030ef          	jal	21ca8 <__mulsi3>
   1de20:	00050413          	mv	s0,a0
   1de24:	00090593          	mv	a1,s2
   1de28:	00028513          	mv	a0,t0
   1de2c:	67d030ef          	jal	21ca8 <__mulsi3>
   1de30:	0103d613          	srl	a2,t2,0x10
   1de34:	008e8eb3          	add	t4,t4,s0
   1de38:	01d60633          	add	a2,a2,t4
   1de3c:	00050793          	mv	a5,a0
   1de40:	00867663          	bgeu	a2,s0,1de4c <__muldf3+0x1c4>
   1de44:	000106b7          	lui	a3,0x10
   1de48:	00d507b3          	add	a5,a0,a3
   1de4c:	00010a37          	lui	s4,0x10
   1de50:	fffa0e93          	add	t4,s4,-1 # ffff <exit-0x95>
   1de54:	01065293          	srl	t0,a2,0x10
   1de58:	00f282b3          	add	t0,t0,a5
   1de5c:	01d677b3          	and	a5,a2,t4
   1de60:	01d3f3b3          	and	t2,t2,t4
   1de64:	01079793          	sll	a5,a5,0x10
   1de68:	007787b3          	add	a5,a5,t2
   1de6c:	01d4feb3          	and	t4,s1,t4
   1de70:	00f98433          	add	s0,s3,a5
   1de74:	000e8513          	mv	a0,t4
   1de78:	0104d993          	srl	s3,s1,0x10
   1de7c:	000f8593          	mv	a1,t6
   1de80:	629030ef          	jal	21ca8 <__mulsi3>
   1de84:	00050493          	mv	s1,a0
   1de88:	000f0593          	mv	a1,t5
   1de8c:	000e8513          	mv	a0,t4
   1de90:	619030ef          	jal	21ca8 <__mulsi3>
   1de94:	00050393          	mv	t2,a0
   1de98:	000f8593          	mv	a1,t6
   1de9c:	00098513          	mv	a0,s3
   1dea0:	609030ef          	jal	21ca8 <__mulsi3>
   1dea4:	00050f93          	mv	t6,a0
   1dea8:	000f0593          	mv	a1,t5
   1deac:	00098513          	mv	a0,s3
   1deb0:	5f9030ef          	jal	21ca8 <__mulsi3>
   1deb4:	0104d613          	srl	a2,s1,0x10
   1deb8:	01f383b3          	add	t2,t2,t6
   1debc:	00760633          	add	a2,a2,t2
   1dec0:	00050693          	mv	a3,a0
   1dec4:	01f67463          	bgeu	a2,t6,1decc <__muldf3+0x244>
   1dec8:	014506b3          	add	a3,a0,s4
   1decc:	00010a37          	lui	s4,0x10
   1ded0:	fffa0393          	add	t2,s4,-1 # ffff <exit-0x95>
   1ded4:	01065f93          	srl	t6,a2,0x10
   1ded8:	00767633          	and	a2,a2,t2
   1dedc:	01061613          	sll	a2,a2,0x10
   1dee0:	0074f4b3          	and	s1,s1,t2
   1dee4:	00df8fb3          	add	t6,t6,a3
   1dee8:	00960f33          	add	t5,a2,s1
   1deec:	000e8513          	mv	a0,t4
   1def0:	00070593          	mv	a1,a4
   1def4:	5b5030ef          	jal	21ca8 <__mulsi3>
   1def8:	00050493          	mv	s1,a0
   1defc:	00090593          	mv	a1,s2
   1df00:	000e8513          	mv	a0,t4
   1df04:	5a5030ef          	jal	21ca8 <__mulsi3>
   1df08:	00050b13          	mv	s6,a0
   1df0c:	00070593          	mv	a1,a4
   1df10:	00098513          	mv	a0,s3
   1df14:	595030ef          	jal	21ca8 <__mulsi3>
   1df18:	00050713          	mv	a4,a0
   1df1c:	00090593          	mv	a1,s2
   1df20:	00098513          	mv	a0,s3
   1df24:	585030ef          	jal	21ca8 <__mulsi3>
   1df28:	0104d593          	srl	a1,s1,0x10
   1df2c:	00eb0b33          	add	s6,s6,a4
   1df30:	016585b3          	add	a1,a1,s6
   1df34:	00050e93          	mv	t4,a0
   1df38:	00e5f463          	bgeu	a1,a4,1df40 <__muldf3+0x2b8>
   1df3c:	01450eb3          	add	t4,a0,s4
   1df40:	0075f733          	and	a4,a1,t2
   1df44:	01071713          	sll	a4,a4,0x10
   1df48:	0074f4b3          	and	s1,s1,t2
   1df4c:	008e06b3          	add	a3,t3,s0
   1df50:	00970733          	add	a4,a4,s1
   1df54:	005702b3          	add	t0,a4,t0
   1df58:	00f6b7b3          	sltu	a5,a3,a5
   1df5c:	00f287b3          	add	a5,t0,a5
   1df60:	00e2b633          	sltu	a2,t0,a4
   1df64:	0057b2b3          	sltu	t0,a5,t0
   1df68:	0105d593          	srl	a1,a1,0x10
   1df6c:	00566633          	or	a2,a2,t0
   1df70:	00b60633          	add	a2,a2,a1
   1df74:	01e685b3          	add	a1,a3,t5
   1df78:	01f78fb3          	add	t6,a5,t6
   1df7c:	00d5b6b3          	sltu	a3,a1,a3
   1df80:	00df86b3          	add	a3,t6,a3
   1df84:	00ffb733          	sltu	a4,t6,a5
   1df88:	01f6bfb3          	sltu	t6,a3,t6
   1df8c:	00959793          	sll	a5,a1,0x9
   1df90:	01f76733          	or	a4,a4,t6
   1df94:	00c70733          	add	a4,a4,a2
   1df98:	0067e7b3          	or	a5,a5,t1
   1df9c:	01d70733          	add	a4,a4,t4
   1dfa0:	00f037b3          	snez	a5,a5
   1dfa4:	0175d593          	srl	a1,a1,0x17
   1dfa8:	00971713          	sll	a4,a4,0x9
   1dfac:	0176d413          	srl	s0,a3,0x17
   1dfb0:	00b7e7b3          	or	a5,a5,a1
   1dfb4:	00969693          	sll	a3,a3,0x9
   1dfb8:	00d7e7b3          	or	a5,a5,a3
   1dfbc:	00771693          	sll	a3,a4,0x7
   1dfc0:	00876433          	or	s0,a4,s0
   1dfc4:	0206d063          	bgez	a3,1dfe4 <__muldf3+0x35c>
   1dfc8:	0017d713          	srl	a4,a5,0x1
   1dfcc:	0017f793          	and	a5,a5,1
   1dfd0:	00f76733          	or	a4,a4,a5
   1dfd4:	01f41793          	sll	a5,s0,0x1f
   1dfd8:	00f767b3          	or	a5,a4,a5
   1dfdc:	00145413          	srl	s0,s0,0x1
   1dfe0:	00088a93          	mv	s5,a7
   1dfe4:	000a8893          	mv	a7,s5
   1dfe8:	18c0006f          	j	1e174 <__muldf3+0x4ec>
   1dfec:	00a4ea33          	or	s4,s1,a0
   1dff0:	080a0063          	beqz	s4,1e070 <__muldf3+0x3e8>
   1dff4:	04048063          	beqz	s1,1e034 <__muldf3+0x3ac>
   1dff8:	00048513          	mv	a0,s1
   1dffc:	585030ef          	jal	21d80 <__clzsi2>
   1e000:	ff550713          	add	a4,a0,-11
   1e004:	01d00793          	li	a5,29
   1e008:	ff850693          	add	a3,a0,-8
   1e00c:	40e787b3          	sub	a5,a5,a4
   1e010:	00d494b3          	sll	s1,s1,a3
   1e014:	00f457b3          	srl	a5,s0,a5
   1e018:	0097e7b3          	or	a5,a5,s1
   1e01c:	00d414b3          	sll	s1,s0,a3
   1e020:	c0d00a93          	li	s5,-1011
   1e024:	00048a13          	mv	s4,s1
   1e028:	40aa8ab3          	sub	s5,s5,a0
   1e02c:	00078493          	mv	s1,a5
   1e030:	cc9ff06f          	j	1dcf8 <__muldf3+0x70>
   1e034:	54d030ef          	jal	21d80 <__clzsi2>
   1e038:	00050793          	mv	a5,a0
   1e03c:	01578713          	add	a4,a5,21
   1e040:	01c00693          	li	a3,28
   1e044:	02050513          	add	a0,a0,32
   1e048:	fae6dee3          	bge	a3,a4,1e004 <__muldf3+0x37c>
   1e04c:	ff878793          	add	a5,a5,-8
   1e050:	00f417b3          	sll	a5,s0,a5
   1e054:	fcdff06f          	j	1e020 <__muldf3+0x398>
   1e058:	00a4ea33          	or	s4,s1,a0
   1e05c:	020a1263          	bnez	s4,1e080 <__muldf3+0x3f8>
   1e060:	00000493          	li	s1,0
   1e064:	7ff00a93          	li	s5,2047
   1e068:	00200b93          	li	s7,2
   1e06c:	c91ff06f          	j	1dcfc <__muldf3+0x74>
   1e070:	00000493          	li	s1,0
   1e074:	00000a93          	li	s5,0
   1e078:	00100b93          	li	s7,1
   1e07c:	c81ff06f          	j	1dcfc <__muldf3+0x74>
   1e080:	00050a13          	mv	s4,a0
   1e084:	7ff00a93          	li	s5,2047
   1e088:	00300b93          	li	s7,3
   1e08c:	c71ff06f          	j	1dcfc <__muldf3+0x74>
   1e090:	016467b3          	or	a5,s0,s6
   1e094:	08078263          	beqz	a5,1e118 <__muldf3+0x490>
   1e098:	04040063          	beqz	s0,1e0d8 <__muldf3+0x450>
   1e09c:	00040513          	mv	a0,s0
   1e0a0:	4e1030ef          	jal	21d80 <__clzsi2>
   1e0a4:	ff550693          	add	a3,a0,-11
   1e0a8:	01d00713          	li	a4,29
   1e0ac:	ff850793          	add	a5,a0,-8
   1e0b0:	40d70733          	sub	a4,a4,a3
   1e0b4:	00f41433          	sll	s0,s0,a5
   1e0b8:	00eb5733          	srl	a4,s6,a4
   1e0bc:	00876733          	or	a4,a4,s0
   1e0c0:	00fb1433          	sll	s0,s6,a5
   1e0c4:	c0d00693          	li	a3,-1011
   1e0c8:	00040793          	mv	a5,s0
   1e0cc:	40a686b3          	sub	a3,a3,a0
   1e0d0:	00070413          	mv	s0,a4
   1e0d4:	c65ff06f          	j	1dd38 <__muldf3+0xb0>
   1e0d8:	000b0513          	mv	a0,s6
   1e0dc:	4a5030ef          	jal	21d80 <__clzsi2>
   1e0e0:	00050793          	mv	a5,a0
   1e0e4:	01578693          	add	a3,a5,21
   1e0e8:	01c00713          	li	a4,28
   1e0ec:	02050513          	add	a0,a0,32
   1e0f0:	fad75ce3          	bge	a4,a3,1e0a8 <__muldf3+0x420>
   1e0f4:	ff878793          	add	a5,a5,-8
   1e0f8:	00fb1733          	sll	a4,s6,a5
   1e0fc:	fc9ff06f          	j	1e0c4 <__muldf3+0x43c>
   1e100:	016467b3          	or	a5,s0,s6
   1e104:	02079263          	bnez	a5,1e128 <__muldf3+0x4a0>
   1e108:	00000413          	li	s0,0
   1e10c:	7ff00693          	li	a3,2047
   1e110:	00200713          	li	a4,2
   1e114:	c29ff06f          	j	1dd3c <__muldf3+0xb4>
   1e118:	00000413          	li	s0,0
   1e11c:	00000693          	li	a3,0
   1e120:	00100713          	li	a4,1
   1e124:	c19ff06f          	j	1dd3c <__muldf3+0xb4>
   1e128:	000b0793          	mv	a5,s6
   1e12c:	7ff00693          	li	a3,2047
   1e130:	00300713          	li	a4,3
   1e134:	c09ff06f          	j	1dd3c <__muldf3+0xb4>
   1e138:	00100613          	li	a2,1
   1e13c:	00d61633          	sll	a2,a2,a3
   1e140:	53067693          	and	a3,a2,1328
   1e144:	0e069663          	bnez	a3,1e230 <__muldf3+0x5a8>
   1e148:	24067593          	and	a1,a2,576
   1e14c:	1a059a63          	bnez	a1,1e300 <__muldf3+0x678>
   1e150:	08867613          	and	a2,a2,136
   1e154:	c0060ce3          	beqz	a2,1dd6c <__muldf3+0xe4>
   1e158:	00090813          	mv	a6,s2
   1e15c:	00200693          	li	a3,2
   1e160:	18d70863          	beq	a4,a3,1e2f0 <__muldf3+0x668>
   1e164:	00300693          	li	a3,3
   1e168:	1ad70463          	beq	a4,a3,1e310 <__muldf3+0x688>
   1e16c:	00100693          	li	a3,1
   1e170:	1ad70663          	beq	a4,a3,1e31c <__muldf3+0x694>
   1e174:	3ff88613          	add	a2,a7,1023
   1e178:	0cc05463          	blez	a2,1e240 <__muldf3+0x5b8>
   1e17c:	0077f713          	and	a4,a5,7
   1e180:	02070063          	beqz	a4,1e1a0 <__muldf3+0x518>
   1e184:	00f7f713          	and	a4,a5,15
   1e188:	00400693          	li	a3,4
   1e18c:	00d70a63          	beq	a4,a3,1e1a0 <__muldf3+0x518>
   1e190:	00478713          	add	a4,a5,4
   1e194:	00f736b3          	sltu	a3,a4,a5
   1e198:	00d40433          	add	s0,s0,a3
   1e19c:	00070793          	mv	a5,a4
   1e1a0:	00741713          	sll	a4,s0,0x7
   1e1a4:	00075a63          	bgez	a4,1e1b8 <__muldf3+0x530>
   1e1a8:	ff000737          	lui	a4,0xff000
   1e1ac:	fff70713          	add	a4,a4,-1 # feffffff <__BSS_END__+0xfefdc4df>
   1e1b0:	00e47433          	and	s0,s0,a4
   1e1b4:	40088613          	add	a2,a7,1024
   1e1b8:	7fe00713          	li	a4,2046
   1e1bc:	12c74a63          	blt	a4,a2,1e2f0 <__muldf3+0x668>
   1e1c0:	0037d793          	srl	a5,a5,0x3
   1e1c4:	01d41693          	sll	a3,s0,0x1d
   1e1c8:	00f6e6b3          	or	a3,a3,a5
   1e1cc:	00345713          	srl	a4,s0,0x3
   1e1d0:	00c71713          	sll	a4,a4,0xc
   1e1d4:	02c12083          	lw	ra,44(sp)
   1e1d8:	02812403          	lw	s0,40(sp)
   1e1dc:	01461613          	sll	a2,a2,0x14
   1e1e0:	00c75713          	srl	a4,a4,0xc
   1e1e4:	00e66633          	or	a2,a2,a4
   1e1e8:	01f81813          	sll	a6,a6,0x1f
   1e1ec:	010667b3          	or	a5,a2,a6
   1e1f0:	02412483          	lw	s1,36(sp)
   1e1f4:	02012903          	lw	s2,32(sp)
   1e1f8:	01c12983          	lw	s3,28(sp)
   1e1fc:	01812a03          	lw	s4,24(sp)
   1e200:	01412a83          	lw	s5,20(sp)
   1e204:	01012b03          	lw	s6,16(sp)
   1e208:	00c12b83          	lw	s7,12(sp)
   1e20c:	00068513          	mv	a0,a3
   1e210:	00078593          	mv	a1,a5
   1e214:	03010113          	add	sp,sp,48
   1e218:	00008067          	ret
   1e21c:	00f00613          	li	a2,15
   1e220:	0ec68863          	beq	a3,a2,1e310 <__muldf3+0x688>
   1e224:	00b00613          	li	a2,11
   1e228:	00098813          	mv	a6,s3
   1e22c:	f2c686e3          	beq	a3,a2,1e158 <__muldf3+0x4d0>
   1e230:	00048413          	mv	s0,s1
   1e234:	000a0793          	mv	a5,s4
   1e238:	000b8713          	mv	a4,s7
   1e23c:	f21ff06f          	j	1e15c <__muldf3+0x4d4>
   1e240:	00100713          	li	a4,1
   1e244:	40c70733          	sub	a4,a4,a2
   1e248:	03800693          	li	a3,56
   1e24c:	0ce6c863          	blt	a3,a4,1e31c <__muldf3+0x694>
   1e250:	01f00693          	li	a3,31
   1e254:	06e6c463          	blt	a3,a4,1e2bc <__muldf3+0x634>
   1e258:	41e88893          	add	a7,a7,1054
   1e25c:	00e7d633          	srl	a2,a5,a4
   1e260:	011416b3          	sll	a3,s0,a7
   1e264:	011798b3          	sll	a7,a5,a7
   1e268:	00c6e6b3          	or	a3,a3,a2
   1e26c:	011038b3          	snez	a7,a7
   1e270:	0116e7b3          	or	a5,a3,a7
   1e274:	00e45733          	srl	a4,s0,a4
   1e278:	0077f693          	and	a3,a5,7
   1e27c:	02068063          	beqz	a3,1e29c <__muldf3+0x614>
   1e280:	00f7f693          	and	a3,a5,15
   1e284:	00400613          	li	a2,4
   1e288:	00c68a63          	beq	a3,a2,1e29c <__muldf3+0x614>
   1e28c:	00478693          	add	a3,a5,4
   1e290:	00f6b633          	sltu	a2,a3,a5
   1e294:	00c70733          	add	a4,a4,a2
   1e298:	00068793          	mv	a5,a3
   1e29c:	00871693          	sll	a3,a4,0x8
   1e2a0:	0806c463          	bltz	a3,1e328 <__muldf3+0x6a0>
   1e2a4:	01d71693          	sll	a3,a4,0x1d
   1e2a8:	0037d793          	srl	a5,a5,0x3
   1e2ac:	00f6e6b3          	or	a3,a3,a5
   1e2b0:	00375713          	srl	a4,a4,0x3
   1e2b4:	00000613          	li	a2,0
   1e2b8:	f19ff06f          	j	1e1d0 <__muldf3+0x548>
   1e2bc:	fe100693          	li	a3,-31
   1e2c0:	40c686b3          	sub	a3,a3,a2
   1e2c4:	02000593          	li	a1,32
   1e2c8:	00d456b3          	srl	a3,s0,a3
   1e2cc:	00000613          	li	a2,0
   1e2d0:	00b70663          	beq	a4,a1,1e2dc <__muldf3+0x654>
   1e2d4:	43e88613          	add	a2,a7,1086
   1e2d8:	00c41633          	sll	a2,s0,a2
   1e2dc:	00f66633          	or	a2,a2,a5
   1e2e0:	00c03633          	snez	a2,a2
   1e2e4:	00c6e7b3          	or	a5,a3,a2
   1e2e8:	00000713          	li	a4,0
   1e2ec:	f8dff06f          	j	1e278 <__muldf3+0x5f0>
   1e2f0:	00000713          	li	a4,0
   1e2f4:	00000693          	li	a3,0
   1e2f8:	7ff00613          	li	a2,2047
   1e2fc:	ed5ff06f          	j	1e1d0 <__muldf3+0x548>
   1e300:	00080737          	lui	a4,0x80
   1e304:	7ff00613          	li	a2,2047
   1e308:	00000813          	li	a6,0
   1e30c:	ec5ff06f          	j	1e1d0 <__muldf3+0x548>
   1e310:	00080737          	lui	a4,0x80
   1e314:	00000693          	li	a3,0
   1e318:	fedff06f          	j	1e304 <__muldf3+0x67c>
   1e31c:	00000713          	li	a4,0
   1e320:	00000693          	li	a3,0
   1e324:	f91ff06f          	j	1e2b4 <__muldf3+0x62c>
   1e328:	00000713          	li	a4,0
   1e32c:	00000693          	li	a3,0
   1e330:	00100613          	li	a2,1
   1e334:	e9dff06f          	j	1e1d0 <__muldf3+0x548>

0001e338 <__subdf3>:
   1e338:	00100837          	lui	a6,0x100
   1e33c:	fff80813          	add	a6,a6,-1 # fffff <__BSS_END__+0xdc4df>
   1e340:	fe010113          	add	sp,sp,-32
   1e344:	00b878b3          	and	a7,a6,a1
   1e348:	0145d713          	srl	a4,a1,0x14
   1e34c:	01d55793          	srl	a5,a0,0x1d
   1e350:	00d87833          	and	a6,a6,a3
   1e354:	01212823          	sw	s2,16(sp)
   1e358:	7ff77913          	and	s2,a4,2047
   1e35c:	00389713          	sll	a4,a7,0x3
   1e360:	0146d893          	srl	a7,a3,0x14
   1e364:	00912a23          	sw	s1,20(sp)
   1e368:	00e7e7b3          	or	a5,a5,a4
   1e36c:	01f5d493          	srl	s1,a1,0x1f
   1e370:	01d65713          	srl	a4,a2,0x1d
   1e374:	00381813          	sll	a6,a6,0x3
   1e378:	00112e23          	sw	ra,28(sp)
   1e37c:	00812c23          	sw	s0,24(sp)
   1e380:	01312623          	sw	s3,12(sp)
   1e384:	7ff8f893          	and	a7,a7,2047
   1e388:	7ff00593          	li	a1,2047
   1e38c:	00351513          	sll	a0,a0,0x3
   1e390:	01f6d693          	srl	a3,a3,0x1f
   1e394:	01076733          	or	a4,a4,a6
   1e398:	00361613          	sll	a2,a2,0x3
   1e39c:	00b89663          	bne	a7,a1,1e3a8 <__subdf3+0x70>
   1e3a0:	00c765b3          	or	a1,a4,a2
   1e3a4:	00059463          	bnez	a1,1e3ac <__subdf3+0x74>
   1e3a8:	0016c693          	xor	a3,a3,1
   1e3ac:	41190833          	sub	a6,s2,a7
   1e3b0:	2a969a63          	bne	a3,s1,1e664 <__subdf3+0x32c>
   1e3b4:	11005c63          	blez	a6,1e4cc <__subdf3+0x194>
   1e3b8:	04089063          	bnez	a7,1e3f8 <__subdf3+0xc0>
   1e3bc:	00c766b3          	or	a3,a4,a2
   1e3c0:	66068063          	beqz	a3,1ea20 <__subdf3+0x6e8>
   1e3c4:	fff80593          	add	a1,a6,-1
   1e3c8:	02059063          	bnez	a1,1e3e8 <__subdf3+0xb0>
   1e3cc:	00c50633          	add	a2,a0,a2
   1e3d0:	00a636b3          	sltu	a3,a2,a0
   1e3d4:	00e78733          	add	a4,a5,a4
   1e3d8:	00060513          	mv	a0,a2
   1e3dc:	00d707b3          	add	a5,a4,a3
   1e3e0:	00100913          	li	s2,1
   1e3e4:	06c0006f          	j	1e450 <__subdf3+0x118>
   1e3e8:	7ff00693          	li	a3,2047
   1e3ec:	02d81063          	bne	a6,a3,1e40c <__subdf3+0xd4>
   1e3f0:	7ff00913          	li	s2,2047
   1e3f4:	1f80006f          	j	1e5ec <__subdf3+0x2b4>
   1e3f8:	7ff00693          	li	a3,2047
   1e3fc:	1ed90863          	beq	s2,a3,1e5ec <__subdf3+0x2b4>
   1e400:	008006b7          	lui	a3,0x800
   1e404:	00d76733          	or	a4,a4,a3
   1e408:	00080593          	mv	a1,a6
   1e40c:	03800693          	li	a3,56
   1e410:	0ab6c863          	blt	a3,a1,1e4c0 <__subdf3+0x188>
   1e414:	01f00693          	li	a3,31
   1e418:	06b6ca63          	blt	a3,a1,1e48c <__subdf3+0x154>
   1e41c:	02000813          	li	a6,32
   1e420:	40b80833          	sub	a6,a6,a1
   1e424:	010716b3          	sll	a3,a4,a6
   1e428:	00b658b3          	srl	a7,a2,a1
   1e42c:	01061833          	sll	a6,a2,a6
   1e430:	0116e6b3          	or	a3,a3,a7
   1e434:	01003833          	snez	a6,a6
   1e438:	0106e6b3          	or	a3,a3,a6
   1e43c:	00b755b3          	srl	a1,a4,a1
   1e440:	00a68533          	add	a0,a3,a0
   1e444:	00f585b3          	add	a1,a1,a5
   1e448:	00d536b3          	sltu	a3,a0,a3
   1e44c:	00d587b3          	add	a5,a1,a3
   1e450:	00879713          	sll	a4,a5,0x8
   1e454:	18075c63          	bgez	a4,1e5ec <__subdf3+0x2b4>
   1e458:	00190913          	add	s2,s2,1
   1e45c:	7ff00713          	li	a4,2047
   1e460:	5ae90a63          	beq	s2,a4,1ea14 <__subdf3+0x6dc>
   1e464:	ff800737          	lui	a4,0xff800
   1e468:	fff70713          	add	a4,a4,-1 # ff7fffff <__BSS_END__+0xff7dc4df>
   1e46c:	00e7f733          	and	a4,a5,a4
   1e470:	00155793          	srl	a5,a0,0x1
   1e474:	00157513          	and	a0,a0,1
   1e478:	00a7e7b3          	or	a5,a5,a0
   1e47c:	01f71513          	sll	a0,a4,0x1f
   1e480:	00f56533          	or	a0,a0,a5
   1e484:	00175793          	srl	a5,a4,0x1
   1e488:	1640006f          	j	1e5ec <__subdf3+0x2b4>
   1e48c:	fe058693          	add	a3,a1,-32 # 7ffe0 <__BSS_END__+0x5c4c0>
   1e490:	02000893          	li	a7,32
   1e494:	00d756b3          	srl	a3,a4,a3
   1e498:	00000813          	li	a6,0
   1e49c:	01158863          	beq	a1,a7,1e4ac <__subdf3+0x174>
   1e4a0:	04000813          	li	a6,64
   1e4a4:	40b80833          	sub	a6,a6,a1
   1e4a8:	01071833          	sll	a6,a4,a6
   1e4ac:	00c86833          	or	a6,a6,a2
   1e4b0:	01003833          	snez	a6,a6
   1e4b4:	0106e6b3          	or	a3,a3,a6
   1e4b8:	00000593          	li	a1,0
   1e4bc:	f85ff06f          	j	1e440 <__subdf3+0x108>
   1e4c0:	00c766b3          	or	a3,a4,a2
   1e4c4:	00d036b3          	snez	a3,a3
   1e4c8:	ff1ff06f          	j	1e4b8 <__subdf3+0x180>
   1e4cc:	0c080a63          	beqz	a6,1e5a0 <__subdf3+0x268>
   1e4d0:	412886b3          	sub	a3,a7,s2
   1e4d4:	02091463          	bnez	s2,1e4fc <__subdf3+0x1c4>
   1e4d8:	00a7e5b3          	or	a1,a5,a0
   1e4dc:	50058e63          	beqz	a1,1e9f8 <__subdf3+0x6c0>
   1e4e0:	fff68593          	add	a1,a3,-1 # 7fffff <__BSS_END__+0x7dc4df>
   1e4e4:	ee0584e3          	beqz	a1,1e3cc <__subdf3+0x94>
   1e4e8:	7ff00813          	li	a6,2047
   1e4ec:	03069263          	bne	a3,a6,1e510 <__subdf3+0x1d8>
   1e4f0:	00070793          	mv	a5,a4
   1e4f4:	00060513          	mv	a0,a2
   1e4f8:	ef9ff06f          	j	1e3f0 <__subdf3+0xb8>
   1e4fc:	7ff00593          	li	a1,2047
   1e500:	feb888e3          	beq	a7,a1,1e4f0 <__subdf3+0x1b8>
   1e504:	008005b7          	lui	a1,0x800
   1e508:	00b7e7b3          	or	a5,a5,a1
   1e50c:	00068593          	mv	a1,a3
   1e510:	03800693          	li	a3,56
   1e514:	08b6c063          	blt	a3,a1,1e594 <__subdf3+0x25c>
   1e518:	01f00693          	li	a3,31
   1e51c:	04b6c263          	blt	a3,a1,1e560 <__subdf3+0x228>
   1e520:	02000813          	li	a6,32
   1e524:	40b80833          	sub	a6,a6,a1
   1e528:	010796b3          	sll	a3,a5,a6
   1e52c:	00b55333          	srl	t1,a0,a1
   1e530:	01051833          	sll	a6,a0,a6
   1e534:	0066e6b3          	or	a3,a3,t1
   1e538:	01003833          	snez	a6,a6
   1e53c:	0106e6b3          	or	a3,a3,a6
   1e540:	00b7d5b3          	srl	a1,a5,a1
   1e544:	00c68633          	add	a2,a3,a2
   1e548:	00e585b3          	add	a1,a1,a4
   1e54c:	00d636b3          	sltu	a3,a2,a3
   1e550:	00060513          	mv	a0,a2
   1e554:	00d587b3          	add	a5,a1,a3
   1e558:	00088913          	mv	s2,a7
   1e55c:	ef5ff06f          	j	1e450 <__subdf3+0x118>
   1e560:	fe058693          	add	a3,a1,-32 # 7fffe0 <__BSS_END__+0x7dc4c0>
   1e564:	02000313          	li	t1,32
   1e568:	00d7d6b3          	srl	a3,a5,a3
   1e56c:	00000813          	li	a6,0
   1e570:	00658863          	beq	a1,t1,1e580 <__subdf3+0x248>
   1e574:	04000813          	li	a6,64
   1e578:	40b80833          	sub	a6,a6,a1
   1e57c:	01079833          	sll	a6,a5,a6
   1e580:	00a86833          	or	a6,a6,a0
   1e584:	01003833          	snez	a6,a6
   1e588:	0106e6b3          	or	a3,a3,a6
   1e58c:	00000593          	li	a1,0
   1e590:	fb5ff06f          	j	1e544 <__subdf3+0x20c>
   1e594:	00a7e6b3          	or	a3,a5,a0
   1e598:	00d036b3          	snez	a3,a3
   1e59c:	ff1ff06f          	j	1e58c <__subdf3+0x254>
   1e5a0:	00190693          	add	a3,s2,1
   1e5a4:	7fe6f593          	and	a1,a3,2046
   1e5a8:	08059663          	bnez	a1,1e634 <__subdf3+0x2fc>
   1e5ac:	00a7e6b3          	or	a3,a5,a0
   1e5b0:	06091263          	bnez	s2,1e614 <__subdf3+0x2dc>
   1e5b4:	44068863          	beqz	a3,1ea04 <__subdf3+0x6cc>
   1e5b8:	00c766b3          	or	a3,a4,a2
   1e5bc:	02068863          	beqz	a3,1e5ec <__subdf3+0x2b4>
   1e5c0:	00c50633          	add	a2,a0,a2
   1e5c4:	00a636b3          	sltu	a3,a2,a0
   1e5c8:	00e78733          	add	a4,a5,a4
   1e5cc:	00d707b3          	add	a5,a4,a3
   1e5d0:	00879713          	sll	a4,a5,0x8
   1e5d4:	00060513          	mv	a0,a2
   1e5d8:	00075a63          	bgez	a4,1e5ec <__subdf3+0x2b4>
   1e5dc:	ff800737          	lui	a4,0xff800
   1e5e0:	fff70713          	add	a4,a4,-1 # ff7fffff <__BSS_END__+0xff7dc4df>
   1e5e4:	00e7f7b3          	and	a5,a5,a4
   1e5e8:	00100913          	li	s2,1
   1e5ec:	00757713          	and	a4,a0,7
   1e5f0:	44070863          	beqz	a4,1ea40 <__subdf3+0x708>
   1e5f4:	00f57713          	and	a4,a0,15
   1e5f8:	00400693          	li	a3,4
   1e5fc:	44d70263          	beq	a4,a3,1ea40 <__subdf3+0x708>
   1e600:	00450713          	add	a4,a0,4
   1e604:	00a736b3          	sltu	a3,a4,a0
   1e608:	00d787b3          	add	a5,a5,a3
   1e60c:	00070513          	mv	a0,a4
   1e610:	4300006f          	j	1ea40 <__subdf3+0x708>
   1e614:	ec068ee3          	beqz	a3,1e4f0 <__subdf3+0x1b8>
   1e618:	00c76633          	or	a2,a4,a2
   1e61c:	dc060ae3          	beqz	a2,1e3f0 <__subdf3+0xb8>
   1e620:	00000493          	li	s1,0
   1e624:	004007b7          	lui	a5,0x400
   1e628:	00000513          	li	a0,0
   1e62c:	7ff00913          	li	s2,2047
   1e630:	4100006f          	j	1ea40 <__subdf3+0x708>
   1e634:	7ff00593          	li	a1,2047
   1e638:	3cb68c63          	beq	a3,a1,1ea10 <__subdf3+0x6d8>
   1e63c:	00c50633          	add	a2,a0,a2
   1e640:	00a63533          	sltu	a0,a2,a0
   1e644:	00e78733          	add	a4,a5,a4
   1e648:	00a70733          	add	a4,a4,a0
   1e64c:	01f71513          	sll	a0,a4,0x1f
   1e650:	00165613          	srl	a2,a2,0x1
   1e654:	00c56533          	or	a0,a0,a2
   1e658:	00175793          	srl	a5,a4,0x1
   1e65c:	00068913          	mv	s2,a3
   1e660:	f8dff06f          	j	1e5ec <__subdf3+0x2b4>
   1e664:	0f005c63          	blez	a6,1e75c <__subdf3+0x424>
   1e668:	08089e63          	bnez	a7,1e704 <__subdf3+0x3cc>
   1e66c:	00c766b3          	or	a3,a4,a2
   1e670:	3a068863          	beqz	a3,1ea20 <__subdf3+0x6e8>
   1e674:	fff80693          	add	a3,a6,-1
   1e678:	02069063          	bnez	a3,1e698 <__subdf3+0x360>
   1e67c:	40c50633          	sub	a2,a0,a2
   1e680:	00c536b3          	sltu	a3,a0,a2
   1e684:	40e78733          	sub	a4,a5,a4
   1e688:	00060513          	mv	a0,a2
   1e68c:	40d707b3          	sub	a5,a4,a3
   1e690:	00100913          	li	s2,1
   1e694:	0540006f          	j	1e6e8 <__subdf3+0x3b0>
   1e698:	7ff00593          	li	a1,2047
   1e69c:	d4b80ae3          	beq	a6,a1,1e3f0 <__subdf3+0xb8>
   1e6a0:	03800593          	li	a1,56
   1e6a4:	0ad5c663          	blt	a1,a3,1e750 <__subdf3+0x418>
   1e6a8:	01f00593          	li	a1,31
   1e6ac:	06d5c863          	blt	a1,a3,1e71c <__subdf3+0x3e4>
   1e6b0:	02000813          	li	a6,32
   1e6b4:	40d80833          	sub	a6,a6,a3
   1e6b8:	00d658b3          	srl	a7,a2,a3
   1e6bc:	010715b3          	sll	a1,a4,a6
   1e6c0:	01061833          	sll	a6,a2,a6
   1e6c4:	0115e5b3          	or	a1,a1,a7
   1e6c8:	01003833          	snez	a6,a6
   1e6cc:	0105e633          	or	a2,a1,a6
   1e6d0:	00d756b3          	srl	a3,a4,a3
   1e6d4:	40c50633          	sub	a2,a0,a2
   1e6d8:	00c53733          	sltu	a4,a0,a2
   1e6dc:	40d786b3          	sub	a3,a5,a3
   1e6e0:	00060513          	mv	a0,a2
   1e6e4:	40e687b3          	sub	a5,a3,a4
   1e6e8:	00879713          	sll	a4,a5,0x8
   1e6ec:	f00750e3          	bgez	a4,1e5ec <__subdf3+0x2b4>
   1e6f0:	00800437          	lui	s0,0x800
   1e6f4:	fff40413          	add	s0,s0,-1 # 7fffff <__BSS_END__+0x7dc4df>
   1e6f8:	0087f433          	and	s0,a5,s0
   1e6fc:	00050993          	mv	s3,a0
   1e700:	2100006f          	j	1e910 <__subdf3+0x5d8>
   1e704:	7ff00693          	li	a3,2047
   1e708:	eed902e3          	beq	s2,a3,1e5ec <__subdf3+0x2b4>
   1e70c:	008006b7          	lui	a3,0x800
   1e710:	00d76733          	or	a4,a4,a3
   1e714:	00080693          	mv	a3,a6
   1e718:	f89ff06f          	j	1e6a0 <__subdf3+0x368>
   1e71c:	fe068593          	add	a1,a3,-32 # 7fffe0 <__BSS_END__+0x7dc4c0>
   1e720:	02000893          	li	a7,32
   1e724:	00b755b3          	srl	a1,a4,a1
   1e728:	00000813          	li	a6,0
   1e72c:	01168863          	beq	a3,a7,1e73c <__subdf3+0x404>
   1e730:	04000813          	li	a6,64
   1e734:	40d80833          	sub	a6,a6,a3
   1e738:	01071833          	sll	a6,a4,a6
   1e73c:	00c86833          	or	a6,a6,a2
   1e740:	01003833          	snez	a6,a6
   1e744:	0105e633          	or	a2,a1,a6
   1e748:	00000693          	li	a3,0
   1e74c:	f89ff06f          	j	1e6d4 <__subdf3+0x39c>
   1e750:	00c76633          	or	a2,a4,a2
   1e754:	00c03633          	snez	a2,a2
   1e758:	ff1ff06f          	j	1e748 <__subdf3+0x410>
   1e75c:	0e080863          	beqz	a6,1e84c <__subdf3+0x514>
   1e760:	41288833          	sub	a6,a7,s2
   1e764:	04091263          	bnez	s2,1e7a8 <__subdf3+0x470>
   1e768:	00a7e5b3          	or	a1,a5,a0
   1e76c:	2a058e63          	beqz	a1,1ea28 <__subdf3+0x6f0>
   1e770:	fff80593          	add	a1,a6,-1
   1e774:	00059e63          	bnez	a1,1e790 <__subdf3+0x458>
   1e778:	40a60533          	sub	a0,a2,a0
   1e77c:	40f70733          	sub	a4,a4,a5
   1e780:	00a63633          	sltu	a2,a2,a0
   1e784:	40c707b3          	sub	a5,a4,a2
   1e788:	00068493          	mv	s1,a3
   1e78c:	f05ff06f          	j	1e690 <__subdf3+0x358>
   1e790:	7ff00313          	li	t1,2047
   1e794:	02681463          	bne	a6,t1,1e7bc <__subdf3+0x484>
   1e798:	00070793          	mv	a5,a4
   1e79c:	00060513          	mv	a0,a2
   1e7a0:	7ff00913          	li	s2,2047
   1e7a4:	0d00006f          	j	1e874 <__subdf3+0x53c>
   1e7a8:	7ff00593          	li	a1,2047
   1e7ac:	feb886e3          	beq	a7,a1,1e798 <__subdf3+0x460>
   1e7b0:	008005b7          	lui	a1,0x800
   1e7b4:	00b7e7b3          	or	a5,a5,a1
   1e7b8:	00080593          	mv	a1,a6
   1e7bc:	03800813          	li	a6,56
   1e7c0:	08b84063          	blt	a6,a1,1e840 <__subdf3+0x508>
   1e7c4:	01f00813          	li	a6,31
   1e7c8:	04b84263          	blt	a6,a1,1e80c <__subdf3+0x4d4>
   1e7cc:	02000313          	li	t1,32
   1e7d0:	40b30333          	sub	t1,t1,a1
   1e7d4:	00b55e33          	srl	t3,a0,a1
   1e7d8:	00679833          	sll	a6,a5,t1
   1e7dc:	00651333          	sll	t1,a0,t1
   1e7e0:	01c86833          	or	a6,a6,t3
   1e7e4:	00603333          	snez	t1,t1
   1e7e8:	00686533          	or	a0,a6,t1
   1e7ec:	00b7d5b3          	srl	a1,a5,a1
   1e7f0:	40a60533          	sub	a0,a2,a0
   1e7f4:	40b705b3          	sub	a1,a4,a1
   1e7f8:	00a63633          	sltu	a2,a2,a0
   1e7fc:	40c587b3          	sub	a5,a1,a2
   1e800:	00088913          	mv	s2,a7
   1e804:	00068493          	mv	s1,a3
   1e808:	ee1ff06f          	j	1e6e8 <__subdf3+0x3b0>
   1e80c:	fe058813          	add	a6,a1,-32 # 7fffe0 <__BSS_END__+0x7dc4c0>
   1e810:	02000e13          	li	t3,32
   1e814:	0107d833          	srl	a6,a5,a6
   1e818:	00000313          	li	t1,0
   1e81c:	01c58863          	beq	a1,t3,1e82c <__subdf3+0x4f4>
   1e820:	04000313          	li	t1,64
   1e824:	40b30333          	sub	t1,t1,a1
   1e828:	00679333          	sll	t1,a5,t1
   1e82c:	00a36333          	or	t1,t1,a0
   1e830:	00603333          	snez	t1,t1
   1e834:	00686533          	or	a0,a6,t1
   1e838:	00000593          	li	a1,0
   1e83c:	fb5ff06f          	j	1e7f0 <__subdf3+0x4b8>
   1e840:	00a7e533          	or	a0,a5,a0
   1e844:	00a03533          	snez	a0,a0
   1e848:	ff1ff06f          	j	1e838 <__subdf3+0x500>
   1e84c:	00190593          	add	a1,s2,1
   1e850:	7fe5f593          	and	a1,a1,2046
   1e854:	08059663          	bnez	a1,1e8e0 <__subdf3+0x5a8>
   1e858:	00c765b3          	or	a1,a4,a2
   1e85c:	00a7e833          	or	a6,a5,a0
   1e860:	06091063          	bnez	s2,1e8c0 <__subdf3+0x588>
   1e864:	00081c63          	bnez	a6,1e87c <__subdf3+0x544>
   1e868:	10058e63          	beqz	a1,1e984 <__subdf3+0x64c>
   1e86c:	00070793          	mv	a5,a4
   1e870:	00060513          	mv	a0,a2
   1e874:	00068493          	mv	s1,a3
   1e878:	d75ff06f          	j	1e5ec <__subdf3+0x2b4>
   1e87c:	d60588e3          	beqz	a1,1e5ec <__subdf3+0x2b4>
   1e880:	40c50833          	sub	a6,a0,a2
   1e884:	010538b3          	sltu	a7,a0,a6
   1e888:	40e785b3          	sub	a1,a5,a4
   1e88c:	411585b3          	sub	a1,a1,a7
   1e890:	00859893          	sll	a7,a1,0x8
   1e894:	0008dc63          	bgez	a7,1e8ac <__subdf3+0x574>
   1e898:	40a60533          	sub	a0,a2,a0
   1e89c:	40f70733          	sub	a4,a4,a5
   1e8a0:	00a63633          	sltu	a2,a2,a0
   1e8a4:	40c707b3          	sub	a5,a4,a2
   1e8a8:	fcdff06f          	j	1e874 <__subdf3+0x53c>
   1e8ac:	00b86533          	or	a0,a6,a1
   1e8b0:	18050463          	beqz	a0,1ea38 <__subdf3+0x700>
   1e8b4:	00058793          	mv	a5,a1
   1e8b8:	00080513          	mv	a0,a6
   1e8bc:	d31ff06f          	j	1e5ec <__subdf3+0x2b4>
   1e8c0:	00081c63          	bnez	a6,1e8d8 <__subdf3+0x5a0>
   1e8c4:	d4058ee3          	beqz	a1,1e620 <__subdf3+0x2e8>
   1e8c8:	00070793          	mv	a5,a4
   1e8cc:	00060513          	mv	a0,a2
   1e8d0:	00068493          	mv	s1,a3
   1e8d4:	b1dff06f          	j	1e3f0 <__subdf3+0xb8>
   1e8d8:	b0058ce3          	beqz	a1,1e3f0 <__subdf3+0xb8>
   1e8dc:	d45ff06f          	j	1e620 <__subdf3+0x2e8>
   1e8e0:	40c505b3          	sub	a1,a0,a2
   1e8e4:	00b53833          	sltu	a6,a0,a1
   1e8e8:	40e78433          	sub	s0,a5,a4
   1e8ec:	41040433          	sub	s0,s0,a6
   1e8f0:	00841813          	sll	a6,s0,0x8
   1e8f4:	00058993          	mv	s3,a1
   1e8f8:	08085063          	bgez	a6,1e978 <__subdf3+0x640>
   1e8fc:	40a609b3          	sub	s3,a2,a0
   1e900:	40f70433          	sub	s0,a4,a5
   1e904:	01363633          	sltu	a2,a2,s3
   1e908:	40c40433          	sub	s0,s0,a2
   1e90c:	00068493          	mv	s1,a3
   1e910:	06040e63          	beqz	s0,1e98c <__subdf3+0x654>
   1e914:	00040513          	mv	a0,s0
   1e918:	468030ef          	jal	21d80 <__clzsi2>
   1e91c:	ff850693          	add	a3,a0,-8
   1e920:	02000793          	li	a5,32
   1e924:	40d787b3          	sub	a5,a5,a3
   1e928:	00d41433          	sll	s0,s0,a3
   1e92c:	00f9d7b3          	srl	a5,s3,a5
   1e930:	0087e7b3          	or	a5,a5,s0
   1e934:	00d99433          	sll	s0,s3,a3
   1e938:	0b26c463          	blt	a3,s2,1e9e0 <__subdf3+0x6a8>
   1e93c:	412686b3          	sub	a3,a3,s2
   1e940:	00168613          	add	a2,a3,1
   1e944:	01f00713          	li	a4,31
   1e948:	06c74263          	blt	a4,a2,1e9ac <__subdf3+0x674>
   1e94c:	02000713          	li	a4,32
   1e950:	40c70733          	sub	a4,a4,a2
   1e954:	00e79533          	sll	a0,a5,a4
   1e958:	00c456b3          	srl	a3,s0,a2
   1e95c:	00e41733          	sll	a4,s0,a4
   1e960:	00d56533          	or	a0,a0,a3
   1e964:	00e03733          	snez	a4,a4
   1e968:	00e56533          	or	a0,a0,a4
   1e96c:	00c7d7b3          	srl	a5,a5,a2
   1e970:	00000913          	li	s2,0
   1e974:	c79ff06f          	j	1e5ec <__subdf3+0x2b4>
   1e978:	0085e5b3          	or	a1,a1,s0
   1e97c:	f8059ae3          	bnez	a1,1e910 <__subdf3+0x5d8>
   1e980:	00000913          	li	s2,0
   1e984:	00000493          	li	s1,0
   1e988:	08c0006f          	j	1ea14 <__subdf3+0x6dc>
   1e98c:	00098513          	mv	a0,s3
   1e990:	3f0030ef          	jal	21d80 <__clzsi2>
   1e994:	01850693          	add	a3,a0,24
   1e998:	01f00793          	li	a5,31
   1e99c:	f8d7d2e3          	bge	a5,a3,1e920 <__subdf3+0x5e8>
   1e9a0:	ff850793          	add	a5,a0,-8
   1e9a4:	00f997b3          	sll	a5,s3,a5
   1e9a8:	f91ff06f          	j	1e938 <__subdf3+0x600>
   1e9ac:	fe168693          	add	a3,a3,-31
   1e9b0:	00d7d533          	srl	a0,a5,a3
   1e9b4:	02000693          	li	a3,32
   1e9b8:	00000713          	li	a4,0
   1e9bc:	00d60863          	beq	a2,a3,1e9cc <__subdf3+0x694>
   1e9c0:	04000713          	li	a4,64
   1e9c4:	40c70733          	sub	a4,a4,a2
   1e9c8:	00e79733          	sll	a4,a5,a4
   1e9cc:	00e46733          	or	a4,s0,a4
   1e9d0:	00e03733          	snez	a4,a4
   1e9d4:	00e56533          	or	a0,a0,a4
   1e9d8:	00000793          	li	a5,0
   1e9dc:	f95ff06f          	j	1e970 <__subdf3+0x638>
   1e9e0:	ff800737          	lui	a4,0xff800
   1e9e4:	fff70713          	add	a4,a4,-1 # ff7fffff <__BSS_END__+0xff7dc4df>
   1e9e8:	40d90933          	sub	s2,s2,a3
   1e9ec:	00e7f7b3          	and	a5,a5,a4
   1e9f0:	00040513          	mv	a0,s0
   1e9f4:	bf9ff06f          	j	1e5ec <__subdf3+0x2b4>
   1e9f8:	00070793          	mv	a5,a4
   1e9fc:	00060513          	mv	a0,a2
   1ea00:	c5dff06f          	j	1e65c <__subdf3+0x324>
   1ea04:	00070793          	mv	a5,a4
   1ea08:	00060513          	mv	a0,a2
   1ea0c:	be1ff06f          	j	1e5ec <__subdf3+0x2b4>
   1ea10:	7ff00913          	li	s2,2047
   1ea14:	00000793          	li	a5,0
   1ea18:	00000513          	li	a0,0
   1ea1c:	0240006f          	j	1ea40 <__subdf3+0x708>
   1ea20:	00080913          	mv	s2,a6
   1ea24:	bc9ff06f          	j	1e5ec <__subdf3+0x2b4>
   1ea28:	00070793          	mv	a5,a4
   1ea2c:	00060513          	mv	a0,a2
   1ea30:	00080913          	mv	s2,a6
   1ea34:	e41ff06f          	j	1e874 <__subdf3+0x53c>
   1ea38:	00000793          	li	a5,0
   1ea3c:	00000493          	li	s1,0
   1ea40:	00879713          	sll	a4,a5,0x8
   1ea44:	00075e63          	bgez	a4,1ea60 <__subdf3+0x728>
   1ea48:	00190913          	add	s2,s2,1
   1ea4c:	7ff00713          	li	a4,2047
   1ea50:	08e90263          	beq	s2,a4,1ead4 <__subdf3+0x79c>
   1ea54:	ff800737          	lui	a4,0xff800
   1ea58:	fff70713          	add	a4,a4,-1 # ff7fffff <__BSS_END__+0xff7dc4df>
   1ea5c:	00e7f7b3          	and	a5,a5,a4
   1ea60:	01d79693          	sll	a3,a5,0x1d
   1ea64:	00355513          	srl	a0,a0,0x3
   1ea68:	7ff00713          	li	a4,2047
   1ea6c:	00a6e6b3          	or	a3,a3,a0
   1ea70:	0037d793          	srl	a5,a5,0x3
   1ea74:	00e91e63          	bne	s2,a4,1ea90 <__subdf3+0x758>
   1ea78:	00f6e6b3          	or	a3,a3,a5
   1ea7c:	00000793          	li	a5,0
   1ea80:	00068863          	beqz	a3,1ea90 <__subdf3+0x758>
   1ea84:	000807b7          	lui	a5,0x80
   1ea88:	00000693          	li	a3,0
   1ea8c:	00000493          	li	s1,0
   1ea90:	01491713          	sll	a4,s2,0x14
   1ea94:	7ff00637          	lui	a2,0x7ff00
   1ea98:	00c79793          	sll	a5,a5,0xc
   1ea9c:	00c77733          	and	a4,a4,a2
   1eaa0:	01c12083          	lw	ra,28(sp)
   1eaa4:	01812403          	lw	s0,24(sp)
   1eaa8:	00c7d793          	srl	a5,a5,0xc
   1eaac:	00f767b3          	or	a5,a4,a5
   1eab0:	01f49713          	sll	a4,s1,0x1f
   1eab4:	00e7e633          	or	a2,a5,a4
   1eab8:	01412483          	lw	s1,20(sp)
   1eabc:	01012903          	lw	s2,16(sp)
   1eac0:	00c12983          	lw	s3,12(sp)
   1eac4:	00068513          	mv	a0,a3
   1eac8:	00060593          	mv	a1,a2
   1eacc:	02010113          	add	sp,sp,32
   1ead0:	00008067          	ret
   1ead4:	00000793          	li	a5,0
   1ead8:	00000513          	li	a0,0
   1eadc:	f85ff06f          	j	1ea60 <__subdf3+0x728>

0001eae0 <__fixdfsi>:
   1eae0:	0145d713          	srl	a4,a1,0x14
   1eae4:	001006b7          	lui	a3,0x100
   1eae8:	fff68793          	add	a5,a3,-1 # fffff <__BSS_END__+0xdc4df>
   1eaec:	7ff77713          	and	a4,a4,2047
   1eaf0:	3fe00613          	li	a2,1022
   1eaf4:	00b7f7b3          	and	a5,a5,a1
   1eaf8:	01f5d593          	srl	a1,a1,0x1f
   1eafc:	04e65e63          	bge	a2,a4,1eb58 <__fixdfsi+0x78>
   1eb00:	41d00613          	li	a2,1053
   1eb04:	00e65a63          	bge	a2,a4,1eb18 <__fixdfsi+0x38>
   1eb08:	80000537          	lui	a0,0x80000
   1eb0c:	fff50513          	add	a0,a0,-1 # 7fffffff <__BSS_END__+0x7ffdc4df>
   1eb10:	00a58533          	add	a0,a1,a0
   1eb14:	00008067          	ret
   1eb18:	00d7e7b3          	or	a5,a5,a3
   1eb1c:	43300693          	li	a3,1075
   1eb20:	40e686b3          	sub	a3,a3,a4
   1eb24:	01f00613          	li	a2,31
   1eb28:	02d64063          	blt	a2,a3,1eb48 <__fixdfsi+0x68>
   1eb2c:	bed70713          	add	a4,a4,-1043
   1eb30:	00e797b3          	sll	a5,a5,a4
   1eb34:	00d55533          	srl	a0,a0,a3
   1eb38:	00a7e533          	or	a0,a5,a0
   1eb3c:	02058063          	beqz	a1,1eb5c <__fixdfsi+0x7c>
   1eb40:	40a00533          	neg	a0,a0
   1eb44:	00008067          	ret
   1eb48:	41300693          	li	a3,1043
   1eb4c:	40e68733          	sub	a4,a3,a4
   1eb50:	00e7d533          	srl	a0,a5,a4
   1eb54:	fe9ff06f          	j	1eb3c <__fixdfsi+0x5c>
   1eb58:	00000513          	li	a0,0
   1eb5c:	00008067          	ret

0001eb60 <__floatsidf>:
   1eb60:	ff010113          	add	sp,sp,-16
   1eb64:	00112623          	sw	ra,12(sp)
   1eb68:	00812423          	sw	s0,8(sp)
   1eb6c:	00912223          	sw	s1,4(sp)
   1eb70:	08050663          	beqz	a0,1ebfc <__floatsidf+0x9c>
   1eb74:	41f55793          	sra	a5,a0,0x1f
   1eb78:	00a7c433          	xor	s0,a5,a0
   1eb7c:	40f40433          	sub	s0,s0,a5
   1eb80:	01f55493          	srl	s1,a0,0x1f
   1eb84:	00040513          	mv	a0,s0
   1eb88:	1f8030ef          	jal	21d80 <__clzsi2>
   1eb8c:	41e00713          	li	a4,1054
   1eb90:	00a00793          	li	a5,10
   1eb94:	40a70733          	sub	a4,a4,a0
   1eb98:	04a7c863          	blt	a5,a0,1ebe8 <__floatsidf+0x88>
   1eb9c:	00b00793          	li	a5,11
   1eba0:	40a787b3          	sub	a5,a5,a0
   1eba4:	01550513          	add	a0,a0,21
   1eba8:	00f457b3          	srl	a5,s0,a5
   1ebac:	00a41433          	sll	s0,s0,a0
   1ebb0:	00048513          	mv	a0,s1
   1ebb4:	00c79793          	sll	a5,a5,0xc
   1ebb8:	00c7d793          	srl	a5,a5,0xc
   1ebbc:	01471713          	sll	a4,a4,0x14
   1ebc0:	01f51513          	sll	a0,a0,0x1f
   1ebc4:	00f76733          	or	a4,a4,a5
   1ebc8:	00c12083          	lw	ra,12(sp)
   1ebcc:	00a767b3          	or	a5,a4,a0
   1ebd0:	00040513          	mv	a0,s0
   1ebd4:	00812403          	lw	s0,8(sp)
   1ebd8:	00412483          	lw	s1,4(sp)
   1ebdc:	00078593          	mv	a1,a5
   1ebe0:	01010113          	add	sp,sp,16
   1ebe4:	00008067          	ret
   1ebe8:	ff550513          	add	a0,a0,-11
   1ebec:	00a417b3          	sll	a5,s0,a0
   1ebf0:	00048513          	mv	a0,s1
   1ebf4:	00000413          	li	s0,0
   1ebf8:	fbdff06f          	j	1ebb4 <__floatsidf+0x54>
   1ebfc:	00000713          	li	a4,0
   1ec00:	00000793          	li	a5,0
   1ec04:	ff1ff06f          	j	1ebf4 <__floatsidf+0x94>

0001ec08 <__eqtf2>:
   1ec08:	00c52783          	lw	a5,12(a0)
   1ec0c:	0005af03          	lw	t5,0(a1)
   1ec10:	0045af83          	lw	t6,4(a1)
   1ec14:	0085a283          	lw	t0,8(a1)
   1ec18:	00c5a583          	lw	a1,12(a1)
   1ec1c:	00008737          	lui	a4,0x8
   1ec20:	0107d693          	srl	a3,a5,0x10
   1ec24:	fff70713          	add	a4,a4,-1 # 7fff <exit-0x8095>
   1ec28:	01079813          	sll	a6,a5,0x10
   1ec2c:	01059e93          	sll	t4,a1,0x10
   1ec30:	01f7d613          	srl	a2,a5,0x1f
   1ec34:	00e6f6b3          	and	a3,a3,a4
   1ec38:	0105d793          	srl	a5,a1,0x10
   1ec3c:	00052883          	lw	a7,0(a0)
   1ec40:	00452303          	lw	t1,4(a0)
   1ec44:	00852e03          	lw	t3,8(a0)
   1ec48:	ff010113          	add	sp,sp,-16
   1ec4c:	01085813          	srl	a6,a6,0x10
   1ec50:	010ede93          	srl	t4,t4,0x10
   1ec54:	00e7f7b3          	and	a5,a5,a4
   1ec58:	01f5d593          	srl	a1,a1,0x1f
   1ec5c:	02e69063          	bne	a3,a4,1ec7c <__eqtf2+0x74>
   1ec60:	0068e733          	or	a4,a7,t1
   1ec64:	01c76733          	or	a4,a4,t3
   1ec68:	01076733          	or	a4,a4,a6
   1ec6c:	00100513          	li	a0,1
   1ec70:	04071a63          	bnez	a4,1ecc4 <__eqtf2+0xbc>
   1ec74:	04d79863          	bne	a5,a3,1ecc4 <__eqtf2+0xbc>
   1ec78:	0080006f          	j	1ec80 <__eqtf2+0x78>
   1ec7c:	00e79c63          	bne	a5,a4,1ec94 <__eqtf2+0x8c>
   1ec80:	01ff6733          	or	a4,t5,t6
   1ec84:	00576733          	or	a4,a4,t0
   1ec88:	01d76733          	or	a4,a4,t4
   1ec8c:	00100513          	li	a0,1
   1ec90:	02071a63          	bnez	a4,1ecc4 <__eqtf2+0xbc>
   1ec94:	00100513          	li	a0,1
   1ec98:	02d79663          	bne	a5,a3,1ecc4 <__eqtf2+0xbc>
   1ec9c:	03e89463          	bne	a7,t5,1ecc4 <__eqtf2+0xbc>
   1eca0:	03f31263          	bne	t1,t6,1ecc4 <__eqtf2+0xbc>
   1eca4:	025e1063          	bne	t3,t0,1ecc4 <__eqtf2+0xbc>
   1eca8:	01d81e63          	bne	a6,t4,1ecc4 <__eqtf2+0xbc>
   1ecac:	02b60063          	beq	a2,a1,1eccc <__eqtf2+0xc4>
   1ecb0:	00079a63          	bnez	a5,1ecc4 <__eqtf2+0xbc>
   1ecb4:	0068e533          	or	a0,a7,t1
   1ecb8:	01c56533          	or	a0,a0,t3
   1ecbc:	01056533          	or	a0,a0,a6
   1ecc0:	00a03533          	snez	a0,a0
   1ecc4:	01010113          	add	sp,sp,16
   1ecc8:	00008067          	ret
   1eccc:	00000513          	li	a0,0
   1ecd0:	ff5ff06f          	j	1ecc4 <__eqtf2+0xbc>

0001ecd4 <__getf2>:
   1ecd4:	00c52783          	lw	a5,12(a0)
   1ecd8:	00c5a683          	lw	a3,12(a1)
   1ecdc:	00008737          	lui	a4,0x8
   1ece0:	0107d613          	srl	a2,a5,0x10
   1ece4:	fff70713          	add	a4,a4,-1 # 7fff <exit-0x8095>
   1ece8:	01079813          	sll	a6,a5,0x10
   1ecec:	01069293          	sll	t0,a3,0x10
   1ecf0:	00052883          	lw	a7,0(a0)
   1ecf4:	00452303          	lw	t1,4(a0)
   1ecf8:	00852e03          	lw	t3,8(a0)
   1ecfc:	00e67633          	and	a2,a2,a4
   1ed00:	0106d513          	srl	a0,a3,0x10
   1ed04:	0005ae83          	lw	t4,0(a1)
   1ed08:	0045af03          	lw	t5,4(a1)
   1ed0c:	0085af83          	lw	t6,8(a1)
   1ed10:	ff010113          	add	sp,sp,-16
   1ed14:	01085813          	srl	a6,a6,0x10
   1ed18:	01f7d793          	srl	a5,a5,0x1f
   1ed1c:	0102d293          	srl	t0,t0,0x10
   1ed20:	00e57533          	and	a0,a0,a4
   1ed24:	01f6d693          	srl	a3,a3,0x1f
   1ed28:	00e61a63          	bne	a2,a4,1ed3c <__getf2+0x68>
   1ed2c:	01136733          	or	a4,t1,a7
   1ed30:	01c76733          	or	a4,a4,t3
   1ed34:	01076733          	or	a4,a4,a6
   1ed38:	0a071463          	bnez	a4,1ede0 <__getf2+0x10c>
   1ed3c:	00008737          	lui	a4,0x8
   1ed40:	fff70713          	add	a4,a4,-1 # 7fff <exit-0x8095>
   1ed44:	00e51a63          	bne	a0,a4,1ed58 <__getf2+0x84>
   1ed48:	01eee733          	or	a4,t4,t5
   1ed4c:	01f76733          	or	a4,a4,t6
   1ed50:	00576733          	or	a4,a4,t0
   1ed54:	08071663          	bnez	a4,1ede0 <__getf2+0x10c>
   1ed58:	00000713          	li	a4,0
   1ed5c:	00061a63          	bnez	a2,1ed70 <__getf2+0x9c>
   1ed60:	01136733          	or	a4,t1,a7
   1ed64:	01c76733          	or	a4,a4,t3
   1ed68:	01076733          	or	a4,a4,a6
   1ed6c:	00173713          	seqz	a4,a4
   1ed70:	06051c63          	bnez	a0,1ede8 <__getf2+0x114>
   1ed74:	01eee5b3          	or	a1,t4,t5
   1ed78:	01f5e5b3          	or	a1,a1,t6
   1ed7c:	0055e5b3          	or	a1,a1,t0
   1ed80:	00070c63          	beqz	a4,1ed98 <__getf2+0xc4>
   1ed84:	02058063          	beqz	a1,1eda4 <__getf2+0xd0>
   1ed88:	00100513          	li	a0,1
   1ed8c:	00069c63          	bnez	a3,1eda4 <__getf2+0xd0>
   1ed90:	fff00513          	li	a0,-1
   1ed94:	0100006f          	j	1eda4 <__getf2+0xd0>
   1ed98:	04059a63          	bnez	a1,1edec <__getf2+0x118>
   1ed9c:	fff00513          	li	a0,-1
   1eda0:	04078e63          	beqz	a5,1edfc <__getf2+0x128>
   1eda4:	01010113          	add	sp,sp,16
   1eda8:	00008067          	ret
   1edac:	fca64ee3          	blt	a2,a0,1ed88 <__getf2+0xb4>
   1edb0:	ff02e6e3          	bltu	t0,a6,1ed9c <__getf2+0xc8>
   1edb4:	02581063          	bne	a6,t0,1edd4 <__getf2+0x100>
   1edb8:	ffcfe2e3          	bltu	t6,t3,1ed9c <__getf2+0xc8>
   1edbc:	01fe1c63          	bne	t3,t6,1edd4 <__getf2+0x100>
   1edc0:	fc6f6ee3          	bltu	t5,t1,1ed9c <__getf2+0xc8>
   1edc4:	01e31863          	bne	t1,t5,1edd4 <__getf2+0x100>
   1edc8:	fd1eeae3          	bltu	t4,a7,1ed9c <__getf2+0xc8>
   1edcc:	00000513          	li	a0,0
   1edd0:	fdd8fae3          	bgeu	a7,t4,1eda4 <__getf2+0xd0>
   1edd4:	00100513          	li	a0,1
   1edd8:	fc0796e3          	bnez	a5,1eda4 <__getf2+0xd0>
   1eddc:	fb5ff06f          	j	1ed90 <__getf2+0xbc>
   1ede0:	ffe00513          	li	a0,-2
   1ede4:	fc1ff06f          	j	1eda4 <__getf2+0xd0>
   1ede8:	fa0710e3          	bnez	a4,1ed88 <__getf2+0xb4>
   1edec:	faf698e3          	bne	a3,a5,1ed9c <__getf2+0xc8>
   1edf0:	fac55ee3          	bge	a0,a2,1edac <__getf2+0xd8>
   1edf4:	fff00513          	li	a0,-1
   1edf8:	fa0696e3          	bnez	a3,1eda4 <__getf2+0xd0>
   1edfc:	00100513          	li	a0,1
   1ee00:	fa5ff06f          	j	1eda4 <__getf2+0xd0>

0001ee04 <__letf2>:
   1ee04:	00c52783          	lw	a5,12(a0)
   1ee08:	00c5a683          	lw	a3,12(a1)
   1ee0c:	00008737          	lui	a4,0x8
   1ee10:	0107d613          	srl	a2,a5,0x10
   1ee14:	fff70713          	add	a4,a4,-1 # 7fff <exit-0x8095>
   1ee18:	01079813          	sll	a6,a5,0x10
   1ee1c:	01069293          	sll	t0,a3,0x10
   1ee20:	00052883          	lw	a7,0(a0)
   1ee24:	00452303          	lw	t1,4(a0)
   1ee28:	00852e03          	lw	t3,8(a0)
   1ee2c:	00e67633          	and	a2,a2,a4
   1ee30:	0106d513          	srl	a0,a3,0x10
   1ee34:	0005ae83          	lw	t4,0(a1)
   1ee38:	0045af03          	lw	t5,4(a1)
   1ee3c:	0085af83          	lw	t6,8(a1)
   1ee40:	ff010113          	add	sp,sp,-16
   1ee44:	01085813          	srl	a6,a6,0x10
   1ee48:	01f7d793          	srl	a5,a5,0x1f
   1ee4c:	0102d293          	srl	t0,t0,0x10
   1ee50:	00e57533          	and	a0,a0,a4
   1ee54:	01f6d693          	srl	a3,a3,0x1f
   1ee58:	00e61a63          	bne	a2,a4,1ee6c <__letf2+0x68>
   1ee5c:	01136733          	or	a4,t1,a7
   1ee60:	01c76733          	or	a4,a4,t3
   1ee64:	01076733          	or	a4,a4,a6
   1ee68:	0a071463          	bnez	a4,1ef10 <__letf2+0x10c>
   1ee6c:	00008737          	lui	a4,0x8
   1ee70:	fff70713          	add	a4,a4,-1 # 7fff <exit-0x8095>
   1ee74:	00e51a63          	bne	a0,a4,1ee88 <__letf2+0x84>
   1ee78:	01eee733          	or	a4,t4,t5
   1ee7c:	01f76733          	or	a4,a4,t6
   1ee80:	00576733          	or	a4,a4,t0
   1ee84:	08071663          	bnez	a4,1ef10 <__letf2+0x10c>
   1ee88:	00000713          	li	a4,0
   1ee8c:	00061a63          	bnez	a2,1eea0 <__letf2+0x9c>
   1ee90:	01136733          	or	a4,t1,a7
   1ee94:	01c76733          	or	a4,a4,t3
   1ee98:	01076733          	or	a4,a4,a6
   1ee9c:	00173713          	seqz	a4,a4
   1eea0:	06051c63          	bnez	a0,1ef18 <__letf2+0x114>
   1eea4:	01eee5b3          	or	a1,t4,t5
   1eea8:	01f5e5b3          	or	a1,a1,t6
   1eeac:	0055e5b3          	or	a1,a1,t0
   1eeb0:	00070c63          	beqz	a4,1eec8 <__letf2+0xc4>
   1eeb4:	02058063          	beqz	a1,1eed4 <__letf2+0xd0>
   1eeb8:	00100513          	li	a0,1
   1eebc:	00069c63          	bnez	a3,1eed4 <__letf2+0xd0>
   1eec0:	fff00513          	li	a0,-1
   1eec4:	0100006f          	j	1eed4 <__letf2+0xd0>
   1eec8:	04059a63          	bnez	a1,1ef1c <__letf2+0x118>
   1eecc:	fff00513          	li	a0,-1
   1eed0:	04078e63          	beqz	a5,1ef2c <__letf2+0x128>
   1eed4:	01010113          	add	sp,sp,16
   1eed8:	00008067          	ret
   1eedc:	fca64ee3          	blt	a2,a0,1eeb8 <__letf2+0xb4>
   1eee0:	ff02e6e3          	bltu	t0,a6,1eecc <__letf2+0xc8>
   1eee4:	02581063          	bne	a6,t0,1ef04 <__letf2+0x100>
   1eee8:	ffcfe2e3          	bltu	t6,t3,1eecc <__letf2+0xc8>
   1eeec:	01fe1c63          	bne	t3,t6,1ef04 <__letf2+0x100>
   1eef0:	fc6f6ee3          	bltu	t5,t1,1eecc <__letf2+0xc8>
   1eef4:	01e31863          	bne	t1,t5,1ef04 <__letf2+0x100>
   1eef8:	fd1eeae3          	bltu	t4,a7,1eecc <__letf2+0xc8>
   1eefc:	00000513          	li	a0,0
   1ef00:	fdd8fae3          	bgeu	a7,t4,1eed4 <__letf2+0xd0>
   1ef04:	00100513          	li	a0,1
   1ef08:	fc0796e3          	bnez	a5,1eed4 <__letf2+0xd0>
   1ef0c:	fb5ff06f          	j	1eec0 <__letf2+0xbc>
   1ef10:	00200513          	li	a0,2
   1ef14:	fc1ff06f          	j	1eed4 <__letf2+0xd0>
   1ef18:	fa0710e3          	bnez	a4,1eeb8 <__letf2+0xb4>
   1ef1c:	faf698e3          	bne	a3,a5,1eecc <__letf2+0xc8>
   1ef20:	fac55ee3          	bge	a0,a2,1eedc <__letf2+0xd8>
   1ef24:	fff00513          	li	a0,-1
   1ef28:	fa0696e3          	bnez	a3,1eed4 <__letf2+0xd0>
   1ef2c:	00100513          	li	a0,1
   1ef30:	fa5ff06f          	j	1eed4 <__letf2+0xd0>

0001ef34 <__multf3>:
   1ef34:	00c5a883          	lw	a7,12(a1)
   1ef38:	f6010113          	add	sp,sp,-160
   1ef3c:	0005a703          	lw	a4,0(a1)
   1ef40:	0085a683          	lw	a3,8(a1)
   1ef44:	08812c23          	sw	s0,152(sp)
   1ef48:	00050413          	mv	s0,a0
   1ef4c:	0045a503          	lw	a0,4(a1)
   1ef50:	09212823          	sw	s2,144(sp)
   1ef54:	09412423          	sw	s4,136(sp)
   1ef58:	00c62903          	lw	s2,12(a2) # 7ff0000c <__BSS_END__+0x7fedc4ec>
   1ef5c:	00062a03          	lw	s4,0(a2)
   1ef60:	09512223          	sw	s5,132(sp)
   1ef64:	09612023          	sw	s6,128(sp)
   1ef68:	00862a83          	lw	s5,8(a2)
   1ef6c:	00462b03          	lw	s6,4(a2)
   1ef70:	01089793          	sll	a5,a7,0x10
   1ef74:	00008637          	lui	a2,0x8
   1ef78:	09312623          	sw	s3,140(sp)
   1ef7c:	0107d793          	srl	a5,a5,0x10
   1ef80:	0108d993          	srl	s3,a7,0x10
   1ef84:	fff60613          	add	a2,a2,-1 # 7fff <exit-0x8095>
   1ef88:	08912a23          	sw	s1,148(sp)
   1ef8c:	08112e23          	sw	ra,156(sp)
   1ef90:	07712e23          	sw	s7,124(sp)
   1ef94:	07812c23          	sw	s8,120(sp)
   1ef98:	07912a23          	sw	s9,116(sp)
   1ef9c:	07a12823          	sw	s10,112(sp)
   1efa0:	07b12623          	sw	s11,108(sp)
   1efa4:	04e12023          	sw	a4,64(sp)
   1efa8:	04a12223          	sw	a0,68(sp)
   1efac:	04d12423          	sw	a3,72(sp)
   1efb0:	05112623          	sw	a7,76(sp)
   1efb4:	00e12823          	sw	a4,16(sp)
   1efb8:	00a12a23          	sw	a0,20(sp)
   1efbc:	00d12c23          	sw	a3,24(sp)
   1efc0:	00f12e23          	sw	a5,28(sp)
   1efc4:	00c9f9b3          	and	s3,s3,a2
   1efc8:	01f8d493          	srl	s1,a7,0x1f
   1efcc:	440984e3          	beqz	s3,1fc14 <__multf3+0xce0>
   1efd0:	56c98ce3          	beq	s3,a2,1fd48 <__multf3+0xe14>
   1efd4:	000106b7          	lui	a3,0x10
   1efd8:	00d7e7b3          	or	a5,a5,a3
   1efdc:	00f12e23          	sw	a5,28(sp)
   1efe0:	01010593          	add	a1,sp,16
   1efe4:	01c10793          	add	a5,sp,28
   1efe8:	0007a683          	lw	a3,0(a5) # 80000 <__BSS_END__+0x5c4e0>
   1efec:	ffc7a603          	lw	a2,-4(a5)
   1eff0:	ffc78793          	add	a5,a5,-4
   1eff4:	00369693          	sll	a3,a3,0x3
   1eff8:	01d65613          	srl	a2,a2,0x1d
   1effc:	00c6e6b3          	or	a3,a3,a2
   1f000:	00d7a223          	sw	a3,4(a5)
   1f004:	fef592e3          	bne	a1,a5,1efe8 <__multf3+0xb4>
   1f008:	ffffc7b7          	lui	a5,0xffffc
   1f00c:	00371713          	sll	a4,a4,0x3
   1f010:	00178793          	add	a5,a5,1 # ffffc001 <__BSS_END__+0xfffd84e1>
   1f014:	00e12823          	sw	a4,16(sp)
   1f018:	00f989b3          	add	s3,s3,a5
   1f01c:	00000b93          	li	s7,0
   1f020:	01091513          	sll	a0,s2,0x10
   1f024:	000087b7          	lui	a5,0x8
   1f028:	01095813          	srl	a6,s2,0x10
   1f02c:	01055513          	srl	a0,a0,0x10
   1f030:	fff78793          	add	a5,a5,-1 # 7fff <exit-0x8095>
   1f034:	05212623          	sw	s2,76(sp)
   1f038:	05412023          	sw	s4,64(sp)
   1f03c:	05612223          	sw	s6,68(sp)
   1f040:	05512423          	sw	s5,72(sp)
   1f044:	03412023          	sw	s4,32(sp)
   1f048:	03612223          	sw	s6,36(sp)
   1f04c:	03512423          	sw	s5,40(sp)
   1f050:	02a12623          	sw	a0,44(sp)
   1f054:	00f87833          	and	a6,a6,a5
   1f058:	01f95913          	srl	s2,s2,0x1f
   1f05c:	50080ae3          	beqz	a6,1fd70 <__multf3+0xe3c>
   1f060:	64f802e3          	beq	a6,a5,1fea4 <__multf3+0xf70>
   1f064:	000107b7          	lui	a5,0x10
   1f068:	00f56533          	or	a0,a0,a5
   1f06c:	02a12623          	sw	a0,44(sp)
   1f070:	02010613          	add	a2,sp,32
   1f074:	02c10793          	add	a5,sp,44
   1f078:	0007a703          	lw	a4,0(a5) # 10000 <exit-0x94>
   1f07c:	ffc7a683          	lw	a3,-4(a5)
   1f080:	ffc78793          	add	a5,a5,-4
   1f084:	00371713          	sll	a4,a4,0x3
   1f088:	01d6d693          	srl	a3,a3,0x1d
   1f08c:	00d76733          	or	a4,a4,a3
   1f090:	00e7a223          	sw	a4,4(a5)
   1f094:	fef612e3          	bne	a2,a5,1f078 <__multf3+0x144>
   1f098:	003a1793          	sll	a5,s4,0x3
   1f09c:	02f12023          	sw	a5,32(sp)
   1f0a0:	ffffc7b7          	lui	a5,0xffffc
   1f0a4:	00178793          	add	a5,a5,1 # ffffc001 <__BSS_END__+0xfffd84e1>
   1f0a8:	00f80833          	add	a6,a6,a5
   1f0ac:	00000693          	li	a3,0
   1f0b0:	002b9793          	sll	a5,s7,0x2
   1f0b4:	01380833          	add	a6,a6,s3
   1f0b8:	00d7e7b3          	or	a5,a5,a3
   1f0bc:	00a00713          	li	a4,10
   1f0c0:	00180c13          	add	s8,a6,1
   1f0c4:	64f744e3          	blt	a4,a5,1ff0c <__multf3+0xfd8>
   1f0c8:	00200713          	li	a4,2
   1f0cc:	0124c8b3          	xor	a7,s1,s2
   1f0d0:	5ef74ee3          	blt	a4,a5,1fecc <__multf3+0xf98>
   1f0d4:	fff78793          	add	a5,a5,-1
   1f0d8:	00100713          	li	a4,1
   1f0dc:	64f774e3          	bgeu	a4,a5,1ff24 <__multf3+0xff0>
   1f0e0:	01012e83          	lw	t4,16(sp)
   1f0e4:	02012e03          	lw	t3,32(sp)
   1f0e8:	000102b7          	lui	t0,0x10
   1f0ec:	fff28793          	add	a5,t0,-1 # ffff <exit-0x95>
   1f0f0:	00fef333          	and	t1,t4,a5
   1f0f4:	00fe77b3          	and	a5,t3,a5
   1f0f8:	010ed393          	srl	t2,t4,0x10
   1f0fc:	010e5713          	srl	a4,t3,0x10
   1f100:	00030513          	mv	a0,t1
   1f104:	00078593          	mv	a1,a5
   1f108:	3a1020ef          	jal	21ca8 <__mulsi3>
   1f10c:	00050f93          	mv	t6,a0
   1f110:	00070593          	mv	a1,a4
   1f114:	00030513          	mv	a0,t1
   1f118:	391020ef          	jal	21ca8 <__mulsi3>
   1f11c:	00050313          	mv	t1,a0
   1f120:	00078593          	mv	a1,a5
   1f124:	00038513          	mv	a0,t2
   1f128:	381020ef          	jal	21ca8 <__mulsi3>
   1f12c:	00050f13          	mv	t5,a0
   1f130:	00070593          	mv	a1,a4
   1f134:	00038513          	mv	a0,t2
   1f138:	371020ef          	jal	21ca8 <__mulsi3>
   1f13c:	010fd713          	srl	a4,t6,0x10
   1f140:	01e30333          	add	t1,t1,t5
   1f144:	00670733          	add	a4,a4,t1
   1f148:	00050793          	mv	a5,a0
   1f14c:	01e77463          	bgeu	a4,t5,1f154 <__multf3+0x220>
   1f150:	005507b3          	add	a5,a0,t0
   1f154:	01075693          	srl	a3,a4,0x10
   1f158:	00f687b3          	add	a5,a3,a5
   1f15c:	000102b7          	lui	t0,0x10
   1f160:	04f12223          	sw	a5,68(sp)
   1f164:	fff28793          	add	a5,t0,-1 # ffff <exit-0x95>
   1f168:	00fff533          	and	a0,t6,a5
   1f16c:	02412f83          	lw	t6,36(sp)
   1f170:	00f77733          	and	a4,a4,a5
   1f174:	01071713          	sll	a4,a4,0x10
   1f178:	00a70533          	add	a0,a4,a0
   1f17c:	00ffff33          	and	t5,t6,a5
   1f180:	00fef733          	and	a4,t4,a5
   1f184:	04a12023          	sw	a0,64(sp)
   1f188:	010ed313          	srl	t1,t4,0x10
   1f18c:	010fd493          	srl	s1,t6,0x10
   1f190:	00070513          	mv	a0,a4
   1f194:	000f0593          	mv	a1,t5
   1f198:	311020ef          	jal	21ca8 <__mulsi3>
   1f19c:	00050393          	mv	t2,a0
   1f1a0:	00048593          	mv	a1,s1
   1f1a4:	00070513          	mv	a0,a4
   1f1a8:	301020ef          	jal	21ca8 <__mulsi3>
   1f1ac:	00050713          	mv	a4,a0
   1f1b0:	000f0593          	mv	a1,t5
   1f1b4:	00030513          	mv	a0,t1
   1f1b8:	2f1020ef          	jal	21ca8 <__mulsi3>
   1f1bc:	00050f13          	mv	t5,a0
   1f1c0:	00048593          	mv	a1,s1
   1f1c4:	00030513          	mv	a0,t1
   1f1c8:	2e1020ef          	jal	21ca8 <__mulsi3>
   1f1cc:	0103d313          	srl	t1,t2,0x10
   1f1d0:	01e70733          	add	a4,a4,t5
   1f1d4:	00e30333          	add	t1,t1,a4
   1f1d8:	00050b13          	mv	s6,a0
   1f1dc:	01e37463          	bgeu	t1,t5,1f1e4 <__multf3+0x2b0>
   1f1e0:	00550b33          	add	s6,a0,t0
   1f1e4:	01412283          	lw	t0,20(sp)
   1f1e8:	01035493          	srl	s1,t1,0x10
   1f1ec:	00f37333          	and	t1,t1,a5
   1f1f0:	00f3f533          	and	a0,t2,a5
   1f1f4:	00f2ff33          	and	t5,t0,a5
   1f1f8:	01031313          	sll	t1,t1,0x10
   1f1fc:	00fe77b3          	and	a5,t3,a5
   1f200:	00a30333          	add	t1,t1,a0
   1f204:	0102d993          	srl	s3,t0,0x10
   1f208:	010e5713          	srl	a4,t3,0x10
   1f20c:	000f0513          	mv	a0,t5
   1f210:	00078593          	mv	a1,a5
   1f214:	295020ef          	jal	21ca8 <__mulsi3>
   1f218:	00050393          	mv	t2,a0
   1f21c:	00070593          	mv	a1,a4
   1f220:	000f0513          	mv	a0,t5
   1f224:	285020ef          	jal	21ca8 <__mulsi3>
   1f228:	00050f13          	mv	t5,a0
   1f22c:	00078593          	mv	a1,a5
   1f230:	00098513          	mv	a0,s3
   1f234:	275020ef          	jal	21ca8 <__mulsi3>
   1f238:	00050913          	mv	s2,a0
   1f23c:	00070593          	mv	a1,a4
   1f240:	00098513          	mv	a0,s3
   1f244:	265020ef          	jal	21ca8 <__mulsi3>
   1f248:	0103d793          	srl	a5,t2,0x10
   1f24c:	012f0f33          	add	t5,t5,s2
   1f250:	01e787b3          	add	a5,a5,t5
   1f254:	00050713          	mv	a4,a0
   1f258:	0127f663          	bgeu	a5,s2,1f264 <__multf3+0x330>
   1f25c:	000106b7          	lui	a3,0x10
   1f260:	00d50733          	add	a4,a0,a3
   1f264:	000109b7          	lui	s3,0x10
   1f268:	fff98593          	add	a1,s3,-1 # ffff <exit-0x95>
   1f26c:	0107d913          	srl	s2,a5,0x10
   1f270:	00b7f7b3          	and	a5,a5,a1
   1f274:	00b3f3b3          	and	t2,t2,a1
   1f278:	00b2fab3          	and	s5,t0,a1
   1f27c:	00bffa33          	and	s4,t6,a1
   1f280:	01079793          	sll	a5,a5,0x10
   1f284:	00e90933          	add	s2,s2,a4
   1f288:	007787b3          	add	a5,a5,t2
   1f28c:	010fd713          	srl	a4,t6,0x10
   1f290:	0102d393          	srl	t2,t0,0x10
   1f294:	000a8513          	mv	a0,s5
   1f298:	000a0593          	mv	a1,s4
   1f29c:	20d020ef          	jal	21ca8 <__mulsi3>
   1f2a0:	00050f13          	mv	t5,a0
   1f2a4:	00070593          	mv	a1,a4
   1f2a8:	000a8513          	mv	a0,s5
   1f2ac:	1fd020ef          	jal	21ca8 <__mulsi3>
   1f2b0:	00050a93          	mv	s5,a0
   1f2b4:	000a0593          	mv	a1,s4
   1f2b8:	00038513          	mv	a0,t2
   1f2bc:	1ed020ef          	jal	21ca8 <__mulsi3>
   1f2c0:	00050a13          	mv	s4,a0
   1f2c4:	00070593          	mv	a1,a4
   1f2c8:	00038513          	mv	a0,t2
   1f2cc:	1dd020ef          	jal	21ca8 <__mulsi3>
   1f2d0:	010f5713          	srl	a4,t5,0x10
   1f2d4:	014a8633          	add	a2,s5,s4
   1f2d8:	00c70733          	add	a4,a4,a2
   1f2dc:	00050693          	mv	a3,a0
   1f2e0:	01477463          	bgeu	a4,s4,1f2e8 <__multf3+0x3b4>
   1f2e4:	013506b3          	add	a3,a0,s3
   1f2e8:	02812983          	lw	s3,40(sp)
   1f2ec:	00010a37          	lui	s4,0x10
   1f2f0:	fffa0593          	add	a1,s4,-1 # ffff <exit-0x95>
   1f2f4:	01075393          	srl	t2,a4,0x10
   1f2f8:	00b77733          	and	a4,a4,a1
   1f2fc:	00bf7f33          	and	t5,t5,a1
   1f300:	00befbb3          	and	s7,t4,a1
   1f304:	00b9fab3          	and	s5,s3,a1
   1f308:	01071713          	sll	a4,a4,0x10
   1f30c:	00d383b3          	add	t2,t2,a3
   1f310:	01e70733          	add	a4,a4,t5
   1f314:	010edd13          	srl	s10,t4,0x10
   1f318:	0109dc93          	srl	s9,s3,0x10
   1f31c:	000b8513          	mv	a0,s7
   1f320:	000a8593          	mv	a1,s5
   1f324:	185020ef          	jal	21ca8 <__mulsi3>
   1f328:	00050f13          	mv	t5,a0
   1f32c:	000c8593          	mv	a1,s9
   1f330:	000b8513          	mv	a0,s7
   1f334:	175020ef          	jal	21ca8 <__mulsi3>
   1f338:	00050b93          	mv	s7,a0
   1f33c:	000a8593          	mv	a1,s5
   1f340:	000d0513          	mv	a0,s10
   1f344:	165020ef          	jal	21ca8 <__mulsi3>
   1f348:	00050a93          	mv	s5,a0
   1f34c:	000c8593          	mv	a1,s9
   1f350:	000d0513          	mv	a0,s10
   1f354:	155020ef          	jal	21ca8 <__mulsi3>
   1f358:	010f5693          	srl	a3,t5,0x10
   1f35c:	015b8633          	add	a2,s7,s5
   1f360:	00c686b3          	add	a3,a3,a2
   1f364:	0156f463          	bgeu	a3,s5,1f36c <__multf3+0x438>
   1f368:	01450533          	add	a0,a0,s4
   1f36c:	00010d37          	lui	s10,0x10
   1f370:	fffd0a13          	add	s4,s10,-1 # ffff <exit-0x95>
   1f374:	0106d613          	srl	a2,a3,0x10
   1f378:	0146f6b3          	and	a3,a3,s4
   1f37c:	014f7f33          	and	t5,t5,s4
   1f380:	01069693          	sll	a3,a3,0x10
   1f384:	01e686b3          	add	a3,a3,t5
   1f388:	01812f03          	lw	t5,24(sp)
   1f38c:	00a60db3          	add	s11,a2,a0
   1f390:	00d12623          	sw	a3,12(sp)
   1f394:	014f7bb3          	and	s7,t5,s4
   1f398:	014e7a33          	and	s4,t3,s4
   1f39c:	010e5c93          	srl	s9,t3,0x10
   1f3a0:	000b8513          	mv	a0,s7
   1f3a4:	000a0593          	mv	a1,s4
   1f3a8:	101020ef          	jal	21ca8 <__mulsi3>
   1f3ac:	00050a93          	mv	s5,a0
   1f3b0:	000c8593          	mv	a1,s9
   1f3b4:	000b8513          	mv	a0,s7
   1f3b8:	0f1020ef          	jal	21ca8 <__mulsi3>
   1f3bc:	00050b93          	mv	s7,a0
   1f3c0:	000a0593          	mv	a1,s4
   1f3c4:	010f5513          	srl	a0,t5,0x10
   1f3c8:	0e1020ef          	jal	21ca8 <__mulsi3>
   1f3cc:	00050a13          	mv	s4,a0
   1f3d0:	000c8593          	mv	a1,s9
   1f3d4:	010f5513          	srl	a0,t5,0x10
   1f3d8:	0d1020ef          	jal	21ca8 <__mulsi3>
   1f3dc:	010ad693          	srl	a3,s5,0x10
   1f3e0:	014b8bb3          	add	s7,s7,s4
   1f3e4:	01768bb3          	add	s7,a3,s7
   1f3e8:	014bf463          	bgeu	s7,s4,1f3f0 <__multf3+0x4bc>
   1f3ec:	01a50533          	add	a0,a0,s10
   1f3f0:	04412603          	lw	a2,68(sp)
   1f3f4:	010bd693          	srl	a3,s7,0x10
   1f3f8:	00a68533          	add	a0,a3,a0
   1f3fc:	00660333          	add	t1,a2,t1
   1f400:	00c33633          	sltu	a2,t1,a2
   1f404:	00c484b3          	add	s1,s1,a2
   1f408:	016484b3          	add	s1,s1,s6
   1f40c:	00f307b3          	add	a5,t1,a5
   1f410:	01248933          	add	s2,s1,s2
   1f414:	04f12223          	sw	a5,68(sp)
   1f418:	0067b7b3          	sltu	a5,a5,t1
   1f41c:	00f907b3          	add	a5,s2,a5
   1f420:	009936b3          	sltu	a3,s2,s1
   1f424:	0127b933          	sltu	s2,a5,s2
   1f428:	00c4b4b3          	sltu	s1,s1,a2
   1f42c:	00010a37          	lui	s4,0x10
   1f430:	00c12603          	lw	a2,12(sp)
   1f434:	0126e6b3          	or	a3,a3,s2
   1f438:	fffa0593          	add	a1,s4,-1 # ffff <exit-0x95>
   1f43c:	009686b3          	add	a3,a3,s1
   1f440:	00e78733          	add	a4,a5,a4
   1f444:	007683b3          	add	t2,a3,t2
   1f448:	00bbfbb3          	and	s7,s7,a1
   1f44c:	00f737b3          	sltu	a5,a4,a5
   1f450:	00c70333          	add	t1,a4,a2
   1f454:	00f387b3          	add	a5,t2,a5
   1f458:	010b9b93          	sll	s7,s7,0x10
   1f45c:	00bafab3          	and	s5,s5,a1
   1f460:	01b78633          	add	a2,a5,s11
   1f464:	015b8ab3          	add	s5,s7,s5
   1f468:	00e33733          	sltu	a4,t1,a4
   1f46c:	00e60733          	add	a4,a2,a4
   1f470:	01530ab3          	add	s5,t1,s5
   1f474:	00a70533          	add	a0,a4,a0
   1f478:	05512423          	sw	s5,72(sp)
   1f47c:	006abab3          	sltu	s5,s5,t1
   1f480:	01550ab3          	add	s5,a0,s5
   1f484:	02c12303          	lw	t1,44(sp)
   1f488:	00d3b6b3          	sltu	a3,t2,a3
   1f48c:	0077b3b3          	sltu	t2,a5,t2
   1f490:	00f637b3          	sltu	a5,a2,a5
   1f494:	00c73633          	sltu	a2,a4,a2
   1f498:	00c7e7b3          	or	a5,a5,a2
   1f49c:	0076e6b3          	or	a3,a3,t2
   1f4a0:	05512623          	sw	s5,76(sp)
   1f4a4:	00e53733          	sltu	a4,a0,a4
   1f4a8:	00aabab3          	sltu	s5,s5,a0
   1f4ac:	00f686b3          	add	a3,a3,a5
   1f4b0:	01576733          	or	a4,a4,s5
   1f4b4:	00d70733          	add	a4,a4,a3
   1f4b8:	010ed493          	srl	s1,t4,0x10
   1f4bc:	00b377b3          	and	a5,t1,a1
   1f4c0:	00befeb3          	and	t4,t4,a1
   1f4c4:	04e12823          	sw	a4,80(sp)
   1f4c8:	000e8513          	mv	a0,t4
   1f4cc:	01035713          	srl	a4,t1,0x10
   1f4d0:	00078593          	mv	a1,a5
   1f4d4:	7d4020ef          	jal	21ca8 <__mulsi3>
   1f4d8:	00050913          	mv	s2,a0
   1f4dc:	00070593          	mv	a1,a4
   1f4e0:	000e8513          	mv	a0,t4
   1f4e4:	7c4020ef          	jal	21ca8 <__mulsi3>
   1f4e8:	00050e93          	mv	t4,a0
   1f4ec:	00078593          	mv	a1,a5
   1f4f0:	00048513          	mv	a0,s1
   1f4f4:	7b4020ef          	jal	21ca8 <__mulsi3>
   1f4f8:	00050393          	mv	t2,a0
   1f4fc:	00070593          	mv	a1,a4
   1f500:	00048513          	mv	a0,s1
   1f504:	7a4020ef          	jal	21ca8 <__mulsi3>
   1f508:	01095713          	srl	a4,s2,0x10
   1f50c:	007e8eb3          	add	t4,t4,t2
   1f510:	01d70733          	add	a4,a4,t4
   1f514:	00050793          	mv	a5,a0
   1f518:	00777463          	bgeu	a4,t2,1f520 <__multf3+0x5ec>
   1f51c:	014507b3          	add	a5,a0,s4
   1f520:	01075393          	srl	t2,a4,0x10
   1f524:	000104b7          	lui	s1,0x10
   1f528:	01c12e83          	lw	t4,28(sp)
   1f52c:	00f383b3          	add	t2,t2,a5
   1f530:	fff48793          	add	a5,s1,-1 # ffff <exit-0x95>
   1f534:	00f77733          	and	a4,a4,a5
   1f538:	00f97933          	and	s2,s2,a5
   1f53c:	01071713          	sll	a4,a4,0x10
   1f540:	01270733          	add	a4,a4,s2
   1f544:	00fefb33          	and	s6,t4,a5
   1f548:	010e5913          	srl	s2,t3,0x10
   1f54c:	00fe7e33          	and	t3,t3,a5
   1f550:	010eda93          	srl	s5,t4,0x10
   1f554:	000b0513          	mv	a0,s6
   1f558:	000e0593          	mv	a1,t3
   1f55c:	74c020ef          	jal	21ca8 <__mulsi3>
   1f560:	00050a13          	mv	s4,a0
   1f564:	00090593          	mv	a1,s2
   1f568:	000b0513          	mv	a0,s6
   1f56c:	73c020ef          	jal	21ca8 <__mulsi3>
   1f570:	00050793          	mv	a5,a0
   1f574:	000e0593          	mv	a1,t3
   1f578:	000a8513          	mv	a0,s5
   1f57c:	72c020ef          	jal	21ca8 <__mulsi3>
   1f580:	00050e13          	mv	t3,a0
   1f584:	00090593          	mv	a1,s2
   1f588:	000a8513          	mv	a0,s5
   1f58c:	71c020ef          	jal	21ca8 <__mulsi3>
   1f590:	01c787b3          	add	a5,a5,t3
   1f594:	010a5693          	srl	a3,s4,0x10
   1f598:	00d787b3          	add	a5,a5,a3
   1f59c:	01c7f463          	bgeu	a5,t3,1f5a4 <__multf3+0x670>
   1f5a0:	00950533          	add	a0,a0,s1
   1f5a4:	00010937          	lui	s2,0x10
   1f5a8:	fff90693          	add	a3,s2,-1 # ffff <exit-0x95>
   1f5ac:	0107d493          	srl	s1,a5,0x10
   1f5b0:	00d7f7b3          	and	a5,a5,a3
   1f5b4:	00da7a33          	and	s4,s4,a3
   1f5b8:	0102db13          	srl	s6,t0,0x10
   1f5bc:	0109da93          	srl	s5,s3,0x10
   1f5c0:	00d2f2b3          	and	t0,t0,a3
   1f5c4:	00d9f9b3          	and	s3,s3,a3
   1f5c8:	01079793          	sll	a5,a5,0x10
   1f5cc:	00a484b3          	add	s1,s1,a0
   1f5d0:	014787b3          	add	a5,a5,s4
   1f5d4:	00028513          	mv	a0,t0
   1f5d8:	00098593          	mv	a1,s3
   1f5dc:	6cc020ef          	jal	21ca8 <__mulsi3>
   1f5e0:	00050e13          	mv	t3,a0
   1f5e4:	000a8593          	mv	a1,s5
   1f5e8:	00028513          	mv	a0,t0
   1f5ec:	6bc020ef          	jal	21ca8 <__mulsi3>
   1f5f0:	00050a13          	mv	s4,a0
   1f5f4:	00098593          	mv	a1,s3
   1f5f8:	000b0513          	mv	a0,s6
   1f5fc:	6ac020ef          	jal	21ca8 <__mulsi3>
   1f600:	00050993          	mv	s3,a0
   1f604:	000a8593          	mv	a1,s5
   1f608:	000b0513          	mv	a0,s6
   1f60c:	69c020ef          	jal	21ca8 <__mulsi3>
   1f610:	010e5293          	srl	t0,t3,0x10
   1f614:	013a0a33          	add	s4,s4,s3
   1f618:	014282b3          	add	t0,t0,s4
   1f61c:	00050693          	mv	a3,a0
   1f620:	0132f463          	bgeu	t0,s3,1f628 <__multf3+0x6f4>
   1f624:	012506b3          	add	a3,a0,s2
   1f628:	0102d913          	srl	s2,t0,0x10
   1f62c:	00010a37          	lui	s4,0x10
   1f630:	00d90933          	add	s2,s2,a3
   1f634:	fffa0693          	add	a3,s4,-1 # ffff <exit-0x95>
   1f638:	00d2f2b3          	and	t0,t0,a3
   1f63c:	00de7e33          	and	t3,t3,a3
   1f640:	010fdb13          	srl	s6,t6,0x10
   1f644:	00df7ab3          	and	s5,t5,a3
   1f648:	00dfffb3          	and	t6,t6,a3
   1f64c:	01029293          	sll	t0,t0,0x10
   1f650:	01c282b3          	add	t0,t0,t3
   1f654:	000a8513          	mv	a0,s5
   1f658:	010f5e13          	srl	t3,t5,0x10
   1f65c:	000f8593          	mv	a1,t6
   1f660:	648020ef          	jal	21ca8 <__mulsi3>
   1f664:	00050993          	mv	s3,a0
   1f668:	000b0593          	mv	a1,s6
   1f66c:	000a8513          	mv	a0,s5
   1f670:	638020ef          	jal	21ca8 <__mulsi3>
   1f674:	00050a93          	mv	s5,a0
   1f678:	000f8593          	mv	a1,t6
   1f67c:	000e0513          	mv	a0,t3
   1f680:	628020ef          	jal	21ca8 <__mulsi3>
   1f684:	00050f93          	mv	t6,a0
   1f688:	000b0593          	mv	a1,s6
   1f68c:	000e0513          	mv	a0,t3
   1f690:	618020ef          	jal	21ca8 <__mulsi3>
   1f694:	0109d693          	srl	a3,s3,0x10
   1f698:	01fa8633          	add	a2,s5,t6
   1f69c:	00c686b3          	add	a3,a3,a2
   1f6a0:	01f6f463          	bgeu	a3,t6,1f6a8 <__multf3+0x774>
   1f6a4:	01450533          	add	a0,a0,s4
   1f6a8:	00010e37          	lui	t3,0x10
   1f6ac:	fffe0613          	add	a2,t3,-1 # ffff <exit-0x95>
   1f6b0:	0106d593          	srl	a1,a3,0x10
   1f6b4:	00c6f6b3          	and	a3,a3,a2
   1f6b8:	00c9f9b3          	and	s3,s3,a2
   1f6bc:	01069693          	sll	a3,a3,0x10
   1f6c0:	00a585b3          	add	a1,a1,a0
   1f6c4:	01368533          	add	a0,a3,s3
   1f6c8:	04c12683          	lw	a3,76(sp)
   1f6cc:	05012f83          	lw	t6,80(sp)
   1f6d0:	02812983          	lw	s3,40(sp)
   1f6d4:	00e68733          	add	a4,a3,a4
   1f6d8:	007f83b3          	add	t2,t6,t2
   1f6dc:	00d736b3          	sltu	a3,a4,a3
   1f6e0:	00d386b3          	add	a3,t2,a3
   1f6e4:	00f707b3          	add	a5,a4,a5
   1f6e8:	009684b3          	add	s1,a3,s1
   1f6ec:	00e7b733          	sltu	a4,a5,a4
   1f6f0:	00e48733          	add	a4,s1,a4
   1f6f4:	005782b3          	add	t0,a5,t0
   1f6f8:	01f3bfb3          	sltu	t6,t2,t6
   1f6fc:	0076b3b3          	sltu	t2,a3,t2
   1f700:	00d4b6b3          	sltu	a3,s1,a3
   1f704:	009734b3          	sltu	s1,a4,s1
   1f708:	0096e6b3          	or	a3,a3,s1
   1f70c:	01270933          	add	s2,a4,s2
   1f710:	007fefb3          	or	t6,t6,t2
   1f714:	00f2b7b3          	sltu	a5,t0,a5
   1f718:	00df8fb3          	add	t6,t6,a3
   1f71c:	00f907b3          	add	a5,s2,a5
   1f720:	00a286b3          	add	a3,t0,a0
   1f724:	00b785b3          	add	a1,a5,a1
   1f728:	04d12623          	sw	a3,76(sp)
   1f72c:	0056b6b3          	sltu	a3,a3,t0
   1f730:	00d586b3          	add	a3,a1,a3
   1f734:	00e93733          	sltu	a4,s2,a4
   1f738:	0127b933          	sltu	s2,a5,s2
   1f73c:	01276733          	or	a4,a4,s2
   1f740:	04d12823          	sw	a3,80(sp)
   1f744:	00f5b7b3          	sltu	a5,a1,a5
   1f748:	00b6b6b3          	sltu	a3,a3,a1
   1f74c:	01f70733          	add	a4,a4,t6
   1f750:	00d7e7b3          	or	a5,a5,a3
   1f754:	00e787b3          	add	a5,a5,a4
   1f758:	04f12a23          	sw	a5,84(sp)
   1f75c:	010f5393          	srl	t2,t5,0x10
   1f760:	00c9f7b3          	and	a5,s3,a2
   1f764:	00cf7f33          	and	t5,t5,a2
   1f768:	0109d713          	srl	a4,s3,0x10
   1f76c:	000f0513          	mv	a0,t5
   1f770:	00078593          	mv	a1,a5
   1f774:	534020ef          	jal	21ca8 <__mulsi3>
   1f778:	00050f93          	mv	t6,a0
   1f77c:	00070593          	mv	a1,a4
   1f780:	000f0513          	mv	a0,t5
   1f784:	524020ef          	jal	21ca8 <__mulsi3>
   1f788:	00050f13          	mv	t5,a0
   1f78c:	00078593          	mv	a1,a5
   1f790:	00038513          	mv	a0,t2
   1f794:	514020ef          	jal	21ca8 <__mulsi3>
   1f798:	00050293          	mv	t0,a0
   1f79c:	00070593          	mv	a1,a4
   1f7a0:	00038513          	mv	a0,t2
   1f7a4:	504020ef          	jal	21ca8 <__mulsi3>
   1f7a8:	010fd793          	srl	a5,t6,0x10
   1f7ac:	005f0f33          	add	t5,t5,t0
   1f7b0:	01e787b3          	add	a5,a5,t5
   1f7b4:	00050713          	mv	a4,a0
   1f7b8:	0057f463          	bgeu	a5,t0,1f7c0 <__multf3+0x88c>
   1f7bc:	01c50733          	add	a4,a0,t3
   1f7c0:	01412f03          	lw	t5,20(sp)
   1f7c4:	0107d913          	srl	s2,a5,0x10
   1f7c8:	000103b7          	lui	t2,0x10
   1f7cc:	00e90933          	add	s2,s2,a4
   1f7d0:	fff38713          	add	a4,t2,-1 # ffff <exit-0x95>
   1f7d4:	00e7f7b3          	and	a5,a5,a4
   1f7d8:	00efffb3          	and	t6,t6,a4
   1f7dc:	010f5493          	srl	s1,t5,0x10
   1f7e0:	01079793          	sll	a5,a5,0x10
   1f7e4:	00ef7f33          	and	t5,t5,a4
   1f7e8:	00e37733          	and	a4,t1,a4
   1f7ec:	01f787b3          	add	a5,a5,t6
   1f7f0:	01035293          	srl	t0,t1,0x10
   1f7f4:	000f0513          	mv	a0,t5
   1f7f8:	00070593          	mv	a1,a4
   1f7fc:	4ac020ef          	jal	21ca8 <__mulsi3>
   1f800:	00050e13          	mv	t3,a0
   1f804:	00028593          	mv	a1,t0
   1f808:	000f0513          	mv	a0,t5
   1f80c:	49c020ef          	jal	21ca8 <__mulsi3>
   1f810:	00050f13          	mv	t5,a0
   1f814:	00070593          	mv	a1,a4
   1f818:	00048513          	mv	a0,s1
   1f81c:	48c020ef          	jal	21ca8 <__mulsi3>
   1f820:	00050f93          	mv	t6,a0
   1f824:	00028593          	mv	a1,t0
   1f828:	00048513          	mv	a0,s1
   1f82c:	47c020ef          	jal	21ca8 <__mulsi3>
   1f830:	010e5293          	srl	t0,t3,0x10
   1f834:	01ff0f33          	add	t5,t5,t6
   1f838:	01e282b3          	add	t0,t0,t5
   1f83c:	00050713          	mv	a4,a0
   1f840:	01f2f463          	bgeu	t0,t6,1f848 <__multf3+0x914>
   1f844:	00750733          	add	a4,a0,t2
   1f848:	0102d493          	srl	s1,t0,0x10
   1f84c:	00e484b3          	add	s1,s1,a4
   1f850:	00010fb7          	lui	t6,0x10
   1f854:	02412703          	lw	a4,36(sp)
   1f858:	ffff8693          	add	a3,t6,-1 # ffff <exit-0x95>
   1f85c:	00d2f2b3          	and	t0,t0,a3
   1f860:	00de7e33          	and	t3,t3,a3
   1f864:	01075a93          	srl	s5,a4,0x10
   1f868:	00deff33          	and	t5,t4,a3
   1f86c:	00d77733          	and	a4,a4,a3
   1f870:	01029293          	sll	t0,t0,0x10
   1f874:	01c282b3          	add	t0,t0,t3
   1f878:	010eda13          	srl	s4,t4,0x10
   1f87c:	000f0513          	mv	a0,t5
   1f880:	00070593          	mv	a1,a4
   1f884:	424020ef          	jal	21ca8 <__mulsi3>
   1f888:	00050e13          	mv	t3,a0
   1f88c:	000a8593          	mv	a1,s5
   1f890:	000f0513          	mv	a0,t5
   1f894:	414020ef          	jal	21ca8 <__mulsi3>
   1f898:	00050f13          	mv	t5,a0
   1f89c:	00070593          	mv	a1,a4
   1f8a0:	000a0513          	mv	a0,s4
   1f8a4:	404020ef          	jal	21ca8 <__mulsi3>
   1f8a8:	00050393          	mv	t2,a0
   1f8ac:	000a8593          	mv	a1,s5
   1f8b0:	000a0513          	mv	a0,s4
   1f8b4:	3f4020ef          	jal	21ca8 <__mulsi3>
   1f8b8:	010e5713          	srl	a4,t3,0x10
   1f8bc:	007f0f33          	add	t5,t5,t2
   1f8c0:	01e70733          	add	a4,a4,t5
   1f8c4:	00050693          	mv	a3,a0
   1f8c8:	00777463          	bgeu	a4,t2,1f8d0 <__multf3+0x99c>
   1f8cc:	01f506b3          	add	a3,a0,t6
   1f8d0:	01812f03          	lw	t5,24(sp)
   1f8d4:	01075393          	srl	t2,a4,0x10
   1f8d8:	00010fb7          	lui	t6,0x10
   1f8dc:	00d383b3          	add	t2,t2,a3
   1f8e0:	ffff8693          	add	a3,t6,-1 # ffff <exit-0x95>
   1f8e4:	00d77733          	and	a4,a4,a3
   1f8e8:	00de7e33          	and	t3,t3,a3
   1f8ec:	010f5b13          	srl	s6,t5,0x10
   1f8f0:	01035a93          	srl	s5,t1,0x10
   1f8f4:	00df7f33          	and	t5,t5,a3
   1f8f8:	00d37333          	and	t1,t1,a3
   1f8fc:	01071713          	sll	a4,a4,0x10
   1f900:	01c70733          	add	a4,a4,t3
   1f904:	000f0513          	mv	a0,t5
   1f908:	00030593          	mv	a1,t1
   1f90c:	39c020ef          	jal	21ca8 <__mulsi3>
   1f910:	00050e13          	mv	t3,a0
   1f914:	000a8593          	mv	a1,s5
   1f918:	000f0513          	mv	a0,t5
   1f91c:	38c020ef          	jal	21ca8 <__mulsi3>
   1f920:	00050a13          	mv	s4,a0
   1f924:	00030593          	mv	a1,t1
   1f928:	000b0513          	mv	a0,s6
   1f92c:	37c020ef          	jal	21ca8 <__mulsi3>
   1f930:	00050313          	mv	t1,a0
   1f934:	000a8593          	mv	a1,s5
   1f938:	000b0513          	mv	a0,s6
   1f93c:	36c020ef          	jal	21ca8 <__mulsi3>
   1f940:	010e5f13          	srl	t5,t3,0x10
   1f944:	006a0a33          	add	s4,s4,t1
   1f948:	014f0f33          	add	t5,t5,s4
   1f94c:	00050693          	mv	a3,a0
   1f950:	006f7463          	bgeu	t5,t1,1f958 <__multf3+0xa24>
   1f954:	01f506b3          	add	a3,a0,t6
   1f958:	010f5f93          	srl	t6,t5,0x10
   1f95c:	00010337          	lui	t1,0x10
   1f960:	00df8fb3          	add	t6,t6,a3
   1f964:	fff30693          	add	a3,t1,-1 # ffff <exit-0x95>
   1f968:	00df7f33          	and	t5,t5,a3
   1f96c:	00de7e33          	and	t3,t3,a3
   1f970:	010edb13          	srl	s6,t4,0x10
   1f974:	0109da93          	srl	s5,s3,0x10
   1f978:	00defeb3          	and	t4,t4,a3
   1f97c:	00d9f9b3          	and	s3,s3,a3
   1f980:	010f1f13          	sll	t5,t5,0x10
   1f984:	01cf0f33          	add	t5,t5,t3
   1f988:	000e8513          	mv	a0,t4
   1f98c:	00098593          	mv	a1,s3
   1f990:	318020ef          	jal	21ca8 <__mulsi3>
   1f994:	00050a13          	mv	s4,a0
   1f998:	000a8593          	mv	a1,s5
   1f99c:	000e8513          	mv	a0,t4
   1f9a0:	308020ef          	jal	21ca8 <__mulsi3>
   1f9a4:	00050e13          	mv	t3,a0
   1f9a8:	00098593          	mv	a1,s3
   1f9ac:	000b0513          	mv	a0,s6
   1f9b0:	2f8020ef          	jal	21ca8 <__mulsi3>
   1f9b4:	00050e93          	mv	t4,a0
   1f9b8:	000a8593          	mv	a1,s5
   1f9bc:	000b0513          	mv	a0,s6
   1f9c0:	2e8020ef          	jal	21ca8 <__mulsi3>
   1f9c4:	010a5693          	srl	a3,s4,0x10
   1f9c8:	01de0e33          	add	t3,t3,t4
   1f9cc:	01c686b3          	add	a3,a3,t3
   1f9d0:	00050613          	mv	a2,a0
   1f9d4:	01d6f463          	bgeu	a3,t4,1f9dc <__multf3+0xaa8>
   1f9d8:	00650633          	add	a2,a0,t1
   1f9dc:	00010e37          	lui	t3,0x10
   1f9e0:	fffe0313          	add	t1,t3,-1 # ffff <exit-0x95>
   1f9e4:	0106d593          	srl	a1,a3,0x10
   1f9e8:	0066f6b3          	and	a3,a3,t1
   1f9ec:	01069693          	sll	a3,a3,0x10
   1f9f0:	006a7a33          	and	s4,s4,t1
   1f9f4:	00c585b3          	add	a1,a1,a2
   1f9f8:	01468633          	add	a2,a3,s4
   1f9fc:	05012683          	lw	a3,80(sp)
   1fa00:	05412503          	lw	a0,84(sp)
   1fa04:	00f687b3          	add	a5,a3,a5
   1fa08:	01250933          	add	s2,a0,s2
   1fa0c:	00d7b6b3          	sltu	a3,a5,a3
   1fa10:	005782b3          	add	t0,a5,t0
   1fa14:	00d906b3          	add	a3,s2,a3
   1fa18:	009684b3          	add	s1,a3,s1
   1fa1c:	00f2b7b3          	sltu	a5,t0,a5
   1fa20:	00f487b3          	add	a5,s1,a5
   1fa24:	00e28733          	add	a4,t0,a4
   1fa28:	007783b3          	add	t2,a5,t2
   1fa2c:	04e12823          	sw	a4,80(sp)
   1fa30:	00573733          	sltu	a4,a4,t0
   1fa34:	00e38733          	add	a4,t2,a4
   1fa38:	00a93533          	sltu	a0,s2,a0
   1fa3c:	0126b933          	sltu	s2,a3,s2
   1fa40:	00d4b6b3          	sltu	a3,s1,a3
   1fa44:	0097b4b3          	sltu	s1,a5,s1
   1fa48:	0096e6b3          	or	a3,a3,s1
   1fa4c:	01256533          	or	a0,a0,s2
   1fa50:	00f3b7b3          	sltu	a5,t2,a5
   1fa54:	007733b3          	sltu	t2,a4,t2
   1fa58:	00d50533          	add	a0,a0,a3
   1fa5c:	0077e7b3          	or	a5,a5,t2
   1fa60:	01e70f33          	add	t5,a4,t5
   1fa64:	00a787b3          	add	a5,a5,a0
   1fa68:	01f78fb3          	add	t6,a5,t6
   1fa6c:	00ef3733          	sltu	a4,t5,a4
   1fa70:	00cf06b3          	add	a3,t5,a2
   1fa74:	00ef8733          	add	a4,t6,a4
   1fa78:	00b705b3          	add	a1,a4,a1
   1fa7c:	04d12a23          	sw	a3,84(sp)
   1fa80:	01e6b6b3          	sltu	a3,a3,t5
   1fa84:	00d586b3          	add	a3,a1,a3
   1fa88:	04d12c23          	sw	a3,88(sp)
   1fa8c:	00ffb7b3          	sltu	a5,t6,a5
   1fa90:	00b6b6b3          	sltu	a3,a3,a1
   1fa94:	01f73fb3          	sltu	t6,a4,t6
   1fa98:	00e5b733          	sltu	a4,a1,a4
   1fa9c:	00d76733          	or	a4,a4,a3
   1faa0:	01f7e7b3          	or	a5,a5,t6
   1faa4:	00e787b3          	add	a5,a5,a4
   1faa8:	04f12e23          	sw	a5,92(sp)
   1faac:	02c12703          	lw	a4,44(sp)
   1fab0:	01c12783          	lw	a5,28(sp)
   1fab4:	01075f13          	srl	t5,a4,0x10
   1fab8:	0107df93          	srl	t6,a5,0x10
   1fabc:	00677733          	and	a4,a4,t1
   1fac0:	0067f7b3          	and	a5,a5,t1
   1fac4:	00078513          	mv	a0,a5
   1fac8:	00070593          	mv	a1,a4
   1facc:	1dc020ef          	jal	21ca8 <__mulsi3>
   1fad0:	00050e93          	mv	t4,a0
   1fad4:	000f0593          	mv	a1,t5
   1fad8:	00078513          	mv	a0,a5
   1fadc:	1cc020ef          	jal	21ca8 <__mulsi3>
   1fae0:	00050793          	mv	a5,a0
   1fae4:	00070593          	mv	a1,a4
   1fae8:	000f8513          	mv	a0,t6
   1faec:	1bc020ef          	jal	21ca8 <__mulsi3>
   1faf0:	00050713          	mv	a4,a0
   1faf4:	000f0593          	mv	a1,t5
   1faf8:	000f8513          	mv	a0,t6
   1fafc:	1ac020ef          	jal	21ca8 <__mulsi3>
   1fb00:	00e787b3          	add	a5,a5,a4
   1fb04:	010ed693          	srl	a3,t4,0x10
   1fb08:	00d787b3          	add	a5,a5,a3
   1fb0c:	00e7f463          	bgeu	a5,a4,1fb14 <__multf3+0xbe0>
   1fb10:	01c50533          	add	a0,a0,t3
   1fb14:	05812683          	lw	a3,88(sp)
   1fb18:	0067f733          	and	a4,a5,t1
   1fb1c:	05c12603          	lw	a2,92(sp)
   1fb20:	01071713          	sll	a4,a4,0x10
   1fb24:	006efeb3          	and	t4,t4,t1
   1fb28:	01d70733          	add	a4,a4,t4
   1fb2c:	00e68733          	add	a4,a3,a4
   1fb30:	0107d793          	srl	a5,a5,0x10
   1fb34:	00d736b3          	sltu	a3,a4,a3
   1fb38:	00c787b3          	add	a5,a5,a2
   1fb3c:	00d787b3          	add	a5,a5,a3
   1fb40:	00a78533          	add	a0,a5,a0
   1fb44:	04e12c23          	sw	a4,88(sp)
   1fb48:	04012783          	lw	a5,64(sp)
   1fb4c:	04412703          	lw	a4,68(sp)
   1fb50:	04a12e23          	sw	a0,92(sp)
   1fb54:	05010593          	add	a1,sp,80
   1fb58:	00f76733          	or	a4,a4,a5
   1fb5c:	04812783          	lw	a5,72(sp)
   1fb60:	00f76733          	or	a4,a4,a5
   1fb64:	04c12783          	lw	a5,76(sp)
   1fb68:	00d79793          	sll	a5,a5,0xd
   1fb6c:	00e7e7b3          	or	a5,a5,a4
   1fb70:	04010713          	add	a4,sp,64
   1fb74:	00c72683          	lw	a3,12(a4)
   1fb78:	01072603          	lw	a2,16(a4)
   1fb7c:	00470713          	add	a4,a4,4
   1fb80:	0136d693          	srl	a3,a3,0x13
   1fb84:	00d61613          	sll	a2,a2,0xd
   1fb88:	00c6e6b3          	or	a3,a3,a2
   1fb8c:	fed72e23          	sw	a3,-4(a4)
   1fb90:	fee592e3          	bne	a1,a4,1fb74 <__multf3+0xc40>
   1fb94:	04012703          	lw	a4,64(sp)
   1fb98:	00f037b3          	snez	a5,a5
   1fb9c:	04c12683          	lw	a3,76(sp)
   1fba0:	00e7e7b3          	or	a5,a5,a4
   1fba4:	04812703          	lw	a4,72(sp)
   1fba8:	02d12e23          	sw	a3,60(sp)
   1fbac:	02f12823          	sw	a5,48(sp)
   1fbb0:	02e12c23          	sw	a4,56(sp)
   1fbb4:	04412703          	lw	a4,68(sp)
   1fbb8:	02e12a23          	sw	a4,52(sp)
   1fbbc:	00b69713          	sll	a4,a3,0xb
   1fbc0:	04075663          	bgez	a4,1fc0c <__multf3+0xcd8>
   1fbc4:	01f79793          	sll	a5,a5,0x1f
   1fbc8:	03010713          	add	a4,sp,48
   1fbcc:	03c10513          	add	a0,sp,60
   1fbd0:	00072603          	lw	a2,0(a4)
   1fbd4:	00472583          	lw	a1,4(a4)
   1fbd8:	00470713          	add	a4,a4,4
   1fbdc:	00165613          	srl	a2,a2,0x1
   1fbe0:	01f59593          	sll	a1,a1,0x1f
   1fbe4:	00b66633          	or	a2,a2,a1
   1fbe8:	fec72e23          	sw	a2,-4(a4)
   1fbec:	fee512e3          	bne	a0,a4,1fbd0 <__multf3+0xc9c>
   1fbf0:	03012703          	lw	a4,48(sp)
   1fbf4:	00f037b3          	snez	a5,a5
   1fbf8:	0016d693          	srl	a3,a3,0x1
   1fbfc:	00f767b3          	or	a5,a4,a5
   1fc00:	02d12e23          	sw	a3,60(sp)
   1fc04:	02f12823          	sw	a5,48(sp)
   1fc08:	000c0813          	mv	a6,s8
   1fc0c:	00080c13          	mv	s8,a6
   1fc10:	3700006f          	j	1ff80 <__multf3+0x104c>
   1fc14:	00a76633          	or	a2,a4,a0
   1fc18:	00d66633          	or	a2,a2,a3
   1fc1c:	00f66633          	or	a2,a2,a5
   1fc20:	14060263          	beqz	a2,1fd64 <__multf3+0xe30>
   1fc24:	0a078063          	beqz	a5,1fcc4 <__multf3+0xd90>
   1fc28:	00078513          	mv	a0,a5
   1fc2c:	154020ef          	jal	21d80 <__clzsi2>
   1fc30:	ff450613          	add	a2,a0,-12
   1fc34:	40565713          	sra	a4,a2,0x5
   1fc38:	01f67613          	and	a2,a2,31
   1fc3c:	40e007b3          	neg	a5,a4
   1fc40:	0a060c63          	beqz	a2,1fcf8 <__multf3+0xdc4>
   1fc44:	00279793          	sll	a5,a5,0x2
   1fc48:	00c78693          	add	a3,a5,12
   1fc4c:	02000813          	li	a6,32
   1fc50:	01010313          	add	t1,sp,16
   1fc54:	40c80833          	sub	a6,a6,a2
   1fc58:	00d306b3          	add	a3,t1,a3
   1fc5c:	40f007b3          	neg	a5,a5
   1fc60:	0cd31263          	bne	t1,a3,1fd24 <__multf3+0xdf0>
   1fc64:	fff70793          	add	a5,a4,-1
   1fc68:	00271713          	sll	a4,a4,0x2
   1fc6c:	01010693          	add	a3,sp,16
   1fc70:	05070713          	add	a4,a4,80
   1fc74:	00d70733          	add	a4,a4,a3
   1fc78:	01012683          	lw	a3,16(sp)
   1fc7c:	00c696b3          	sll	a3,a3,a2
   1fc80:	fad72823          	sw	a3,-80(a4)
   1fc84:	00178793          	add	a5,a5,1
   1fc88:	00279793          	sll	a5,a5,0x2
   1fc8c:	00800693          	li	a3,8
   1fc90:	01010713          	add	a4,sp,16
   1fc94:	00d7ea63          	bltu	a5,a3,1fca8 <__multf3+0xd74>
   1fc98:	00012823          	sw	zero,16(sp)
   1fc9c:	00072223          	sw	zero,4(a4)
   1fca0:	ff878793          	add	a5,a5,-8
   1fca4:	01810713          	add	a4,sp,24
   1fca8:	00400693          	li	a3,4
   1fcac:	00d7e463          	bltu	a5,a3,1fcb4 <__multf3+0xd80>
   1fcb0:	00072023          	sw	zero,0(a4)
   1fcb4:	ffffc9b7          	lui	s3,0xffffc
   1fcb8:	01198993          	add	s3,s3,17 # ffffc011 <__BSS_END__+0xfffd84f1>
   1fcbc:	40a989b3          	sub	s3,s3,a0
   1fcc0:	b5cff06f          	j	1f01c <__multf3+0xe8>
   1fcc4:	00068a63          	beqz	a3,1fcd8 <__multf3+0xda4>
   1fcc8:	00068513          	mv	a0,a3
   1fccc:	0b4020ef          	jal	21d80 <__clzsi2>
   1fcd0:	02050513          	add	a0,a0,32
   1fcd4:	f5dff06f          	j	1fc30 <__multf3+0xcfc>
   1fcd8:	00050863          	beqz	a0,1fce8 <__multf3+0xdb4>
   1fcdc:	0a4020ef          	jal	21d80 <__clzsi2>
   1fce0:	04050513          	add	a0,a0,64
   1fce4:	f4dff06f          	j	1fc30 <__multf3+0xcfc>
   1fce8:	00070513          	mv	a0,a4
   1fcec:	094020ef          	jal	21d80 <__clzsi2>
   1fcf0:	06050513          	add	a0,a0,96
   1fcf4:	f3dff06f          	j	1fc30 <__multf3+0xcfc>
   1fcf8:	01c10693          	add	a3,sp,28
   1fcfc:	00279793          	sll	a5,a5,0x2
   1fd00:	00300613          	li	a2,3
   1fd04:	00f685b3          	add	a1,a3,a5
   1fd08:	0005a583          	lw	a1,0(a1)
   1fd0c:	fff60613          	add	a2,a2,-1
   1fd10:	ffc68693          	add	a3,a3,-4 # fffc <exit-0x98>
   1fd14:	00b6a223          	sw	a1,4(a3)
   1fd18:	fee656e3          	bge	a2,a4,1fd04 <__multf3+0xdd0>
   1fd1c:	fff70793          	add	a5,a4,-1
   1fd20:	f65ff06f          	j	1fc84 <__multf3+0xd50>
   1fd24:	0006a583          	lw	a1,0(a3)
   1fd28:	ffc6a883          	lw	a7,-4(a3)
   1fd2c:	00f68e33          	add	t3,a3,a5
   1fd30:	00c595b3          	sll	a1,a1,a2
   1fd34:	0108d8b3          	srl	a7,a7,a6
   1fd38:	0115e5b3          	or	a1,a1,a7
   1fd3c:	00be2023          	sw	a1,0(t3)
   1fd40:	ffc68693          	add	a3,a3,-4
   1fd44:	f1dff06f          	j	1fc60 <__multf3+0xd2c>
   1fd48:	00a76733          	or	a4,a4,a0
   1fd4c:	00d76733          	or	a4,a4,a3
   1fd50:	00f76733          	or	a4,a4,a5
   1fd54:	00200b93          	li	s7,2
   1fd58:	ac070463          	beqz	a4,1f020 <__multf3+0xec>
   1fd5c:	00300b93          	li	s7,3
   1fd60:	ac0ff06f          	j	1f020 <__multf3+0xec>
   1fd64:	00000993          	li	s3,0
   1fd68:	00100b93          	li	s7,1
   1fd6c:	ab4ff06f          	j	1f020 <__multf3+0xec>
   1fd70:	016a67b3          	or	a5,s4,s6
   1fd74:	0157e7b3          	or	a5,a5,s5
   1fd78:	00a7e7b3          	or	a5,a5,a0
   1fd7c:	14078263          	beqz	a5,1fec0 <__multf3+0xf8c>
   1fd80:	08050e63          	beqz	a0,1fe1c <__multf3+0xee8>
   1fd84:	7fd010ef          	jal	21d80 <__clzsi2>
   1fd88:	ff450613          	add	a2,a0,-12
   1fd8c:	40565713          	sra	a4,a2,0x5
   1fd90:	01f67613          	and	a2,a2,31
   1fd94:	40e007b3          	neg	a5,a4
   1fd98:	0a060e63          	beqz	a2,1fe54 <__multf3+0xf20>
   1fd9c:	00279793          	sll	a5,a5,0x2
   1fda0:	00c78693          	add	a3,a5,12
   1fda4:	02000813          	li	a6,32
   1fda8:	02010313          	add	t1,sp,32
   1fdac:	40c80833          	sub	a6,a6,a2
   1fdb0:	00d306b3          	add	a3,t1,a3
   1fdb4:	40f007b3          	neg	a5,a5
   1fdb8:	0cd31463          	bne	t1,a3,1fe80 <__multf3+0xf4c>
   1fdbc:	fff70793          	add	a5,a4,-1
   1fdc0:	00271713          	sll	a4,a4,0x2
   1fdc4:	01010693          	add	a3,sp,16
   1fdc8:	05070713          	add	a4,a4,80
   1fdcc:	00d70733          	add	a4,a4,a3
   1fdd0:	02012683          	lw	a3,32(sp)
   1fdd4:	00c696b3          	sll	a3,a3,a2
   1fdd8:	fcd72023          	sw	a3,-64(a4)
   1fddc:	00178793          	add	a5,a5,1
   1fde0:	00279793          	sll	a5,a5,0x2
   1fde4:	00800693          	li	a3,8
   1fde8:	02010713          	add	a4,sp,32
   1fdec:	00d7ea63          	bltu	a5,a3,1fe00 <__multf3+0xecc>
   1fdf0:	02012023          	sw	zero,32(sp)
   1fdf4:	00072223          	sw	zero,4(a4)
   1fdf8:	ff878793          	add	a5,a5,-8
   1fdfc:	02810713          	add	a4,sp,40
   1fe00:	00400693          	li	a3,4
   1fe04:	00d7e463          	bltu	a5,a3,1fe0c <__multf3+0xed8>
   1fe08:	00072023          	sw	zero,0(a4)
   1fe0c:	ffffc837          	lui	a6,0xffffc
   1fe10:	01180813          	add	a6,a6,17 # ffffc011 <__BSS_END__+0xfffd84f1>
   1fe14:	40a80833          	sub	a6,a6,a0
   1fe18:	a94ff06f          	j	1f0ac <__multf3+0x178>
   1fe1c:	000a8a63          	beqz	s5,1fe30 <__multf3+0xefc>
   1fe20:	000a8513          	mv	a0,s5
   1fe24:	75d010ef          	jal	21d80 <__clzsi2>
   1fe28:	02050513          	add	a0,a0,32
   1fe2c:	f5dff06f          	j	1fd88 <__multf3+0xe54>
   1fe30:	000b0a63          	beqz	s6,1fe44 <__multf3+0xf10>
   1fe34:	000b0513          	mv	a0,s6
   1fe38:	749010ef          	jal	21d80 <__clzsi2>
   1fe3c:	04050513          	add	a0,a0,64
   1fe40:	f49ff06f          	j	1fd88 <__multf3+0xe54>
   1fe44:	000a0513          	mv	a0,s4
   1fe48:	739010ef          	jal	21d80 <__clzsi2>
   1fe4c:	06050513          	add	a0,a0,96
   1fe50:	f39ff06f          	j	1fd88 <__multf3+0xe54>
   1fe54:	02c10693          	add	a3,sp,44
   1fe58:	00279793          	sll	a5,a5,0x2
   1fe5c:	00300613          	li	a2,3
   1fe60:	00f685b3          	add	a1,a3,a5
   1fe64:	0005a583          	lw	a1,0(a1)
   1fe68:	fff60613          	add	a2,a2,-1
   1fe6c:	ffc68693          	add	a3,a3,-4
   1fe70:	00b6a223          	sw	a1,4(a3)
   1fe74:	fee656e3          	bge	a2,a4,1fe60 <__multf3+0xf2c>
   1fe78:	fff70793          	add	a5,a4,-1
   1fe7c:	f61ff06f          	j	1fddc <__multf3+0xea8>
   1fe80:	0006a583          	lw	a1,0(a3)
   1fe84:	ffc6a883          	lw	a7,-4(a3)
   1fe88:	00f68e33          	add	t3,a3,a5
   1fe8c:	00c595b3          	sll	a1,a1,a2
   1fe90:	0108d8b3          	srl	a7,a7,a6
   1fe94:	0115e5b3          	or	a1,a1,a7
   1fe98:	00be2023          	sw	a1,0(t3)
   1fe9c:	ffc68693          	add	a3,a3,-4
   1fea0:	f19ff06f          	j	1fdb8 <__multf3+0xe84>
   1fea4:	016a67b3          	or	a5,s4,s6
   1fea8:	0157e7b3          	or	a5,a5,s5
   1feac:	00a7e7b3          	or	a5,a5,a0
   1feb0:	00200693          	li	a3,2
   1feb4:	9e078e63          	beqz	a5,1f0b0 <__multf3+0x17c>
   1feb8:	00300693          	li	a3,3
   1febc:	9f4ff06f          	j	1f0b0 <__multf3+0x17c>
   1fec0:	00000813          	li	a6,0
   1fec4:	00100693          	li	a3,1
   1fec8:	9e8ff06f          	j	1f0b0 <__multf3+0x17c>
   1fecc:	00100713          	li	a4,1
   1fed0:	00f717b3          	sll	a5,a4,a5
   1fed4:	5307f713          	and	a4,a5,1328
   1fed8:	06071863          	bnez	a4,1ff48 <__multf3+0x1014>
   1fedc:	0887f713          	and	a4,a5,136
   1fee0:	04071063          	bnez	a4,1ff20 <__multf3+0xfec>
   1fee4:	2407f793          	and	a5,a5,576
   1fee8:	9e078c63          	beqz	a5,1f0e0 <__multf3+0x1ac>
   1feec:	000087b7          	lui	a5,0x8
   1fef0:	02f12e23          	sw	a5,60(sp)
   1fef4:	02012c23          	sw	zero,56(sp)
   1fef8:	02012a23          	sw	zero,52(sp)
   1fefc:	02012823          	sw	zero,48(sp)
   1ff00:	fff78793          	add	a5,a5,-1 # 7fff <exit-0x8095>
   1ff04:	00000893          	li	a7,0
   1ff08:	13c0006f          	j	20044 <__multf3+0x1110>
   1ff0c:	00f00713          	li	a4,15
   1ff10:	fce78ee3          	beq	a5,a4,1feec <__multf3+0xfb8>
   1ff14:	00b00713          	li	a4,11
   1ff18:	00048893          	mv	a7,s1
   1ff1c:	02e79663          	bne	a5,a4,1ff48 <__multf3+0x1014>
   1ff20:	00090893          	mv	a7,s2
   1ff24:	02012783          	lw	a5,32(sp)
   1ff28:	00068b93          	mv	s7,a3
   1ff2c:	02f12823          	sw	a5,48(sp)
   1ff30:	02412783          	lw	a5,36(sp)
   1ff34:	02f12a23          	sw	a5,52(sp)
   1ff38:	02812783          	lw	a5,40(sp)
   1ff3c:	02f12c23          	sw	a5,56(sp)
   1ff40:	02c12783          	lw	a5,44(sp)
   1ff44:	0200006f          	j	1ff64 <__multf3+0x1030>
   1ff48:	01012783          	lw	a5,16(sp)
   1ff4c:	02f12823          	sw	a5,48(sp)
   1ff50:	01412783          	lw	a5,20(sp)
   1ff54:	02f12a23          	sw	a5,52(sp)
   1ff58:	01812783          	lw	a5,24(sp)
   1ff5c:	02f12c23          	sw	a5,56(sp)
   1ff60:	01c12783          	lw	a5,28(sp)
   1ff64:	02f12e23          	sw	a5,60(sp)
   1ff68:	00200793          	li	a5,2
   1ff6c:	36fb8063          	beq	s7,a5,202cc <__multf3+0x1398>
   1ff70:	00300793          	li	a5,3
   1ff74:	f6fb8ce3          	beq	s7,a5,1feec <__multf3+0xfb8>
   1ff78:	00100793          	li	a5,1
   1ff7c:	32fb8e63          	beq	s7,a5,202b8 <__multf3+0x1384>
   1ff80:	000047b7          	lui	a5,0x4
   1ff84:	fff78793          	add	a5,a5,-1 # 3fff <exit-0xc095>
   1ff88:	00fc07b3          	add	a5,s8,a5
   1ff8c:	12f05663          	blez	a5,200b8 <__multf3+0x1184>
   1ff90:	03012703          	lw	a4,48(sp)
   1ff94:	00777693          	and	a3,a4,7
   1ff98:	04068463          	beqz	a3,1ffe0 <__multf3+0x10ac>
   1ff9c:	00f77693          	and	a3,a4,15
   1ffa0:	00400613          	li	a2,4
   1ffa4:	02c68e63          	beq	a3,a2,1ffe0 <__multf3+0x10ac>
   1ffa8:	00470713          	add	a4,a4,4
   1ffac:	00473693          	sltiu	a3,a4,4
   1ffb0:	02e12823          	sw	a4,48(sp)
   1ffb4:	03412703          	lw	a4,52(sp)
   1ffb8:	00e68733          	add	a4,a3,a4
   1ffbc:	02e12a23          	sw	a4,52(sp)
   1ffc0:	00d73733          	sltu	a4,a4,a3
   1ffc4:	03812683          	lw	a3,56(sp)
   1ffc8:	00e68733          	add	a4,a3,a4
   1ffcc:	02e12c23          	sw	a4,56(sp)
   1ffd0:	00d73733          	sltu	a4,a4,a3
   1ffd4:	03c12683          	lw	a3,60(sp)
   1ffd8:	00d70733          	add	a4,a4,a3
   1ffdc:	02e12e23          	sw	a4,60(sp)
   1ffe0:	03c12703          	lw	a4,60(sp)
   1ffe4:	00b71693          	sll	a3,a4,0xb
   1ffe8:	0006de63          	bgez	a3,20004 <__multf3+0x10d0>
   1ffec:	fff007b7          	lui	a5,0xfff00
   1fff0:	fff78793          	add	a5,a5,-1 # ffefffff <__BSS_END__+0xffedc4df>
   1fff4:	00f77733          	and	a4,a4,a5
   1fff8:	000047b7          	lui	a5,0x4
   1fffc:	02e12e23          	sw	a4,60(sp)
   20000:	00fc07b3          	add	a5,s8,a5
   20004:	03010713          	add	a4,sp,48
   20008:	03c10593          	add	a1,sp,60
   2000c:	00072683          	lw	a3,0(a4)
   20010:	00472603          	lw	a2,4(a4)
   20014:	00470713          	add	a4,a4,4
   20018:	0036d693          	srl	a3,a3,0x3
   2001c:	01d61613          	sll	a2,a2,0x1d
   20020:	00c6e6b3          	or	a3,a3,a2
   20024:	fed72e23          	sw	a3,-4(a4)
   20028:	fee592e3          	bne	a1,a4,2000c <__multf3+0x10d8>
   2002c:	000086b7          	lui	a3,0x8
   20030:	ffe68693          	add	a3,a3,-2 # 7ffe <exit-0x8096>
   20034:	03c12703          	lw	a4,60(sp)
   20038:	28f6ca63          	blt	a3,a5,202cc <__multf3+0x1398>
   2003c:	00375713          	srl	a4,a4,0x3
   20040:	02e12e23          	sw	a4,60(sp)
   20044:	00f89893          	sll	a7,a7,0xf
   20048:	00f8e8b3          	or	a7,a7,a5
   2004c:	03012783          	lw	a5,48(sp)
   20050:	03c12703          	lw	a4,60(sp)
   20054:	05111723          	sh	a7,78(sp)
   20058:	00f42023          	sw	a5,0(s0)
   2005c:	03412783          	lw	a5,52(sp)
   20060:	04e11623          	sh	a4,76(sp)
   20064:	09c12083          	lw	ra,156(sp)
   20068:	00f42223          	sw	a5,4(s0)
   2006c:	03812783          	lw	a5,56(sp)
   20070:	00040513          	mv	a0,s0
   20074:	09412483          	lw	s1,148(sp)
   20078:	00f42423          	sw	a5,8(s0)
   2007c:	04c12783          	lw	a5,76(sp)
   20080:	09012903          	lw	s2,144(sp)
   20084:	08c12983          	lw	s3,140(sp)
   20088:	00f42623          	sw	a5,12(s0)
   2008c:	09812403          	lw	s0,152(sp)
   20090:	08812a03          	lw	s4,136(sp)
   20094:	08412a83          	lw	s5,132(sp)
   20098:	08012b03          	lw	s6,128(sp)
   2009c:	07c12b83          	lw	s7,124(sp)
   200a0:	07812c03          	lw	s8,120(sp)
   200a4:	07412c83          	lw	s9,116(sp)
   200a8:	07012d03          	lw	s10,112(sp)
   200ac:	06c12d83          	lw	s11,108(sp)
   200b0:	0a010113          	add	sp,sp,160
   200b4:	00008067          	ret
   200b8:	00100693          	li	a3,1
   200bc:	40f686b3          	sub	a3,a3,a5
   200c0:	07400793          	li	a5,116
   200c4:	1cd7ca63          	blt	a5,a3,20298 <__multf3+0x1364>
   200c8:	03010513          	add	a0,sp,48
   200cc:	4056d713          	sra	a4,a3,0x5
   200d0:	00050593          	mv	a1,a0
   200d4:	01f6f693          	and	a3,a3,31
   200d8:	00000793          	li	a5,0
   200dc:	00000613          	li	a2,0
   200e0:	02e61e63          	bne	a2,a4,2011c <__multf3+0x11e8>
   200e4:	00300613          	li	a2,3
   200e8:	40e60633          	sub	a2,a2,a4
   200ec:	00271593          	sll	a1,a4,0x2
   200f0:	04069063          	bnez	a3,20130 <__multf3+0x11fc>
   200f4:	00050813          	mv	a6,a0
   200f8:	00b80333          	add	t1,a6,a1
   200fc:	00032303          	lw	t1,0(t1)
   20100:	00168693          	add	a3,a3,1
   20104:	00480813          	add	a6,a6,4
   20108:	fe682e23          	sw	t1,-4(a6)
   2010c:	fed656e3          	bge	a2,a3,200f8 <__multf3+0x11c4>
   20110:	00400693          	li	a3,4
   20114:	40e68733          	sub	a4,a3,a4
   20118:	06c0006f          	j	20184 <__multf3+0x1250>
   2011c:	0005a803          	lw	a6,0(a1)
   20120:	00160613          	add	a2,a2,1
   20124:	00458593          	add	a1,a1,4
   20128:	0107e7b3          	or	a5,a5,a6
   2012c:	fb5ff06f          	j	200e0 <__multf3+0x11ac>
   20130:	05058813          	add	a6,a1,80
   20134:	01010e13          	add	t3,sp,16
   20138:	01c80833          	add	a6,a6,t3
   2013c:	fd082803          	lw	a6,-48(a6)
   20140:	02000313          	li	t1,32
   20144:	40d30333          	sub	t1,t1,a3
   20148:	00681833          	sll	a6,a6,t1
   2014c:	0107e7b3          	or	a5,a5,a6
   20150:	00b505b3          	add	a1,a0,a1
   20154:	00050e93          	mv	t4,a0
   20158:	00000e13          	li	t3,0
   2015c:	0ece4063          	blt	t3,a2,2023c <__multf3+0x1308>
   20160:	00400593          	li	a1,4
   20164:	00261613          	sll	a2,a2,0x2
   20168:	40e58733          	sub	a4,a1,a4
   2016c:	05060613          	add	a2,a2,80
   20170:	01010593          	add	a1,sp,16
   20174:	00b60633          	add	a2,a2,a1
   20178:	03c12583          	lw	a1,60(sp)
   2017c:	00d5d6b3          	srl	a3,a1,a3
   20180:	fcd62823          	sw	a3,-48(a2)
   20184:	00400693          	li	a3,4
   20188:	40e686b3          	sub	a3,a3,a4
   2018c:	00269693          	sll	a3,a3,0x2
   20190:	00271713          	sll	a4,a4,0x2
   20194:	00800613          	li	a2,8
   20198:	00e50733          	add	a4,a0,a4
   2019c:	00c6ea63          	bltu	a3,a2,201b0 <__multf3+0x127c>
   201a0:	00072023          	sw	zero,0(a4)
   201a4:	00072223          	sw	zero,4(a4)
   201a8:	ff868693          	add	a3,a3,-8
   201ac:	00870713          	add	a4,a4,8
   201b0:	00400613          	li	a2,4
   201b4:	00c6e463          	bltu	a3,a2,201bc <__multf3+0x1288>
   201b8:	00072023          	sw	zero,0(a4)
   201bc:	03012703          	lw	a4,48(sp)
   201c0:	00f037b3          	snez	a5,a5
   201c4:	00e7e7b3          	or	a5,a5,a4
   201c8:	02f12823          	sw	a5,48(sp)
   201cc:	0077f713          	and	a4,a5,7
   201d0:	04070463          	beqz	a4,20218 <__multf3+0x12e4>
   201d4:	00f7f713          	and	a4,a5,15
   201d8:	00400693          	li	a3,4
   201dc:	02d70e63          	beq	a4,a3,20218 <__multf3+0x12e4>
   201e0:	03412703          	lw	a4,52(sp)
   201e4:	00478793          	add	a5,a5,4 # 4004 <exit-0xc090>
   201e8:	02f12823          	sw	a5,48(sp)
   201ec:	0047b793          	sltiu	a5,a5,4
   201f0:	00f707b3          	add	a5,a4,a5
   201f4:	02f12a23          	sw	a5,52(sp)
   201f8:	00e7b7b3          	sltu	a5,a5,a4
   201fc:	03812703          	lw	a4,56(sp)
   20200:	00f707b3          	add	a5,a4,a5
   20204:	02f12c23          	sw	a5,56(sp)
   20208:	00e7b7b3          	sltu	a5,a5,a4
   2020c:	03c12703          	lw	a4,60(sp)
   20210:	00e787b3          	add	a5,a5,a4
   20214:	02f12e23          	sw	a5,60(sp)
   20218:	03c12703          	lw	a4,60(sp)
   2021c:	00c71793          	sll	a5,a4,0xc
   20220:	0407d263          	bgez	a5,20264 <__multf3+0x1330>
   20224:	02012e23          	sw	zero,60(sp)
   20228:	02012c23          	sw	zero,56(sp)
   2022c:	02012a23          	sw	zero,52(sp)
   20230:	02012823          	sw	zero,48(sp)
   20234:	00100793          	li	a5,1
   20238:	e0dff06f          	j	20044 <__multf3+0x1110>
   2023c:	0005a803          	lw	a6,0(a1)
   20240:	0045af03          	lw	t5,4(a1)
   20244:	00458593          	add	a1,a1,4
   20248:	00d85833          	srl	a6,a6,a3
   2024c:	006f1f33          	sll	t5,t5,t1
   20250:	01e86833          	or	a6,a6,t5
   20254:	010ea023          	sw	a6,0(t4)
   20258:	001e0e13          	add	t3,t3,1
   2025c:	004e8e93          	add	t4,t4,4
   20260:	efdff06f          	j	2015c <__multf3+0x1228>
   20264:	00c50613          	add	a2,a0,12
   20268:	00052783          	lw	a5,0(a0)
   2026c:	00452683          	lw	a3,4(a0)
   20270:	00450513          	add	a0,a0,4
   20274:	0037d793          	srl	a5,a5,0x3
   20278:	01d69693          	sll	a3,a3,0x1d
   2027c:	00d7e7b3          	or	a5,a5,a3
   20280:	fef52e23          	sw	a5,-4(a0)
   20284:	fea612e3          	bne	a2,a0,20268 <__multf3+0x1334>
   20288:	00375713          	srl	a4,a4,0x3
   2028c:	02e12e23          	sw	a4,60(sp)
   20290:	00000793          	li	a5,0
   20294:	db1ff06f          	j	20044 <__multf3+0x1110>
   20298:	03412703          	lw	a4,52(sp)
   2029c:	03012783          	lw	a5,48(sp)
   202a0:	00e7e7b3          	or	a5,a5,a4
   202a4:	03812703          	lw	a4,56(sp)
   202a8:	00e7e7b3          	or	a5,a5,a4
   202ac:	03c12703          	lw	a4,60(sp)
   202b0:	00e7e7b3          	or	a5,a5,a4
   202b4:	fc078ee3          	beqz	a5,20290 <__multf3+0x135c>
   202b8:	02012e23          	sw	zero,60(sp)
   202bc:	02012c23          	sw	zero,56(sp)
   202c0:	02012a23          	sw	zero,52(sp)
   202c4:	02012823          	sw	zero,48(sp)
   202c8:	fc9ff06f          	j	20290 <__multf3+0x135c>
   202cc:	000087b7          	lui	a5,0x8
   202d0:	02012e23          	sw	zero,60(sp)
   202d4:	02012c23          	sw	zero,56(sp)
   202d8:	02012a23          	sw	zero,52(sp)
   202dc:	02012823          	sw	zero,48(sp)
   202e0:	fff78793          	add	a5,a5,-1 # 7fff <exit-0x8095>
   202e4:	d61ff06f          	j	20044 <__multf3+0x1110>

000202e8 <__subtf3>:
   202e8:	f9010113          	add	sp,sp,-112
   202ec:	0085a703          	lw	a4,8(a1)
   202f0:	05512a23          	sw	s5,84(sp)
   202f4:	00c5aa83          	lw	s5,12(a1)
   202f8:	0005a783          	lw	a5,0(a1)
   202fc:	0045a683          	lw	a3,4(a1)
   20300:	02e12c23          	sw	a4,56(sp)
   20304:	00e12c23          	sw	a4,24(sp)
   20308:	010a9713          	sll	a4,s5,0x10
   2030c:	06912223          	sw	s1,100(sp)
   20310:	01075713          	srl	a4,a4,0x10
   20314:	001a9493          	sll	s1,s5,0x1
   20318:	00462803          	lw	a6,4(a2)
   2031c:	00862583          	lw	a1,8(a2)
   20320:	06812423          	sw	s0,104(sp)
   20324:	07212023          	sw	s2,96(sp)
   20328:	00062403          	lw	s0,0(a2)
   2032c:	00c62903          	lw	s2,12(a2)
   20330:	05412c23          	sw	s4,88(sp)
   20334:	03512e23          	sw	s5,60(sp)
   20338:	00050a13          	mv	s4,a0
   2033c:	06112623          	sw	ra,108(sp)
   20340:	05312e23          	sw	s3,92(sp)
   20344:	05612823          	sw	s6,80(sp)
   20348:	05712623          	sw	s7,76(sp)
   2034c:	05812423          	sw	s8,72(sp)
   20350:	02f12823          	sw	a5,48(sp)
   20354:	02d12a23          	sw	a3,52(sp)
   20358:	00f12823          	sw	a5,16(sp)
   2035c:	00d12a23          	sw	a3,20(sp)
   20360:	00e12e23          	sw	a4,28(sp)
   20364:	0114d493          	srl	s1,s1,0x11
   20368:	01fada93          	srl	s5,s5,0x1f
   2036c:	01010513          	add	a0,sp,16
   20370:	01c10613          	add	a2,sp,28
   20374:	00062703          	lw	a4,0(a2)
   20378:	ffc62683          	lw	a3,-4(a2)
   2037c:	ffc60613          	add	a2,a2,-4
   20380:	00371713          	sll	a4,a4,0x3
   20384:	01d6d693          	srl	a3,a3,0x1d
   20388:	00d76733          	or	a4,a4,a3
   2038c:	00e62223          	sw	a4,4(a2)
   20390:	fec512e3          	bne	a0,a2,20374 <__subtf3+0x8c>
   20394:	01091713          	sll	a4,s2,0x10
   20398:	00191b93          	sll	s7,s2,0x1
   2039c:	00379793          	sll	a5,a5,0x3
   203a0:	01075713          	srl	a4,a4,0x10
   203a4:	03012a23          	sw	a6,52(sp)
   203a8:	03212e23          	sw	s2,60(sp)
   203ac:	03012223          	sw	a6,36(sp)
   203b0:	00f12823          	sw	a5,16(sp)
   203b4:	02812823          	sw	s0,48(sp)
   203b8:	02b12c23          	sw	a1,56(sp)
   203bc:	02812023          	sw	s0,32(sp)
   203c0:	02b12423          	sw	a1,40(sp)
   203c4:	02e12623          	sw	a4,44(sp)
   203c8:	011bdb93          	srl	s7,s7,0x11
   203cc:	01f95913          	srl	s2,s2,0x1f
   203d0:	02010813          	add	a6,sp,32
   203d4:	02c10313          	add	t1,sp,44
   203d8:	00032703          	lw	a4,0(t1)
   203dc:	ffc32683          	lw	a3,-4(t1)
   203e0:	ffc30313          	add	t1,t1,-4
   203e4:	00371713          	sll	a4,a4,0x3
   203e8:	01d6d693          	srl	a3,a3,0x1d
   203ec:	00d76733          	or	a4,a4,a3
   203f0:	00e32223          	sw	a4,4(t1)
   203f4:	fe6812e3          	bne	a6,t1,203d8 <__subtf3+0xf0>
   203f8:	00341413          	sll	s0,s0,0x3
   203fc:	00008737          	lui	a4,0x8
   20400:	02812023          	sw	s0,32(sp)
   20404:	fff70713          	add	a4,a4,-1 # 7fff <exit-0x8095>
   20408:	02eb9063          	bne	s7,a4,20428 <__subtf3+0x140>
   2040c:	02812683          	lw	a3,40(sp)
   20410:	02412703          	lw	a4,36(sp)
   20414:	00d76733          	or	a4,a4,a3
   20418:	02c12683          	lw	a3,44(sp)
   2041c:	00d76733          	or	a4,a4,a3
   20420:	00876733          	or	a4,a4,s0
   20424:	00071463          	bnez	a4,2042c <__subtf3+0x144>
   20428:	00194913          	xor	s2,s2,1
   2042c:	417488b3          	sub	a7,s1,s7
   20430:	0b5914e3          	bne	s2,s5,20cd8 <__subtf3+0x9f0>
   20434:	45105063          	blez	a7,20874 <__subtf3+0x58c>
   20438:	01412903          	lw	s2,20(sp)
   2043c:	01812983          	lw	s3,24(sp)
   20440:	01c12b03          	lw	s6,28(sp)
   20444:	0a0b9263          	bnez	s7,204e8 <__subtf3+0x200>
   20448:	02412683          	lw	a3,36(sp)
   2044c:	02812703          	lw	a4,40(sp)
   20450:	02c12583          	lw	a1,44(sp)
   20454:	00e6e633          	or	a2,a3,a4
   20458:	00b66633          	or	a2,a2,a1
   2045c:	00866633          	or	a2,a2,s0
   20460:	00061e63          	bnez	a2,2047c <__subtf3+0x194>
   20464:	02f12823          	sw	a5,48(sp)
   20468:	03212a23          	sw	s2,52(sp)
   2046c:	03312c23          	sw	s3,56(sp)
   20470:	03612e23          	sw	s6,60(sp)
   20474:	00088493          	mv	s1,a7
   20478:	08c0006f          	j	20504 <__subtf3+0x21c>
   2047c:	fff88613          	add	a2,a7,-1
   20480:	04061863          	bnez	a2,204d0 <__subtf3+0x1e8>
   20484:	00878433          	add	s0,a5,s0
   20488:	01268933          	add	s2,a3,s2
   2048c:	02812823          	sw	s0,48(sp)
   20490:	00f43433          	sltu	s0,s0,a5
   20494:	00890433          	add	s0,s2,s0
   20498:	02812a23          	sw	s0,52(sp)
   2049c:	00d936b3          	sltu	a3,s2,a3
   204a0:	01243433          	sltu	s0,s0,s2
   204a4:	013709b3          	add	s3,a4,s3
   204a8:	0086e6b3          	or	a3,a3,s0
   204ac:	00d986b3          	add	a3,s3,a3
   204b0:	02d12c23          	sw	a3,56(sp)
   204b4:	00e9b7b3          	sltu	a5,s3,a4
   204b8:	0136b6b3          	sltu	a3,a3,s3
   204bc:	00d7e7b3          	or	a5,a5,a3
   204c0:	016585b3          	add	a1,a1,s6
   204c4:	00b787b3          	add	a5,a5,a1
   204c8:	00100493          	li	s1,1
   204cc:	2f80006f          	j	207c4 <__subtf3+0x4dc>
   204d0:	00008737          	lui	a4,0x8
   204d4:	fff70713          	add	a4,a4,-1 # 7fff <exit-0x8095>
   204d8:	00e88463          	beq	a7,a4,204e0 <__subtf3+0x1f8>
   204dc:	2a00106f          	j	2177c <__subtf3+0x1494>
   204e0:	02f12823          	sw	a5,48(sp)
   204e4:	43c0006f          	j	20920 <__subtf3+0x638>
   204e8:	00008737          	lui	a4,0x8
   204ec:	fff70713          	add	a4,a4,-1 # 7fff <exit-0x8095>
   204f0:	16e49a63          	bne	s1,a4,20664 <__subtf3+0x37c>
   204f4:	02f12823          	sw	a5,48(sp)
   204f8:	03212a23          	sw	s2,52(sp)
   204fc:	03312c23          	sw	s3,56(sp)
   20500:	03612e23          	sw	s6,60(sp)
   20504:	03012783          	lw	a5,48(sp)
   20508:	0077f713          	and	a4,a5,7
   2050c:	04070463          	beqz	a4,20554 <__subtf3+0x26c>
   20510:	00f7f713          	and	a4,a5,15
   20514:	00400693          	li	a3,4
   20518:	02d70e63          	beq	a4,a3,20554 <__subtf3+0x26c>
   2051c:	03412703          	lw	a4,52(sp)
   20520:	00478793          	add	a5,a5,4
   20524:	02f12823          	sw	a5,48(sp)
   20528:	0047b793          	sltiu	a5,a5,4
   2052c:	00f707b3          	add	a5,a4,a5
   20530:	02f12a23          	sw	a5,52(sp)
   20534:	00e7b7b3          	sltu	a5,a5,a4
   20538:	03812703          	lw	a4,56(sp)
   2053c:	00f707b3          	add	a5,a4,a5
   20540:	02f12c23          	sw	a5,56(sp)
   20544:	00e7b7b3          	sltu	a5,a5,a4
   20548:	03c12703          	lw	a4,60(sp)
   2054c:	00e787b3          	add	a5,a5,a4
   20550:	02f12e23          	sw	a5,60(sp)
   20554:	03c12783          	lw	a5,60(sp)
   20558:	00c79713          	sll	a4,a5,0xc
   2055c:	02075463          	bgez	a4,20584 <__subtf3+0x29c>
   20560:	00008737          	lui	a4,0x8
   20564:	00148493          	add	s1,s1,1
   20568:	fff70713          	add	a4,a4,-1 # 7fff <exit-0x8095>
   2056c:	00e49463          	bne	s1,a4,20574 <__subtf3+0x28c>
   20570:	1f80106f          	j	21768 <__subtf3+0x1480>
   20574:	fff80737          	lui	a4,0xfff80
   20578:	fff70713          	add	a4,a4,-1 # fff7ffff <__BSS_END__+0xfff5c4df>
   2057c:	00e7f7b3          	and	a5,a5,a4
   20580:	02f12e23          	sw	a5,60(sp)
   20584:	03010793          	add	a5,sp,48
   20588:	03c10613          	add	a2,sp,60
   2058c:	0007a703          	lw	a4,0(a5)
   20590:	0047a683          	lw	a3,4(a5)
   20594:	00478793          	add	a5,a5,4
   20598:	00375713          	srl	a4,a4,0x3
   2059c:	01d69693          	sll	a3,a3,0x1d
   205a0:	00d76733          	or	a4,a4,a3
   205a4:	fee7ae23          	sw	a4,-4(a5)
   205a8:	fec792e3          	bne	a5,a2,2058c <__subtf3+0x2a4>
   205ac:	03c12703          	lw	a4,60(sp)
   205b0:	000086b7          	lui	a3,0x8
   205b4:	fff68793          	add	a5,a3,-1 # 7fff <exit-0x8095>
   205b8:	00375713          	srl	a4,a4,0x3
   205bc:	02e12e23          	sw	a4,60(sp)
   205c0:	02f49a63          	bne	s1,a5,205f4 <__subtf3+0x30c>
   205c4:	03412603          	lw	a2,52(sp)
   205c8:	03012783          	lw	a5,48(sp)
   205cc:	00c7e7b3          	or	a5,a5,a2
   205d0:	03812603          	lw	a2,56(sp)
   205d4:	00c7e7b3          	or	a5,a5,a2
   205d8:	00e7e7b3          	or	a5,a5,a4
   205dc:	00078c63          	beqz	a5,205f4 <__subtf3+0x30c>
   205e0:	02d12e23          	sw	a3,60(sp)
   205e4:	02012c23          	sw	zero,56(sp)
   205e8:	02012a23          	sw	zero,52(sp)
   205ec:	02012823          	sw	zero,48(sp)
   205f0:	00000a93          	li	s5,0
   205f4:	03c12783          	lw	a5,60(sp)
   205f8:	01149493          	sll	s1,s1,0x11
   205fc:	0114d493          	srl	s1,s1,0x11
   20600:	00f11623          	sh	a5,12(sp)
   20604:	03012783          	lw	a5,48(sp)
   20608:	00fa9a93          	sll	s5,s5,0xf
   2060c:	009aeab3          	or	s5,s5,s1
   20610:	00fa2023          	sw	a5,0(s4)
   20614:	03412783          	lw	a5,52(sp)
   20618:	01511723          	sh	s5,14(sp)
   2061c:	06c12083          	lw	ra,108(sp)
   20620:	00fa2223          	sw	a5,4(s4)
   20624:	03812783          	lw	a5,56(sp)
   20628:	06812403          	lw	s0,104(sp)
   2062c:	06412483          	lw	s1,100(sp)
   20630:	00fa2423          	sw	a5,8(s4)
   20634:	00c12783          	lw	a5,12(sp)
   20638:	06012903          	lw	s2,96(sp)
   2063c:	05c12983          	lw	s3,92(sp)
   20640:	00fa2623          	sw	a5,12(s4)
   20644:	05412a83          	lw	s5,84(sp)
   20648:	05012b03          	lw	s6,80(sp)
   2064c:	04c12b83          	lw	s7,76(sp)
   20650:	04812c03          	lw	s8,72(sp)
   20654:	000a0513          	mv	a0,s4
   20658:	05812a03          	lw	s4,88(sp)
   2065c:	07010113          	add	sp,sp,112
   20660:	00008067          	ret
   20664:	02c12703          	lw	a4,44(sp)
   20668:	000806b7          	lui	a3,0x80
   2066c:	00d76733          	or	a4,a4,a3
   20670:	02e12623          	sw	a4,44(sp)
   20674:	07400713          	li	a4,116
   20678:	01175463          	bge	a4,a7,20680 <__subtf3+0x398>
   2067c:	10c0106f          	j	21788 <__subtf3+0x14a0>
   20680:	00088613          	mv	a2,a7
   20684:	40565693          	sra	a3,a2,0x5
   20688:	00030513          	mv	a0,t1
   2068c:	01f67613          	and	a2,a2,31
   20690:	00000713          	li	a4,0
   20694:	00000593          	li	a1,0
   20698:	02d59c63          	bne	a1,a3,206d0 <__subtf3+0x3e8>
   2069c:	00300593          	li	a1,3
   206a0:	40d585b3          	sub	a1,a1,a3
   206a4:	00269513          	sll	a0,a3,0x2
   206a8:	02061e63          	bnez	a2,206e4 <__subtf3+0x3fc>
   206ac:	00a308b3          	add	a7,t1,a0
   206b0:	0008a883          	lw	a7,0(a7)
   206b4:	00160613          	add	a2,a2,1
   206b8:	00430313          	add	t1,t1,4
   206bc:	ff132e23          	sw	a7,-4(t1)
   206c0:	fec5d6e3          	bge	a1,a2,206ac <__subtf3+0x3c4>
   206c4:	00400613          	li	a2,4
   206c8:	40d606b3          	sub	a3,a2,a3
   206cc:	0600006f          	j	2072c <__subtf3+0x444>
   206d0:	00052883          	lw	a7,0(a0)
   206d4:	00158593          	add	a1,a1,1
   206d8:	00450513          	add	a0,a0,4
   206dc:	01176733          	or	a4,a4,a7
   206e0:	fb9ff06f          	j	20698 <__subtf3+0x3b0>
   206e4:	04050893          	add	a7,a0,64
   206e8:	002888b3          	add	a7,a7,sp
   206ec:	fe08a883          	lw	a7,-32(a7)
   206f0:	02000e13          	li	t3,32
   206f4:	40ce0e33          	sub	t3,t3,a2
   206f8:	01c898b3          	sll	a7,a7,t3
   206fc:	01176733          	or	a4,a4,a7
   20700:	00a80533          	add	a0,a6,a0
   20704:	00000e93          	li	t4,0
   20708:	14bec263          	blt	t4,a1,2084c <__subtf3+0x564>
   2070c:	00400513          	li	a0,4
   20710:	40d506b3          	sub	a3,a0,a3
   20714:	02c12503          	lw	a0,44(sp)
   20718:	00259593          	sll	a1,a1,0x2
   2071c:	04058593          	add	a1,a1,64
   20720:	002585b3          	add	a1,a1,sp
   20724:	00c55633          	srl	a2,a0,a2
   20728:	fec5a023          	sw	a2,-32(a1)
   2072c:	00400613          	li	a2,4
   20730:	40d60633          	sub	a2,a2,a3
   20734:	00261613          	sll	a2,a2,0x2
   20738:	00269693          	sll	a3,a3,0x2
   2073c:	00800593          	li	a1,8
   20740:	00d806b3          	add	a3,a6,a3
   20744:	00b66a63          	bltu	a2,a1,20758 <__subtf3+0x470>
   20748:	0006a023          	sw	zero,0(a3) # 80000 <__BSS_END__+0x5c4e0>
   2074c:	0006a223          	sw	zero,4(a3)
   20750:	ff860613          	add	a2,a2,-8
   20754:	00868693          	add	a3,a3,8
   20758:	00400593          	li	a1,4
   2075c:	00b66463          	bltu	a2,a1,20764 <__subtf3+0x47c>
   20760:	0006a023          	sw	zero,0(a3)
   20764:	02012683          	lw	a3,32(sp)
   20768:	00e03733          	snez	a4,a4
   2076c:	00d76733          	or	a4,a4,a3
   20770:	02412683          	lw	a3,36(sp)
   20774:	02e12023          	sw	a4,32(sp)
   20778:	00e78733          	add	a4,a5,a4
   2077c:	01268933          	add	s2,a3,s2
   20780:	02e12823          	sw	a4,48(sp)
   20784:	00f73733          	sltu	a4,a4,a5
   20788:	02812783          	lw	a5,40(sp)
   2078c:	00e90733          	add	a4,s2,a4
   20790:	02e12a23          	sw	a4,52(sp)
   20794:	00d936b3          	sltu	a3,s2,a3
   20798:	01273733          	sltu	a4,a4,s2
   2079c:	013789b3          	add	s3,a5,s3
   207a0:	00e6e733          	or	a4,a3,a4
   207a4:	00e98733          	add	a4,s3,a4
   207a8:	02e12c23          	sw	a4,56(sp)
   207ac:	00f9b7b3          	sltu	a5,s3,a5
   207b0:	01373733          	sltu	a4,a4,s3
   207b4:	00e7e7b3          	or	a5,a5,a4
   207b8:	02c12703          	lw	a4,44(sp)
   207bc:	00eb0733          	add	a4,s6,a4
   207c0:	00e787b3          	add	a5,a5,a4
   207c4:	02f12e23          	sw	a5,60(sp)
   207c8:	00c79713          	sll	a4,a5,0xc
   207cc:	d2075ce3          	bgez	a4,20504 <__subtf3+0x21c>
   207d0:	03012683          	lw	a3,48(sp)
   207d4:	fff80737          	lui	a4,0xfff80
   207d8:	fff70713          	add	a4,a4,-1 # fff7ffff <__BSS_END__+0xfff5c4df>
   207dc:	00e7f7b3          	and	a5,a5,a4
   207e0:	02f12e23          	sw	a5,60(sp)
   207e4:	00148493          	add	s1,s1,1
   207e8:	01f69693          	sll	a3,a3,0x1f
   207ec:	03010713          	add	a4,sp,48
   207f0:	03c10513          	add	a0,sp,60
   207f4:	00072603          	lw	a2,0(a4)
   207f8:	00472583          	lw	a1,4(a4)
   207fc:	00470713          	add	a4,a4,4
   20800:	00165613          	srl	a2,a2,0x1
   20804:	01f59593          	sll	a1,a1,0x1f
   20808:	00b66633          	or	a2,a2,a1
   2080c:	fec72e23          	sw	a2,-4(a4)
   20810:	fee512e3          	bne	a0,a4,207f4 <__subtf3+0x50c>
   20814:	03012703          	lw	a4,48(sp)
   20818:	0017d793          	srl	a5,a5,0x1
   2081c:	02f12e23          	sw	a5,60(sp)
   20820:	00d037b3          	snez	a5,a3
   20824:	00f767b3          	or	a5,a4,a5
   20828:	02f12823          	sw	a5,48(sp)
   2082c:	000087b7          	lui	a5,0x8
   20830:	fff78793          	add	a5,a5,-1 # 7fff <exit-0x8095>
   20834:	ccf498e3          	bne	s1,a5,20504 <__subtf3+0x21c>
   20838:	02012e23          	sw	zero,60(sp)
   2083c:	02012c23          	sw	zero,56(sp)
   20840:	02012a23          	sw	zero,52(sp)
   20844:	02012823          	sw	zero,48(sp)
   20848:	cbdff06f          	j	20504 <__subtf3+0x21c>
   2084c:	00052883          	lw	a7,0(a0)
   20850:	00452f03          	lw	t5,4(a0)
   20854:	00450513          	add	a0,a0,4
   20858:	00c8d8b3          	srl	a7,a7,a2
   2085c:	01cf1f33          	sll	t5,t5,t3
   20860:	01e8e8b3          	or	a7,a7,t5
   20864:	01132023          	sw	a7,0(t1)
   20868:	001e8e93          	add	t4,t4,1
   2086c:	00430313          	add	t1,t1,4
   20870:	e99ff06f          	j	20708 <__subtf3+0x420>
   20874:	02412903          	lw	s2,36(sp)
   20878:	02812983          	lw	s3,40(sp)
   2087c:	02c12b03          	lw	s6,44(sp)
   20880:	28088063          	beqz	a7,20b00 <__subtf3+0x818>
   20884:	409b85b3          	sub	a1,s7,s1
   20888:	0a049c63          	bnez	s1,20940 <__subtf3+0x658>
   2088c:	01412683          	lw	a3,20(sp)
   20890:	01812703          	lw	a4,24(sp)
   20894:	01c12883          	lw	a7,28(sp)
   20898:	00e6e833          	or	a6,a3,a4
   2089c:	01186833          	or	a6,a6,a7
   208a0:	00f86833          	or	a6,a6,a5
   208a4:	00081e63          	bnez	a6,208c0 <__subtf3+0x5d8>
   208a8:	02812823          	sw	s0,48(sp)
   208ac:	03212a23          	sw	s2,52(sp)
   208b0:	03312c23          	sw	s3,56(sp)
   208b4:	03612e23          	sw	s6,60(sp)
   208b8:	00058493          	mv	s1,a1
   208bc:	c49ff06f          	j	20504 <__subtf3+0x21c>
   208c0:	fff58813          	add	a6,a1,-1
   208c4:	04081663          	bnez	a6,20910 <__subtf3+0x628>
   208c8:	00878433          	add	s0,a5,s0
   208cc:	01268933          	add	s2,a3,s2
   208d0:	02812823          	sw	s0,48(sp)
   208d4:	00f43433          	sltu	s0,s0,a5
   208d8:	00890433          	add	s0,s2,s0
   208dc:	02812a23          	sw	s0,52(sp)
   208e0:	00d936b3          	sltu	a3,s2,a3
   208e4:	01243433          	sltu	s0,s0,s2
   208e8:	013709b3          	add	s3,a4,s3
   208ec:	0086e6b3          	or	a3,a3,s0
   208f0:	00d986b3          	add	a3,s3,a3
   208f4:	00e9b7b3          	sltu	a5,s3,a4
   208f8:	02d12c23          	sw	a3,56(sp)
   208fc:	0136b6b3          	sltu	a3,a3,s3
   20900:	00d7e7b3          	or	a5,a5,a3
   20904:	01688733          	add	a4,a7,s6
   20908:	00e787b3          	add	a5,a5,a4
   2090c:	bbdff06f          	j	204c8 <__subtf3+0x1e0>
   20910:	000087b7          	lui	a5,0x8
   20914:	fff78793          	add	a5,a5,-1 # 7fff <exit-0x8095>
   20918:	68f592e3          	bne	a1,a5,2179c <__subtf3+0x14b4>
   2091c:	02812823          	sw	s0,48(sp)
   20920:	03212a23          	sw	s2,52(sp)
   20924:	03312c23          	sw	s3,56(sp)
   20928:	03612e23          	sw	s6,60(sp)
   2092c:	000084b7          	lui	s1,0x8
   20930:	fff48493          	add	s1,s1,-1 # 7fff <exit-0x8095>
   20934:	bd1ff06f          	j	20504 <__subtf3+0x21c>
   20938:	00078413          	mv	s0,a5
   2093c:	fe1ff06f          	j	2091c <__subtf3+0x634>
   20940:	000087b7          	lui	a5,0x8
   20944:	fff78793          	add	a5,a5,-1 # 7fff <exit-0x8095>
   20948:	fcfb8ae3          	beq	s7,a5,2091c <__subtf3+0x634>
   2094c:	01c12783          	lw	a5,28(sp)
   20950:	00080737          	lui	a4,0x80
   20954:	00e7e7b3          	or	a5,a5,a4
   20958:	00f12e23          	sw	a5,28(sp)
   2095c:	07400793          	li	a5,116
   20960:	64b7c2e3          	blt	a5,a1,217a4 <__subtf3+0x14bc>
   20964:	00058813          	mv	a6,a1
   20968:	41f85713          	sra	a4,a6,0x1f
   2096c:	01f77713          	and	a4,a4,31
   20970:	01070733          	add	a4,a4,a6
   20974:	40575713          	sra	a4,a4,0x5
   20978:	00060693          	mv	a3,a2
   2097c:	00000493          	li	s1,0
   20980:	00000793          	li	a5,0
   20984:	02e7ce63          	blt	a5,a4,209c0 <__subtf3+0x6d8>
   20988:	00300793          	li	a5,3
   2098c:	01f87893          	and	a7,a6,31
   20990:	40e787b3          	sub	a5,a5,a4
   20994:	00271593          	sll	a1,a4,0x2
   20998:	02089e63          	bnez	a7,209d4 <__subtf3+0x6ec>
   2099c:	00b606b3          	add	a3,a2,a1
   209a0:	0006a683          	lw	a3,0(a3)
   209a4:	00188893          	add	a7,a7,1
   209a8:	00460613          	add	a2,a2,4
   209ac:	fed62e23          	sw	a3,-4(a2)
   209b0:	ff17d6e3          	bge	a5,a7,2099c <__subtf3+0x6b4>
   209b4:	00400793          	li	a5,4
   209b8:	40e78733          	sub	a4,a5,a4
   209bc:	0900006f          	j	20a4c <__subtf3+0x764>
   209c0:	0006a583          	lw	a1,0(a3)
   209c4:	00178793          	add	a5,a5,1
   209c8:	00468693          	add	a3,a3,4
   209cc:	00b4e4b3          	or	s1,s1,a1
   209d0:	fb5ff06f          	j	20984 <__subtf3+0x69c>
   209d4:	800006b7          	lui	a3,0x80000
   209d8:	01f68693          	add	a3,a3,31 # 8000001f <__BSS_END__+0x7ffdc4ff>
   209dc:	00d876b3          	and	a3,a6,a3
   209e0:	0006d863          	bgez	a3,209f0 <__subtf3+0x708>
   209e4:	fff68693          	add	a3,a3,-1
   209e8:	fe06e693          	or	a3,a3,-32
   209ec:	00168693          	add	a3,a3,1
   209f0:	02000813          	li	a6,32
   209f4:	40d80833          	sub	a6,a6,a3
   209f8:	00070693          	mv	a3,a4
   209fc:	00075463          	bgez	a4,20a04 <__subtf3+0x71c>
   20a00:	00000693          	li	a3,0
   20a04:	00269693          	sll	a3,a3,0x2
   20a08:	04068693          	add	a3,a3,64
   20a0c:	002686b3          	add	a3,a3,sp
   20a10:	fd06a683          	lw	a3,-48(a3)
   20a14:	00000313          	li	t1,0
   20a18:	010696b3          	sll	a3,a3,a6
   20a1c:	00d4e4b3          	or	s1,s1,a3
   20a20:	00b506b3          	add	a3,a0,a1
   20a24:	00468693          	add	a3,a3,4
   20a28:	0af34a63          	blt	t1,a5,20adc <__subtf3+0x7f4>
   20a2c:	00400693          	li	a3,4
   20a30:	40e68733          	sub	a4,a3,a4
   20a34:	01c12683          	lw	a3,28(sp)
   20a38:	00279793          	sll	a5,a5,0x2
   20a3c:	04078793          	add	a5,a5,64
   20a40:	002787b3          	add	a5,a5,sp
   20a44:	0116d6b3          	srl	a3,a3,a7
   20a48:	fcd7a823          	sw	a3,-48(a5)
   20a4c:	00572793          	slti	a5,a4,5
   20a50:	00000613          	li	a2,0
   20a54:	00078863          	beqz	a5,20a64 <__subtf3+0x77c>
   20a58:	00400613          	li	a2,4
   20a5c:	40e60633          	sub	a2,a2,a4
   20a60:	00261613          	sll	a2,a2,0x2
   20a64:	00271713          	sll	a4,a4,0x2
   20a68:	00e50533          	add	a0,a0,a4
   20a6c:	00000593          	li	a1,0
   20a70:	91cf00ef          	jal	10b8c <memset>
   20a74:	01012703          	lw	a4,16(sp)
   20a78:	009037b3          	snez	a5,s1
   20a7c:	00e7e7b3          	or	a5,a5,a4
   20a80:	01412683          	lw	a3,20(sp)
   20a84:	00f12823          	sw	a5,16(sp)
   20a88:	00f407b3          	add	a5,s0,a5
   20a8c:	01268933          	add	s2,a3,s2
   20a90:	02f12823          	sw	a5,48(sp)
   20a94:	0087b7b3          	sltu	a5,a5,s0
   20a98:	00f90733          	add	a4,s2,a5
   20a9c:	01812783          	lw	a5,24(sp)
   20aa0:	02e12a23          	sw	a4,52(sp)
   20aa4:	00d936b3          	sltu	a3,s2,a3
   20aa8:	01273733          	sltu	a4,a4,s2
   20aac:	013789b3          	add	s3,a5,s3
   20ab0:	00e6e733          	or	a4,a3,a4
   20ab4:	00e98733          	add	a4,s3,a4
   20ab8:	02e12c23          	sw	a4,56(sp)
   20abc:	00f9b7b3          	sltu	a5,s3,a5
   20ac0:	01373733          	sltu	a4,a4,s3
   20ac4:	00e7e7b3          	or	a5,a5,a4
   20ac8:	01c12703          	lw	a4,28(sp)
   20acc:	000b8493          	mv	s1,s7
   20ad0:	00eb0733          	add	a4,s6,a4
   20ad4:	00e787b3          	add	a5,a5,a4
   20ad8:	cedff06f          	j	207c4 <__subtf3+0x4dc>
   20adc:	ffc6a583          	lw	a1,-4(a3)
   20ae0:	0006ae03          	lw	t3,0(a3)
   20ae4:	00130313          	add	t1,t1,1
   20ae8:	0115d5b3          	srl	a1,a1,a7
   20aec:	010e1e33          	sll	t3,t3,a6
   20af0:	01c5e5b3          	or	a1,a1,t3
   20af4:	00b62023          	sw	a1,0(a2)
   20af8:	00460613          	add	a2,a2,4
   20afc:	f29ff06f          	j	20a24 <__subtf3+0x73c>
   20b00:	00148813          	add	a6,s1,1
   20b04:	01181893          	sll	a7,a6,0x11
   20b08:	0128d893          	srl	a7,a7,0x12
   20b0c:	01412683          	lw	a3,20(sp)
   20b10:	01812703          	lw	a4,24(sp)
   20b14:	01c12603          	lw	a2,28(sp)
   20b18:	03010593          	add	a1,sp,48
   20b1c:	03c10513          	add	a0,sp,60
   20b20:	10089e63          	bnez	a7,20c3c <__subtf3+0x954>
   20b24:	00e6e833          	or	a6,a3,a4
   20b28:	00c86833          	or	a6,a6,a2
   20b2c:	00f86833          	or	a6,a6,a5
   20b30:	0a049863          	bnez	s1,20be0 <__subtf3+0x8f8>
   20b34:	00081e63          	bnez	a6,20b50 <__subtf3+0x868>
   20b38:	02812823          	sw	s0,48(sp)
   20b3c:	03212a23          	sw	s2,52(sp)
   20b40:	03312c23          	sw	s3,56(sp)
   20b44:	03612e23          	sw	s6,60(sp)
   20b48:	00000493          	li	s1,0
   20b4c:	9b9ff06f          	j	20504 <__subtf3+0x21c>
   20b50:	013965b3          	or	a1,s2,s3
   20b54:	0165e5b3          	or	a1,a1,s6
   20b58:	0085e5b3          	or	a1,a1,s0
   20b5c:	00059c63          	bnez	a1,20b74 <__subtf3+0x88c>
   20b60:	02f12823          	sw	a5,48(sp)
   20b64:	02d12a23          	sw	a3,52(sp)
   20b68:	02e12c23          	sw	a4,56(sp)
   20b6c:	02c12e23          	sw	a2,60(sp)
   20b70:	995ff06f          	j	20504 <__subtf3+0x21c>
   20b74:	00878433          	add	s0,a5,s0
   20b78:	01268933          	add	s2,a3,s2
   20b7c:	02812823          	sw	s0,48(sp)
   20b80:	00f43433          	sltu	s0,s0,a5
   20b84:	00890433          	add	s0,s2,s0
   20b88:	02812a23          	sw	s0,52(sp)
   20b8c:	00d936b3          	sltu	a3,s2,a3
   20b90:	01243433          	sltu	s0,s0,s2
   20b94:	013709b3          	add	s3,a4,s3
   20b98:	0086e6b3          	or	a3,a3,s0
   20b9c:	00d986b3          	add	a3,s3,a3
   20ba0:	02d12c23          	sw	a3,56(sp)
   20ba4:	00e9b733          	sltu	a4,s3,a4
   20ba8:	0136b6b3          	sltu	a3,a3,s3
   20bac:	00d76733          	or	a4,a4,a3
   20bb0:	01660633          	add	a2,a2,s6
   20bb4:	00c70733          	add	a4,a4,a2
   20bb8:	00c71793          	sll	a5,a4,0xc
   20bbc:	0007c663          	bltz	a5,20bc8 <__subtf3+0x8e0>
   20bc0:	02e12e23          	sw	a4,60(sp)
   20bc4:	941ff06f          	j	20504 <__subtf3+0x21c>
   20bc8:	fff807b7          	lui	a5,0xfff80
   20bcc:	fff78793          	add	a5,a5,-1 # fff7ffff <__BSS_END__+0xfff5c4df>
   20bd0:	00f77733          	and	a4,a4,a5
   20bd4:	02e12e23          	sw	a4,60(sp)
   20bd8:	00100493          	li	s1,1
   20bdc:	929ff06f          	j	20504 <__subtf3+0x21c>
   20be0:	1a080663          	beqz	a6,20d8c <__subtf3+0xaa4>
   20be4:	01396933          	or	s2,s2,s3
   20be8:	01696933          	or	s2,s2,s6
   20bec:	00896933          	or	s2,s2,s0
   20bf0:	1a090263          	beqz	s2,20d94 <__subtf3+0xaac>
   20bf4:	000087b7          	lui	a5,0x8
   20bf8:	02f12e23          	sw	a5,60(sp)
   20bfc:	02012c23          	sw	zero,56(sp)
   20c00:	02012a23          	sw	zero,52(sp)
   20c04:	02012823          	sw	zero,48(sp)
   20c08:	00050793          	mv	a5,a0
   20c0c:	0007a703          	lw	a4,0(a5) # 8000 <exit-0x8094>
   20c10:	ffc7a683          	lw	a3,-4(a5)
   20c14:	ffc78793          	add	a5,a5,-4
   20c18:	00371713          	sll	a4,a4,0x3
   20c1c:	01d6d693          	srl	a3,a3,0x1d
   20c20:	00d76733          	or	a4,a4,a3
   20c24:	00e7a223          	sw	a4,4(a5)
   20c28:	fef592e3          	bne	a1,a5,20c0c <__subtf3+0x924>
   20c2c:	000084b7          	lui	s1,0x8
   20c30:	fff48493          	add	s1,s1,-1 # 7fff <exit-0x8095>
   20c34:	00000a93          	li	s5,0
   20c38:	8cdff06f          	j	20504 <__subtf3+0x21c>
   20c3c:	00878433          	add	s0,a5,s0
   20c40:	01268933          	add	s2,a3,s2
   20c44:	02812823          	sw	s0,48(sp)
   20c48:	00f43433          	sltu	s0,s0,a5
   20c4c:	00890433          	add	s0,s2,s0
   20c50:	02812a23          	sw	s0,52(sp)
   20c54:	00d936b3          	sltu	a3,s2,a3
   20c58:	01243433          	sltu	s0,s0,s2
   20c5c:	013709b3          	add	s3,a4,s3
   20c60:	0086e6b3          	or	a3,a3,s0
   20c64:	00d986b3          	add	a3,s3,a3
   20c68:	02d12c23          	sw	a3,56(sp)
   20c6c:	00e9b733          	sltu	a4,s3,a4
   20c70:	0136b6b3          	sltu	a3,a3,s3
   20c74:	00d76733          	or	a4,a4,a3
   20c78:	01660633          	add	a2,a2,s6
   20c7c:	00c70733          	add	a4,a4,a2
   20c80:	02e12e23          	sw	a4,60(sp)
   20c84:	00058793          	mv	a5,a1
   20c88:	0007a683          	lw	a3,0(a5)
   20c8c:	0047a603          	lw	a2,4(a5)
   20c90:	00478793          	add	a5,a5,4
   20c94:	0016d693          	srl	a3,a3,0x1
   20c98:	01f61613          	sll	a2,a2,0x1f
   20c9c:	00c6e6b3          	or	a3,a3,a2
   20ca0:	fed7ae23          	sw	a3,-4(a5)
   20ca4:	fef512e3          	bne	a0,a5,20c88 <__subtf3+0x9a0>
   20ca8:	000087b7          	lui	a5,0x8
   20cac:	fff78793          	add	a5,a5,-1 # 7fff <exit-0x8095>
   20cb0:	00f80a63          	beq	a6,a5,20cc4 <__subtf3+0x9dc>
   20cb4:	00175713          	srl	a4,a4,0x1
   20cb8:	02e12e23          	sw	a4,60(sp)
   20cbc:	00080493          	mv	s1,a6
   20cc0:	845ff06f          	j	20504 <__subtf3+0x21c>
   20cc4:	02012e23          	sw	zero,60(sp)
   20cc8:	02012c23          	sw	zero,56(sp)
   20ccc:	02012a23          	sw	zero,52(sp)
   20cd0:	02012823          	sw	zero,48(sp)
   20cd4:	fe9ff06f          	j	20cbc <__subtf3+0x9d4>
   20cd8:	29105a63          	blez	a7,20f6c <__subtf3+0xc84>
   20cdc:	01412903          	lw	s2,20(sp)
   20ce0:	01812983          	lw	s3,24(sp)
   20ce4:	01c12b03          	lw	s6,28(sp)
   20ce8:	0a0b9e63          	bnez	s7,20da4 <__subtf3+0xabc>
   20cec:	02412e03          	lw	t3,36(sp)
   20cf0:	02812503          	lw	a0,40(sp)
   20cf4:	02c12683          	lw	a3,44(sp)
   20cf8:	00ae6733          	or	a4,t3,a0
   20cfc:	00d76733          	or	a4,a4,a3
   20d00:	00876733          	or	a4,a4,s0
   20d04:	f6070063          	beqz	a4,20464 <__subtf3+0x17c>
   20d08:	fff88e93          	add	t4,a7,-1
   20d0c:	040e9c63          	bnez	t4,20d64 <__subtf3+0xa7c>
   20d10:	40878733          	sub	a4,a5,s0
   20d14:	41c90633          	sub	a2,s2,t3
   20d18:	00e7b5b3          	sltu	a1,a5,a4
   20d1c:	00c93833          	sltu	a6,s2,a2
   20d20:	40b60633          	sub	a2,a2,a1
   20d24:	00000593          	li	a1,0
   20d28:	00e7f663          	bgeu	a5,a4,20d34 <__subtf3+0xa4c>
   20d2c:	412e0e33          	sub	t3,t3,s2
   20d30:	001e3593          	seqz	a1,t3
   20d34:	0105e7b3          	or	a5,a1,a6
   20d38:	40a985b3          	sub	a1,s3,a0
   20d3c:	00b9b833          	sltu	a6,s3,a1
   20d40:	40f585b3          	sub	a1,a1,a5
   20d44:	00078663          	beqz	a5,20d50 <__subtf3+0xa68>
   20d48:	41350533          	sub	a0,a0,s3
   20d4c:	00153e93          	seqz	t4,a0
   20d50:	40db07b3          	sub	a5,s6,a3
   20d54:	010ee6b3          	or	a3,t4,a6
   20d58:	40d787b3          	sub	a5,a5,a3
   20d5c:	00100493          	li	s1,1
   20d60:	1b80006f          	j	20f18 <__subtf3+0xc30>
   20d64:	00008737          	lui	a4,0x8
   20d68:	fff70713          	add	a4,a4,-1 # 7fff <exit-0x8095>
   20d6c:	f6e88a63          	beq	a7,a4,204e0 <__subtf3+0x1f8>
   20d70:	07400713          	li	a4,116
   20d74:	05d75c63          	bge	a4,t4,20dcc <__subtf3+0xae4>
   20d78:	02012623          	sw	zero,44(sp)
   20d7c:	02012423          	sw	zero,40(sp)
   20d80:	02012223          	sw	zero,36(sp)
   20d84:	00100713          	li	a4,1
   20d88:	1300006f          	j	20eb8 <__subtf3+0xbd0>
   20d8c:	00040793          	mv	a5,s0
   20d90:	f50ff06f          	j	204e0 <__subtf3+0x1f8>
   20d94:	00068913          	mv	s2,a3
   20d98:	00070993          	mv	s3,a4
   20d9c:	00060b13          	mv	s6,a2
   20da0:	f40ff06f          	j	204e0 <__subtf3+0x1f8>
   20da4:	00008737          	lui	a4,0x8
   20da8:	fff70713          	add	a4,a4,-1 # 7fff <exit-0x8095>
   20dac:	b8e486e3          	beq	s1,a4,20938 <__subtf3+0x650>
   20db0:	02c12703          	lw	a4,44(sp)
   20db4:	000806b7          	lui	a3,0x80
   20db8:	00d76733          	or	a4,a4,a3
   20dbc:	02e12623          	sw	a4,44(sp)
   20dc0:	07400713          	li	a4,116
   20dc4:	fb174ae3          	blt	a4,a7,20d78 <__subtf3+0xa90>
   20dc8:	00088e93          	mv	t4,a7
   20dcc:	405ed693          	sra	a3,t4,0x5
   20dd0:	00030593          	mv	a1,t1
   20dd4:	01fefe93          	and	t4,t4,31
   20dd8:	00000713          	li	a4,0
   20ddc:	00000613          	li	a2,0
   20de0:	02d61c63          	bne	a2,a3,20e18 <__subtf3+0xb30>
   20de4:	00300613          	li	a2,3
   20de8:	40d60633          	sub	a2,a2,a3
   20dec:	00269593          	sll	a1,a3,0x2
   20df0:	020e9e63          	bnez	t4,20e2c <__subtf3+0xb44>
   20df4:	00b30533          	add	a0,t1,a1
   20df8:	00052503          	lw	a0,0(a0)
   20dfc:	001e8e93          	add	t4,t4,1
   20e00:	00430313          	add	t1,t1,4
   20e04:	fea32e23          	sw	a0,-4(t1)
   20e08:	ffd656e3          	bge	a2,t4,20df4 <__subtf3+0xb0c>
   20e0c:	00400613          	li	a2,4
   20e10:	40d606b3          	sub	a3,a2,a3
   20e14:	0600006f          	j	20e74 <__subtf3+0xb8c>
   20e18:	0005a503          	lw	a0,0(a1)
   20e1c:	00160613          	add	a2,a2,1
   20e20:	00458593          	add	a1,a1,4
   20e24:	00a76733          	or	a4,a4,a0
   20e28:	fb9ff06f          	j	20de0 <__subtf3+0xaf8>
   20e2c:	04058513          	add	a0,a1,64
   20e30:	00250533          	add	a0,a0,sp
   20e34:	fe052503          	lw	a0,-32(a0)
   20e38:	02000893          	li	a7,32
   20e3c:	41d888b3          	sub	a7,a7,t4
   20e40:	01151533          	sll	a0,a0,a7
   20e44:	00a76733          	or	a4,a4,a0
   20e48:	00b805b3          	add	a1,a6,a1
   20e4c:	00000e13          	li	t3,0
   20e50:	0ece4a63          	blt	t3,a2,20f44 <__subtf3+0xc5c>
   20e54:	00400593          	li	a1,4
   20e58:	40d586b3          	sub	a3,a1,a3
   20e5c:	02c12583          	lw	a1,44(sp)
   20e60:	00261613          	sll	a2,a2,0x2
   20e64:	04060613          	add	a2,a2,64
   20e68:	00260633          	add	a2,a2,sp
   20e6c:	01d5d5b3          	srl	a1,a1,t4
   20e70:	feb62023          	sw	a1,-32(a2)
   20e74:	00400613          	li	a2,4
   20e78:	40d60633          	sub	a2,a2,a3
   20e7c:	00261613          	sll	a2,a2,0x2
   20e80:	00269693          	sll	a3,a3,0x2
   20e84:	00800593          	li	a1,8
   20e88:	00d806b3          	add	a3,a6,a3
   20e8c:	00b66a63          	bltu	a2,a1,20ea0 <__subtf3+0xbb8>
   20e90:	0006a023          	sw	zero,0(a3) # 80000 <__BSS_END__+0x5c4e0>
   20e94:	0006a223          	sw	zero,4(a3)
   20e98:	ff860613          	add	a2,a2,-8
   20e9c:	00868693          	add	a3,a3,8
   20ea0:	00400593          	li	a1,4
   20ea4:	00b66463          	bltu	a2,a1,20eac <__subtf3+0xbc4>
   20ea8:	0006a023          	sw	zero,0(a3)
   20eac:	02012683          	lw	a3,32(sp)
   20eb0:	00e03733          	snez	a4,a4
   20eb4:	00d76733          	or	a4,a4,a3
   20eb8:	02412583          	lw	a1,36(sp)
   20ebc:	02e12023          	sw	a4,32(sp)
   20ec0:	40e78733          	sub	a4,a5,a4
   20ec4:	40b90633          	sub	a2,s2,a1
   20ec8:	00e7b6b3          	sltu	a3,a5,a4
   20ecc:	00c93533          	sltu	a0,s2,a2
   20ed0:	40d60633          	sub	a2,a2,a3
   20ed4:	00000693          	li	a3,0
   20ed8:	00e7f663          	bgeu	a5,a4,20ee4 <__subtf3+0xbfc>
   20edc:	412585b3          	sub	a1,a1,s2
   20ee0:	0015b693          	seqz	a3,a1
   20ee4:	00a6e7b3          	or	a5,a3,a0
   20ee8:	02812503          	lw	a0,40(sp)
   20eec:	00000693          	li	a3,0
   20ef0:	40a985b3          	sub	a1,s3,a0
   20ef4:	00b9b833          	sltu	a6,s3,a1
   20ef8:	40f585b3          	sub	a1,a1,a5
   20efc:	00078663          	beqz	a5,20f08 <__subtf3+0xc20>
   20f00:	41350533          	sub	a0,a0,s3
   20f04:	00153693          	seqz	a3,a0
   20f08:	02c12783          	lw	a5,44(sp)
   20f0c:	0106e6b3          	or	a3,a3,a6
   20f10:	40fb07b3          	sub	a5,s6,a5
   20f14:	40d787b3          	sub	a5,a5,a3
   20f18:	02e12823          	sw	a4,48(sp)
   20f1c:	02f12e23          	sw	a5,60(sp)
   20f20:	02b12c23          	sw	a1,56(sp)
   20f24:	02c12a23          	sw	a2,52(sp)
   20f28:	00c79713          	sll	a4,a5,0xc
   20f2c:	dc075c63          	bgez	a4,20504 <__subtf3+0x21c>
   20f30:	00080737          	lui	a4,0x80
   20f34:	fff70713          	add	a4,a4,-1 # 7ffff <__BSS_END__+0x5c4df>
   20f38:	00e7f7b3          	and	a5,a5,a4
   20f3c:	02f12e23          	sw	a5,60(sp)
   20f40:	58c0006f          	j	214cc <__subtf3+0x11e4>
   20f44:	0005a503          	lw	a0,0(a1)
   20f48:	0045af03          	lw	t5,4(a1)
   20f4c:	00458593          	add	a1,a1,4
   20f50:	01d55533          	srl	a0,a0,t4
   20f54:	011f1f33          	sll	t5,t5,a7
   20f58:	01e56533          	or	a0,a0,t5
   20f5c:	00a32023          	sw	a0,0(t1)
   20f60:	001e0e13          	add	t3,t3,1
   20f64:	00430313          	add	t1,t1,4
   20f68:	ee9ff06f          	j	20e50 <__subtf3+0xb68>
   20f6c:	02412c03          	lw	s8,36(sp)
   20f70:	02812983          	lw	s3,40(sp)
   20f74:	02c12b03          	lw	s6,44(sp)
   20f78:	2a088263          	beqz	a7,2121c <__subtf3+0xf34>
   20f7c:	409b8333          	sub	t1,s7,s1
   20f80:	0a049e63          	bnez	s1,2103c <__subtf3+0xd54>
   20f84:	01412583          	lw	a1,20(sp)
   20f88:	01812803          	lw	a6,24(sp)
   20f8c:	01c12683          	lw	a3,28(sp)
   20f90:	0105e8b3          	or	a7,a1,a6
   20f94:	00d8e8b3          	or	a7,a7,a3
   20f98:	00f8e8b3          	or	a7,a7,a5
   20f9c:	02089063          	bnez	a7,20fbc <__subtf3+0xcd4>
   20fa0:	02812823          	sw	s0,48(sp)
   20fa4:	03812a23          	sw	s8,52(sp)
   20fa8:	03312c23          	sw	s3,56(sp)
   20fac:	03612e23          	sw	s6,60(sp)
   20fb0:	00030493          	mv	s1,t1
   20fb4:	00090a93          	mv	s5,s2
   20fb8:	d4cff06f          	j	20504 <__subtf3+0x21c>
   20fbc:	fff30893          	add	a7,t1,-1
   20fc0:	04089c63          	bnez	a7,21018 <__subtf3+0xd30>
   20fc4:	40f40733          	sub	a4,s0,a5
   20fc8:	40bc0633          	sub	a2,s8,a1
   20fcc:	00e437b3          	sltu	a5,s0,a4
   20fd0:	00cc3533          	sltu	a0,s8,a2
   20fd4:	40f60633          	sub	a2,a2,a5
   20fd8:	00000793          	li	a5,0
   20fdc:	00e47663          	bgeu	s0,a4,20fe8 <__subtf3+0xd00>
   20fe0:	418585b3          	sub	a1,a1,s8
   20fe4:	0015b793          	seqz	a5,a1
   20fe8:	00a7e7b3          	or	a5,a5,a0
   20fec:	410985b3          	sub	a1,s3,a6
   20ff0:	00b9b533          	sltu	a0,s3,a1
   20ff4:	40f585b3          	sub	a1,a1,a5
   20ff8:	00078663          	beqz	a5,21004 <__subtf3+0xd1c>
   20ffc:	41380833          	sub	a6,a6,s3
   21000:	00183893          	seqz	a7,a6
   21004:	40db07b3          	sub	a5,s6,a3
   21008:	00a8e6b3          	or	a3,a7,a0
   2100c:	40d787b3          	sub	a5,a5,a3
   21010:	00090a93          	mv	s5,s2
   21014:	d49ff06f          	j	20d5c <__subtf3+0xa74>
   21018:	000087b7          	lui	a5,0x8
   2101c:	fff78793          	add	a5,a5,-1 # 7fff <exit-0x8095>
   21020:	78f31c63          	bne	t1,a5,217b8 <__subtf3+0x14d0>
   21024:	02812823          	sw	s0,48(sp)
   21028:	03812a23          	sw	s8,52(sp)
   2102c:	03312c23          	sw	s3,56(sp)
   21030:	03612e23          	sw	s6,60(sp)
   21034:	00090a93          	mv	s5,s2
   21038:	8f5ff06f          	j	2092c <__subtf3+0x644>
   2103c:	000087b7          	lui	a5,0x8
   21040:	fff78793          	add	a5,a5,-1 # 7fff <exit-0x8095>
   21044:	fefb80e3          	beq	s7,a5,21024 <__subtf3+0xd3c>
   21048:	01c12783          	lw	a5,28(sp)
   2104c:	00080737          	lui	a4,0x80
   21050:	00e7e7b3          	or	a5,a5,a4
   21054:	00f12e23          	sw	a5,28(sp)
   21058:	07400793          	li	a5,116
   2105c:	1a67c663          	blt	a5,t1,21208 <__subtf3+0xf20>
   21060:	41f35793          	sra	a5,t1,0x1f
   21064:	01f7f793          	and	a5,a5,31
   21068:	006787b3          	add	a5,a5,t1
   2106c:	4057d793          	sra	a5,a5,0x5
   21070:	00060693          	mv	a3,a2
   21074:	00000493          	li	s1,0
   21078:	00000713          	li	a4,0
   2107c:	02f74e63          	blt	a4,a5,210b8 <__subtf3+0xdd0>
   21080:	00300713          	li	a4,3
   21084:	01f37e13          	and	t3,t1,31
   21088:	40f708b3          	sub	a7,a4,a5
   2108c:	00279693          	sll	a3,a5,0x2
   21090:	020e1e63          	bnez	t3,210cc <__subtf3+0xde4>
   21094:	00d60733          	add	a4,a2,a3
   21098:	00072703          	lw	a4,0(a4) # 80000 <__BSS_END__+0x5c4e0>
   2109c:	001e0e13          	add	t3,t3,1
   210a0:	00460613          	add	a2,a2,4
   210a4:	fee62e23          	sw	a4,-4(a2)
   210a8:	ffc8d6e3          	bge	a7,t3,21094 <__subtf3+0xdac>
   210ac:	00400713          	li	a4,4
   210b0:	40f707b3          	sub	a5,a4,a5
   210b4:	0900006f          	j	21144 <__subtf3+0xe5c>
   210b8:	0006a583          	lw	a1,0(a3)
   210bc:	00170713          	add	a4,a4,1
   210c0:	00468693          	add	a3,a3,4
   210c4:	00b4e4b3          	or	s1,s1,a1
   210c8:	fb5ff06f          	j	2107c <__subtf3+0xd94>
   210cc:	80000737          	lui	a4,0x80000
   210d0:	01f70713          	add	a4,a4,31 # 8000001f <__BSS_END__+0x7ffdc4ff>
   210d4:	00e37733          	and	a4,t1,a4
   210d8:	00075863          	bgez	a4,210e8 <__subtf3+0xe00>
   210dc:	fff70713          	add	a4,a4,-1
   210e0:	fe076713          	or	a4,a4,-32
   210e4:	00170713          	add	a4,a4,1
   210e8:	02000813          	li	a6,32
   210ec:	40e80833          	sub	a6,a6,a4
   210f0:	00078593          	mv	a1,a5
   210f4:	0007d463          	bgez	a5,210fc <__subtf3+0xe14>
   210f8:	00000593          	li	a1,0
   210fc:	00259593          	sll	a1,a1,0x2
   21100:	04058713          	add	a4,a1,64
   21104:	002705b3          	add	a1,a4,sp
   21108:	fd05a703          	lw	a4,-48(a1)
   2110c:	00d506b3          	add	a3,a0,a3
   21110:	01071733          	sll	a4,a4,a6
   21114:	00e4e4b3          	or	s1,s1,a4
   21118:	00000713          	li	a4,0
   2111c:	00468693          	add	a3,a3,4
   21120:	0d174263          	blt	a4,a7,211e4 <__subtf3+0xefc>
   21124:	01c12683          	lw	a3,28(sp)
   21128:	00400713          	li	a4,4
   2112c:	40f707b3          	sub	a5,a4,a5
   21130:	00289713          	sll	a4,a7,0x2
   21134:	04070713          	add	a4,a4,64
   21138:	00270733          	add	a4,a4,sp
   2113c:	01c6d6b3          	srl	a3,a3,t3
   21140:	fcd72823          	sw	a3,-48(a4)
   21144:	0057a713          	slti	a4,a5,5
   21148:	00000613          	li	a2,0
   2114c:	00070863          	beqz	a4,2115c <__subtf3+0xe74>
   21150:	00400613          	li	a2,4
   21154:	40f60633          	sub	a2,a2,a5
   21158:	00261613          	sll	a2,a2,0x2
   2115c:	00279793          	sll	a5,a5,0x2
   21160:	00f50533          	add	a0,a0,a5
   21164:	00000593          	li	a1,0
   21168:	a25ef0ef          	jal	10b8c <memset>
   2116c:	01012783          	lw	a5,16(sp)
   21170:	00903733          	snez	a4,s1
   21174:	00f76733          	or	a4,a4,a5
   21178:	01412683          	lw	a3,20(sp)
   2117c:	00e12823          	sw	a4,16(sp)
   21180:	40e40733          	sub	a4,s0,a4
   21184:	40dc0633          	sub	a2,s8,a3
   21188:	00e437b3          	sltu	a5,s0,a4
   2118c:	00cc35b3          	sltu	a1,s8,a2
   21190:	40f60633          	sub	a2,a2,a5
   21194:	00000793          	li	a5,0
   21198:	00e47663          	bgeu	s0,a4,211a4 <__subtf3+0xebc>
   2119c:	418686b3          	sub	a3,a3,s8
   211a0:	0016b793          	seqz	a5,a3
   211a4:	01812503          	lw	a0,24(sp)
   211a8:	00b7e7b3          	or	a5,a5,a1
   211ac:	00000693          	li	a3,0
   211b0:	40a985b3          	sub	a1,s3,a0
   211b4:	00b9b833          	sltu	a6,s3,a1
   211b8:	40f585b3          	sub	a1,a1,a5
   211bc:	00078663          	beqz	a5,211c8 <__subtf3+0xee0>
   211c0:	41350533          	sub	a0,a0,s3
   211c4:	00153693          	seqz	a3,a0
   211c8:	01c12783          	lw	a5,28(sp)
   211cc:	0106e6b3          	or	a3,a3,a6
   211d0:	000b8493          	mv	s1,s7
   211d4:	40fb07b3          	sub	a5,s6,a5
   211d8:	40d787b3          	sub	a5,a5,a3
   211dc:	00090a93          	mv	s5,s2
   211e0:	d39ff06f          	j	20f18 <__subtf3+0xc30>
   211e4:	ffc6a583          	lw	a1,-4(a3)
   211e8:	0006a303          	lw	t1,0(a3)
   211ec:	00170713          	add	a4,a4,1
   211f0:	01c5d5b3          	srl	a1,a1,t3
   211f4:	01031333          	sll	t1,t1,a6
   211f8:	0065e5b3          	or	a1,a1,t1
   211fc:	00b62023          	sw	a1,0(a2)
   21200:	00460613          	add	a2,a2,4
   21204:	f19ff06f          	j	2111c <__subtf3+0xe34>
   21208:	00012e23          	sw	zero,28(sp)
   2120c:	00012c23          	sw	zero,24(sp)
   21210:	00012a23          	sw	zero,20(sp)
   21214:	00100713          	li	a4,1
   21218:	f61ff06f          	j	21178 <__subtf3+0xe90>
   2121c:	00148593          	add	a1,s1,1
   21220:	01159513          	sll	a0,a1,0x11
   21224:	01255513          	srl	a0,a0,0x12
   21228:	01412683          	lw	a3,20(sp)
   2122c:	01812603          	lw	a2,24(sp)
   21230:	01c12703          	lw	a4,28(sp)
   21234:	00008837          	lui	a6,0x8
   21238:	1c051e63          	bnez	a0,21414 <__subtf3+0x112c>
   2123c:	013c6533          	or	a0,s8,s3
   21240:	00c6e5b3          	or	a1,a3,a2
   21244:	01656533          	or	a0,a0,s6
   21248:	00e5e5b3          	or	a1,a1,a4
   2124c:	00856533          	or	a0,a0,s0
   21250:	00f5e5b3          	or	a1,a1,a5
   21254:	10049863          	bnez	s1,21364 <__subtf3+0x107c>
   21258:	02059263          	bnez	a1,2127c <__subtf3+0xf94>
   2125c:	02812823          	sw	s0,48(sp)
   21260:	03812a23          	sw	s8,52(sp)
   21264:	03312c23          	sw	s3,56(sp)
   21268:	03612e23          	sw	s6,60(sp)
   2126c:	00090a93          	mv	s5,s2
   21270:	a8051a63          	bnez	a0,20504 <__subtf3+0x21c>
   21274:	00000493          	li	s1,0
   21278:	9bdff06f          	j	20c34 <__subtf3+0x94c>
   2127c:	00051c63          	bnez	a0,21294 <__subtf3+0xfac>
   21280:	02f12823          	sw	a5,48(sp)
   21284:	02d12a23          	sw	a3,52(sp)
   21288:	02c12c23          	sw	a2,56(sp)
   2128c:	02e12e23          	sw	a4,60(sp)
   21290:	8b9ff06f          	j	20b48 <__subtf3+0x860>
   21294:	40878533          	sub	a0,a5,s0
   21298:	41868e33          	sub	t3,a3,s8
   2129c:	00a7b833          	sltu	a6,a5,a0
   212a0:	01c6b8b3          	sltu	a7,a3,t3
   212a4:	410e0833          	sub	a6,t3,a6
   212a8:	00000593          	li	a1,0
   212ac:	00a7f463          	bgeu	a5,a0,212b4 <__subtf3+0xfcc>
   212b0:	001e3593          	seqz	a1,t3
   212b4:	0115e5b3          	or	a1,a1,a7
   212b8:	413608b3          	sub	a7,a2,s3
   212bc:	01163f33          	sltu	t5,a2,a7
   212c0:	40b88eb3          	sub	t4,a7,a1
   212c4:	00000313          	li	t1,0
   212c8:	00058463          	beqz	a1,212d0 <__subtf3+0xfe8>
   212cc:	0018b313          	seqz	t1,a7
   212d0:	01e36333          	or	t1,t1,t5
   212d4:	416705b3          	sub	a1,a4,s6
   212d8:	406585b3          	sub	a1,a1,t1
   212dc:	02b12e23          	sw	a1,60(sp)
   212e0:	03d12c23          	sw	t4,56(sp)
   212e4:	03012a23          	sw	a6,52(sp)
   212e8:	02a12823          	sw	a0,48(sp)
   212ec:	00c59313          	sll	t1,a1,0xc
   212f0:	06035063          	bgez	t1,21350 <__subtf3+0x1068>
   212f4:	40f407b3          	sub	a5,s0,a5
   212f8:	40dc06b3          	sub	a3,s8,a3
   212fc:	00f435b3          	sltu	a1,s0,a5
   21300:	00dc3c33          	sltu	s8,s8,a3
   21304:	40b686b3          	sub	a3,a3,a1
   21308:	00000593          	li	a1,0
   2130c:	00f47463          	bgeu	s0,a5,21314 <__subtf3+0x102c>
   21310:	001e3593          	seqz	a1,t3
   21314:	40c98633          	sub	a2,s3,a2
   21318:	0185ec33          	or	s8,a1,s8
   2131c:	00c9b9b3          	sltu	s3,s3,a2
   21320:	00000513          	li	a0,0
   21324:	41860633          	sub	a2,a2,s8
   21328:	000c0463          	beqz	s8,21330 <__subtf3+0x1048>
   2132c:	0018b513          	seqz	a0,a7
   21330:	40eb0733          	sub	a4,s6,a4
   21334:	01356533          	or	a0,a0,s3
   21338:	40a70733          	sub	a4,a4,a0
   2133c:	02e12e23          	sw	a4,60(sp)
   21340:	02c12c23          	sw	a2,56(sp)
   21344:	02d12a23          	sw	a3,52(sp)
   21348:	02f12823          	sw	a5,48(sp)
   2134c:	c69ff06f          	j	20fb4 <__subtf3+0xccc>
   21350:	01056533          	or	a0,a0,a6
   21354:	01d56533          	or	a0,a0,t4
   21358:	00b56533          	or	a0,a0,a1
   2135c:	f0050ce3          	beqz	a0,21274 <__subtf3+0xf8c>
   21360:	fe8ff06f          	j	20b48 <__subtf3+0x860>
   21364:	03010893          	add	a7,sp,48
   21368:	04059e63          	bnez	a1,213c4 <__subtf3+0x10dc>
   2136c:	02051e63          	bnez	a0,213a8 <__subtf3+0x10c0>
   21370:	03012e23          	sw	a6,60(sp)
   21374:	02012c23          	sw	zero,56(sp)
   21378:	02012a23          	sw	zero,52(sp)
   2137c:	02012823          	sw	zero,48(sp)
   21380:	03c10793          	add	a5,sp,60
   21384:	0007a703          	lw	a4,0(a5)
   21388:	ffc7a683          	lw	a3,-4(a5)
   2138c:	ffc78793          	add	a5,a5,-4
   21390:	00371713          	sll	a4,a4,0x3
   21394:	01d6d693          	srl	a3,a3,0x1d
   21398:	00d76733          	or	a4,a4,a3
   2139c:	00e7a223          	sw	a4,4(a5)
   213a0:	fef892e3          	bne	a7,a5,21384 <__subtf3+0x109c>
   213a4:	889ff06f          	j	20c2c <__subtf3+0x944>
   213a8:	02812823          	sw	s0,48(sp)
   213ac:	03812a23          	sw	s8,52(sp)
   213b0:	03312c23          	sw	s3,56(sp)
   213b4:	03612e23          	sw	s6,60(sp)
   213b8:	00090a93          	mv	s5,s2
   213bc:	fff80493          	add	s1,a6,-1 # 7fff <exit-0x8095>
   213c0:	944ff06f          	j	20504 <__subtf3+0x21c>
   213c4:	00051c63          	bnez	a0,213dc <__subtf3+0x10f4>
   213c8:	02f12823          	sw	a5,48(sp)
   213cc:	02d12a23          	sw	a3,52(sp)
   213d0:	02c12c23          	sw	a2,56(sp)
   213d4:	02e12e23          	sw	a4,60(sp)
   213d8:	fe5ff06f          	j	213bc <__subtf3+0x10d4>
   213dc:	03012e23          	sw	a6,60(sp)
   213e0:	02012c23          	sw	zero,56(sp)
   213e4:	02012a23          	sw	zero,52(sp)
   213e8:	02012823          	sw	zero,48(sp)
   213ec:	03c10793          	add	a5,sp,60
   213f0:	0007a703          	lw	a4,0(a5)
   213f4:	ffc7a683          	lw	a3,-4(a5)
   213f8:	ffc78793          	add	a5,a5,-4
   213fc:	00371713          	sll	a4,a4,0x3
   21400:	01d6d693          	srl	a3,a3,0x1d
   21404:	00d76733          	or	a4,a4,a3
   21408:	00e7a223          	sw	a4,4(a5)
   2140c:	fef892e3          	bne	a7,a5,213f0 <__subtf3+0x1108>
   21410:	81dff06f          	j	20c2c <__subtf3+0x944>
   21414:	40878533          	sub	a0,a5,s0
   21418:	41868eb3          	sub	t4,a3,s8
   2141c:	00a7b833          	sltu	a6,a5,a0
   21420:	01d6b333          	sltu	t1,a3,t4
   21424:	410e8833          	sub	a6,t4,a6
   21428:	00000593          	li	a1,0
   2142c:	00a7f463          	bgeu	a5,a0,21434 <__subtf3+0x114c>
   21430:	001eb593          	seqz	a1,t4
   21434:	0065e5b3          	or	a1,a1,t1
   21438:	41360333          	sub	t1,a2,s3
   2143c:	00663fb3          	sltu	t6,a2,t1
   21440:	40b30f33          	sub	t5,t1,a1
   21444:	00000e13          	li	t3,0
   21448:	00058463          	beqz	a1,21450 <__subtf3+0x1168>
   2144c:	00133e13          	seqz	t3,t1
   21450:	01fe6e33          	or	t3,t3,t6
   21454:	416705b3          	sub	a1,a4,s6
   21458:	41c585b3          	sub	a1,a1,t3
   2145c:	02b12e23          	sw	a1,60(sp)
   21460:	03e12c23          	sw	t5,56(sp)
   21464:	03012a23          	sw	a6,52(sp)
   21468:	02a12823          	sw	a0,48(sp)
   2146c:	00c59e13          	sll	t3,a1,0xc
   21470:	160e5863          	bgez	t3,215e0 <__subtf3+0x12f8>
   21474:	40f407b3          	sub	a5,s0,a5
   21478:	40dc06b3          	sub	a3,s8,a3
   2147c:	00f435b3          	sltu	a1,s0,a5
   21480:	00dc3c33          	sltu	s8,s8,a3
   21484:	40b686b3          	sub	a3,a3,a1
   21488:	00000593          	li	a1,0
   2148c:	00f47463          	bgeu	s0,a5,21494 <__subtf3+0x11ac>
   21490:	001eb593          	seqz	a1,t4
   21494:	40c98633          	sub	a2,s3,a2
   21498:	0185ec33          	or	s8,a1,s8
   2149c:	00c9b9b3          	sltu	s3,s3,a2
   214a0:	41860633          	sub	a2,a2,s8
   214a4:	000c0463          	beqz	s8,214ac <__subtf3+0x11c4>
   214a8:	00133893          	seqz	a7,t1
   214ac:	40eb05b3          	sub	a1,s6,a4
   214b0:	0138e733          	or	a4,a7,s3
   214b4:	40e58733          	sub	a4,a1,a4
   214b8:	02e12e23          	sw	a4,60(sp)
   214bc:	02c12c23          	sw	a2,56(sp)
   214c0:	02d12a23          	sw	a3,52(sp)
   214c4:	02f12823          	sw	a5,48(sp)
   214c8:	00090a93          	mv	s5,s2
   214cc:	03c12503          	lw	a0,60(sp)
   214d0:	12050263          	beqz	a0,215f4 <__subtf3+0x130c>
   214d4:	0ad000ef          	jal	21d80 <__clzsi2>
   214d8:	ff450513          	add	a0,a0,-12
   214dc:	41f55793          	sra	a5,a0,0x1f
   214e0:	01f7f793          	and	a5,a5,31
   214e4:	00a787b3          	add	a5,a5,a0
   214e8:	4057d793          	sra	a5,a5,0x5
   214ec:	01f57593          	and	a1,a0,31
   214f0:	40f006b3          	neg	a3,a5
   214f4:	12058c63          	beqz	a1,2162c <__subtf3+0x1344>
   214f8:	80000737          	lui	a4,0x80000
   214fc:	01f70713          	add	a4,a4,31 # 8000001f <__BSS_END__+0x7ffdc4ff>
   21500:	00e57733          	and	a4,a0,a4
   21504:	00075863          	bgez	a4,21514 <__subtf3+0x122c>
   21508:	fff70713          	add	a4,a4,-1
   2150c:	fe076713          	or	a4,a4,-32
   21510:	00170713          	add	a4,a4,1
   21514:	00269693          	sll	a3,a3,0x2
   21518:	02000813          	li	a6,32
   2151c:	40e80833          	sub	a6,a6,a4
   21520:	03010313          	add	t1,sp,48
   21524:	00c68713          	add	a4,a3,12
   21528:	00e30733          	add	a4,t1,a4
   2152c:	40d006b3          	neg	a3,a3
   21530:	12e31463          	bne	t1,a4,21658 <__subtf3+0x1370>
   21534:	03012683          	lw	a3,48(sp)
   21538:	fff78713          	add	a4,a5,-1
   2153c:	00279793          	sll	a5,a5,0x2
   21540:	04078793          	add	a5,a5,64
   21544:	002787b3          	add	a5,a5,sp
   21548:	00b696b3          	sll	a3,a3,a1
   2154c:	fed7a823          	sw	a3,-16(a5)
   21550:	00170713          	add	a4,a4,1
   21554:	03010793          	add	a5,sp,48
   21558:	00271713          	sll	a4,a4,0x2
   2155c:	00800693          	li	a3,8
   21560:	00078893          	mv	a7,a5
   21564:	00d76a63          	bltu	a4,a3,21578 <__subtf3+0x1290>
   21568:	02012823          	sw	zero,48(sp)
   2156c:	0007a223          	sw	zero,4(a5)
   21570:	ff870713          	add	a4,a4,-8
   21574:	03810793          	add	a5,sp,56
   21578:	00400693          	li	a3,4
   2157c:	00d76463          	bltu	a4,a3,21584 <__subtf3+0x129c>
   21580:	0007a023          	sw	zero,0(a5)
   21584:	1c954463          	blt	a0,s1,2174c <__subtf3+0x1464>
   21588:	40950533          	sub	a0,a0,s1
   2158c:	00150513          	add	a0,a0,1
   21590:	40555793          	sra	a5,a0,0x5
   21594:	00088613          	mv	a2,a7
   21598:	01f57513          	and	a0,a0,31
   2159c:	00088693          	mv	a3,a7
   215a0:	00000313          	li	t1,0
   215a4:	00000713          	li	a4,0
   215a8:	0cf71a63          	bne	a4,a5,2167c <__subtf3+0x1394>
   215ac:	00300713          	li	a4,3
   215b0:	40f70733          	sub	a4,a4,a5
   215b4:	00279693          	sll	a3,a5,0x2
   215b8:	0c051c63          	bnez	a0,21690 <__subtf3+0x13a8>
   215bc:	00d605b3          	add	a1,a2,a3
   215c0:	0005a583          	lw	a1,0(a1)
   215c4:	00150513          	add	a0,a0,1
   215c8:	00460613          	add	a2,a2,4
   215cc:	feb62e23          	sw	a1,-4(a2)
   215d0:	fea756e3          	bge	a4,a0,215bc <__subtf3+0x12d4>
   215d4:	00400713          	li	a4,4
   215d8:	40f707b3          	sub	a5,a4,a5
   215dc:	1000006f          	j	216dc <__subtf3+0x13f4>
   215e0:	01056533          	or	a0,a0,a6
   215e4:	01e56533          	or	a0,a0,t5
   215e8:	00b56533          	or	a0,a0,a1
   215ec:	c80504e3          	beqz	a0,21274 <__subtf3+0xf8c>
   215f0:	eddff06f          	j	214cc <__subtf3+0x11e4>
   215f4:	03812503          	lw	a0,56(sp)
   215f8:	00050863          	beqz	a0,21608 <__subtf3+0x1320>
   215fc:	784000ef          	jal	21d80 <__clzsi2>
   21600:	02050513          	add	a0,a0,32
   21604:	ed5ff06f          	j	214d8 <__subtf3+0x11f0>
   21608:	03412503          	lw	a0,52(sp)
   2160c:	00050863          	beqz	a0,2161c <__subtf3+0x1334>
   21610:	770000ef          	jal	21d80 <__clzsi2>
   21614:	04050513          	add	a0,a0,64
   21618:	ec1ff06f          	j	214d8 <__subtf3+0x11f0>
   2161c:	03012503          	lw	a0,48(sp)
   21620:	760000ef          	jal	21d80 <__clzsi2>
   21624:	06050513          	add	a0,a0,96
   21628:	eb1ff06f          	j	214d8 <__subtf3+0x11f0>
   2162c:	03c10713          	add	a4,sp,60
   21630:	00269693          	sll	a3,a3,0x2
   21634:	00300613          	li	a2,3
   21638:	00d705b3          	add	a1,a4,a3
   2163c:	0005a583          	lw	a1,0(a1)
   21640:	fff60613          	add	a2,a2,-1
   21644:	ffc70713          	add	a4,a4,-4
   21648:	00b72223          	sw	a1,4(a4)
   2164c:	fef656e3          	bge	a2,a5,21638 <__subtf3+0x1350>
   21650:	fff78713          	add	a4,a5,-1
   21654:	efdff06f          	j	21550 <__subtf3+0x1268>
   21658:	00072603          	lw	a2,0(a4)
   2165c:	ffc72883          	lw	a7,-4(a4)
   21660:	00d70e33          	add	t3,a4,a3
   21664:	00b61633          	sll	a2,a2,a1
   21668:	0108d8b3          	srl	a7,a7,a6
   2166c:	01166633          	or	a2,a2,a7
   21670:	00ce2023          	sw	a2,0(t3)
   21674:	ffc70713          	add	a4,a4,-4
   21678:	eb9ff06f          	j	21530 <__subtf3+0x1248>
   2167c:	0006a583          	lw	a1,0(a3)
   21680:	00170713          	add	a4,a4,1
   21684:	00468693          	add	a3,a3,4
   21688:	00b36333          	or	t1,t1,a1
   2168c:	f1dff06f          	j	215a8 <__subtf3+0x12c0>
   21690:	04068593          	add	a1,a3,64
   21694:	002585b3          	add	a1,a1,sp
   21698:	ff05a583          	lw	a1,-16(a1)
   2169c:	02000813          	li	a6,32
   216a0:	40a80833          	sub	a6,a6,a0
   216a4:	010595b3          	sll	a1,a1,a6
   216a8:	00b36333          	or	t1,t1,a1
   216ac:	00d886b3          	add	a3,a7,a3
   216b0:	00000e13          	li	t3,0
   216b4:	00468693          	add	a3,a3,4
   216b8:	06ee4863          	blt	t3,a4,21728 <__subtf3+0x1440>
   216bc:	00400693          	li	a3,4
   216c0:	40f687b3          	sub	a5,a3,a5
   216c4:	03c12683          	lw	a3,60(sp)
   216c8:	00271713          	sll	a4,a4,0x2
   216cc:	04070713          	add	a4,a4,64
   216d0:	00270733          	add	a4,a4,sp
   216d4:	00a6d533          	srl	a0,a3,a0
   216d8:	fea72823          	sw	a0,-16(a4)
   216dc:	00400713          	li	a4,4
   216e0:	40f70733          	sub	a4,a4,a5
   216e4:	00271713          	sll	a4,a4,0x2
   216e8:	00279793          	sll	a5,a5,0x2
   216ec:	00800693          	li	a3,8
   216f0:	00f887b3          	add	a5,a7,a5
   216f4:	00d76a63          	bltu	a4,a3,21708 <__subtf3+0x1420>
   216f8:	0007a023          	sw	zero,0(a5)
   216fc:	0007a223          	sw	zero,4(a5)
   21700:	ff870713          	add	a4,a4,-8
   21704:	00878793          	add	a5,a5,8
   21708:	00400693          	li	a3,4
   2170c:	00d76463          	bltu	a4,a3,21714 <__subtf3+0x142c>
   21710:	0007a023          	sw	zero,0(a5)
   21714:	03012703          	lw	a4,48(sp)
   21718:	006037b3          	snez	a5,t1
   2171c:	00f767b3          	or	a5,a4,a5
   21720:	02f12823          	sw	a5,48(sp)
   21724:	c24ff06f          	j	20b48 <__subtf3+0x860>
   21728:	ffc6a583          	lw	a1,-4(a3)
   2172c:	0006ae83          	lw	t4,0(a3)
   21730:	001e0e13          	add	t3,t3,1
   21734:	00a5d5b3          	srl	a1,a1,a0
   21738:	010e9eb3          	sll	t4,t4,a6
   2173c:	01d5e5b3          	or	a1,a1,t4
   21740:	00b62023          	sw	a1,0(a2)
   21744:	00460613          	add	a2,a2,4
   21748:	f6dff06f          	j	216b4 <__subtf3+0x13cc>
   2174c:	03c12783          	lw	a5,60(sp)
   21750:	fff80737          	lui	a4,0xfff80
   21754:	fff70713          	add	a4,a4,-1 # fff7ffff <__BSS_END__+0xfff5c4df>
   21758:	00e7f7b3          	and	a5,a5,a4
   2175c:	40a484b3          	sub	s1,s1,a0
   21760:	02f12e23          	sw	a5,60(sp)
   21764:	da1fe06f          	j	20504 <__subtf3+0x21c>
   21768:	02012e23          	sw	zero,60(sp)
   2176c:	02012c23          	sw	zero,56(sp)
   21770:	02012a23          	sw	zero,52(sp)
   21774:	02012823          	sw	zero,48(sp)
   21778:	e0dfe06f          	j	20584 <__subtf3+0x29c>
   2177c:	07400713          	li	a4,116
   21780:	00c74463          	blt	a4,a2,21788 <__subtf3+0x14a0>
   21784:	f01fe06f          	j	20684 <__subtf3+0x39c>
   21788:	02012623          	sw	zero,44(sp)
   2178c:	02012423          	sw	zero,40(sp)
   21790:	02012223          	sw	zero,36(sp)
   21794:	00100713          	li	a4,1
   21798:	fd9fe06f          	j	20770 <__subtf3+0x488>
   2179c:	07400793          	li	a5,116
   217a0:	9d07d463          	bge	a5,a6,20968 <__subtf3+0x680>
   217a4:	00012e23          	sw	zero,28(sp)
   217a8:	00012c23          	sw	zero,24(sp)
   217ac:	00012a23          	sw	zero,20(sp)
   217b0:	00100793          	li	a5,1
   217b4:	accff06f          	j	20a80 <__subtf3+0x798>
   217b8:	07400793          	li	a5,116
   217bc:	a517c6e3          	blt	a5,a7,21208 <__subtf3+0xf20>
   217c0:	00088313          	mv	t1,a7
   217c4:	89dff06f          	j	21060 <__subtf3+0xd78>

000217c8 <__unordtf2>:
   217c8:	00052703          	lw	a4,0(a0)
   217cc:	00452e83          	lw	t4,4(a0)
   217d0:	00852e03          	lw	t3,8(a0)
   217d4:	00c52503          	lw	a0,12(a0)
   217d8:	00c5a603          	lw	a2,12(a1)
   217dc:	000086b7          	lui	a3,0x8
   217e0:	fff68693          	add	a3,a3,-1 # 7fff <exit-0x8095>
   217e4:	01055813          	srl	a6,a0,0x10
   217e8:	0005a783          	lw	a5,0(a1)
   217ec:	0045a303          	lw	t1,4(a1)
   217f0:	0085a883          	lw	a7,8(a1)
   217f4:	00d87833          	and	a6,a6,a3
   217f8:	01065593          	srl	a1,a2,0x10
   217fc:	ff010113          	add	sp,sp,-16
   21800:	00d5f5b3          	and	a1,a1,a3
   21804:	02d81063          	bne	a6,a3,21824 <__unordtf2+0x5c>
   21808:	01d76733          	or	a4,a4,t4
   2180c:	01051513          	sll	a0,a0,0x10
   21810:	01055513          	srl	a0,a0,0x10
   21814:	01c76733          	or	a4,a4,t3
   21818:	00a76733          	or	a4,a4,a0
   2181c:	00100513          	li	a0,1
   21820:	02071663          	bnez	a4,2184c <__unordtf2+0x84>
   21824:	00008737          	lui	a4,0x8
   21828:	fff70713          	add	a4,a4,-1 # 7fff <exit-0x8095>
   2182c:	00000513          	li	a0,0
   21830:	00e59e63          	bne	a1,a4,2184c <__unordtf2+0x84>
   21834:	0067e533          	or	a0,a5,t1
   21838:	01061613          	sll	a2,a2,0x10
   2183c:	01156533          	or	a0,a0,a7
   21840:	01065613          	srl	a2,a2,0x10
   21844:	00c56533          	or	a0,a0,a2
   21848:	00a03533          	snez	a0,a0
   2184c:	01010113          	add	sp,sp,16
   21850:	00008067          	ret

00021854 <__fixtfsi>:
   21854:	00052703          	lw	a4,0(a0)
   21858:	00452683          	lw	a3,4(a0)
   2185c:	00c52783          	lw	a5,12(a0)
   21860:	00852583          	lw	a1,8(a0)
   21864:	fe010113          	add	sp,sp,-32
   21868:	00e12023          	sw	a4,0(sp)
   2186c:	00d12223          	sw	a3,4(sp)
   21870:	00e12823          	sw	a4,16(sp)
   21874:	00179693          	sll	a3,a5,0x1
   21878:	00004737          	lui	a4,0x4
   2187c:	00b12423          	sw	a1,8(sp)
   21880:	00f12623          	sw	a5,12(sp)
   21884:	00b12c23          	sw	a1,24(sp)
   21888:	0116d693          	srl	a3,a3,0x11
   2188c:	ffe70713          	add	a4,a4,-2 # 3ffe <exit-0xc096>
   21890:	00000513          	li	a0,0
   21894:	02d75063          	bge	a4,a3,218b4 <__fixtfsi+0x60>
   21898:	00004737          	lui	a4,0x4
   2189c:	01d70713          	add	a4,a4,29 # 401d <exit-0xc077>
   218a0:	01f7d813          	srl	a6,a5,0x1f
   218a4:	00d75c63          	bge	a4,a3,218bc <__fixtfsi+0x68>
   218a8:	80000537          	lui	a0,0x80000
   218ac:	fff50513          	add	a0,a0,-1 # 7fffffff <__BSS_END__+0x7ffdc4df>
   218b0:	00a80533          	add	a0,a6,a0
   218b4:	02010113          	add	sp,sp,32
   218b8:	00008067          	ret
   218bc:	01079793          	sll	a5,a5,0x10
   218c0:	00010737          	lui	a4,0x10
   218c4:	0107d793          	srl	a5,a5,0x10
   218c8:	00e7e7b3          	or	a5,a5,a4
   218cc:	00004737          	lui	a4,0x4
   218d0:	06f70713          	add	a4,a4,111 # 406f <exit-0xc025>
   218d4:	40d70733          	sub	a4,a4,a3
   218d8:	40575613          	sra	a2,a4,0x5
   218dc:	00f12e23          	sw	a5,28(sp)
   218e0:	01f77713          	and	a4,a4,31
   218e4:	02071463          	bnez	a4,2190c <__fixtfsi+0xb8>
   218e8:	00261613          	sll	a2,a2,0x2
   218ec:	02060793          	add	a5,a2,32
   218f0:	00278633          	add	a2,a5,sp
   218f4:	ff062783          	lw	a5,-16(a2)
   218f8:	00f12823          	sw	a5,16(sp)
   218fc:	01012503          	lw	a0,16(sp)
   21900:	fa080ae3          	beqz	a6,218b4 <__fixtfsi+0x60>
   21904:	40a00533          	neg	a0,a0
   21908:	fadff06f          	j	218b4 <__fixtfsi+0x60>
   2190c:	00200513          	li	a0,2
   21910:	00000693          	li	a3,0
   21914:	02a61063          	bne	a2,a0,21934 <__fixtfsi+0xe0>
   21918:	02000693          	li	a3,32
   2191c:	40e686b3          	sub	a3,a3,a4
   21920:	00d796b3          	sll	a3,a5,a3
   21924:	00e5d5b3          	srl	a1,a1,a4
   21928:	00b6e6b3          	or	a3,a3,a1
   2192c:	00d12823          	sw	a3,16(sp)
   21930:	00100693          	li	a3,1
   21934:	00269693          	sll	a3,a3,0x2
   21938:	02068693          	add	a3,a3,32
   2193c:	002686b3          	add	a3,a3,sp
   21940:	00e7d7b3          	srl	a5,a5,a4
   21944:	fef6a823          	sw	a5,-16(a3)
   21948:	fb5ff06f          	j	218fc <__fixtfsi+0xa8>

0002194c <__floatsitf>:
   2194c:	fd010113          	add	sp,sp,-48
   21950:	02912223          	sw	s1,36(sp)
   21954:	02112623          	sw	ra,44(sp)
   21958:	02812423          	sw	s0,40(sp)
   2195c:	03212023          	sw	s2,32(sp)
   21960:	00050493          	mv	s1,a0
   21964:	12058263          	beqz	a1,21a88 <__floatsitf+0x13c>
   21968:	41f5d793          	sra	a5,a1,0x1f
   2196c:	00b7c433          	xor	s0,a5,a1
   21970:	40f40433          	sub	s0,s0,a5
   21974:	00040513          	mv	a0,s0
   21978:	01f5d913          	srl	s2,a1,0x1f
   2197c:	404000ef          	jal	21d80 <__clzsi2>
   21980:	00004737          	lui	a4,0x4
   21984:	01e70713          	add	a4,a4,30 # 401e <exit-0xc076>
   21988:	05150793          	add	a5,a0,81
   2198c:	40a70633          	sub	a2,a4,a0
   21990:	00812823          	sw	s0,16(sp)
   21994:	4057d713          	sra	a4,a5,0x5
   21998:	00012a23          	sw	zero,20(sp)
   2199c:	00012c23          	sw	zero,24(sp)
   219a0:	00012e23          	sw	zero,28(sp)
   219a4:	01f7f793          	and	a5,a5,31
   219a8:	02078c63          	beqz	a5,219e0 <__floatsitf+0x94>
   219ac:	00200693          	li	a3,2
   219b0:	0cd71863          	bne	a4,a3,21a80 <__floatsitf+0x134>
   219b4:	02000693          	li	a3,32
   219b8:	40f686b3          	sub	a3,a3,a5
   219bc:	00d456b3          	srl	a3,s0,a3
   219c0:	00d12e23          	sw	a3,28(sp)
   219c4:	fff70693          	add	a3,a4,-1
   219c8:	00271713          	sll	a4,a4,0x2
   219cc:	02070713          	add	a4,a4,32
   219d0:	00270733          	add	a4,a4,sp
   219d4:	00f41433          	sll	s0,s0,a5
   219d8:	fe872823          	sw	s0,-16(a4)
   219dc:	0340006f          	j	21a10 <__floatsitf+0xc4>
   219e0:	00300793          	li	a5,3
   219e4:	40e787b3          	sub	a5,a5,a4
   219e8:	00279793          	sll	a5,a5,0x2
   219ec:	02078793          	add	a5,a5,32
   219f0:	002787b3          	add	a5,a5,sp
   219f4:	ff07a783          	lw	a5,-16(a5)
   219f8:	00200693          	li	a3,2
   219fc:	00f12e23          	sw	a5,28(sp)
   21a00:	00200793          	li	a5,2
   21a04:	00f71663          	bne	a4,a5,21a10 <__floatsitf+0xc4>
   21a08:	00812c23          	sw	s0,24(sp)
   21a0c:	00100693          	li	a3,1
   21a10:	00269693          	sll	a3,a3,0x2
   21a14:	00012823          	sw	zero,16(sp)
   21a18:	00012a23          	sw	zero,20(sp)
   21a1c:	ffc68693          	add	a3,a3,-4
   21a20:	00400793          	li	a5,4
   21a24:	00f6e463          	bltu	a3,a5,21a2c <__floatsitf+0xe0>
   21a28:	00012c23          	sw	zero,24(sp)
   21a2c:	00090593          	mv	a1,s2
   21a30:	01c12783          	lw	a5,28(sp)
   21a34:	00f59413          	sll	s0,a1,0xf
   21a38:	00c46433          	or	s0,s0,a2
   21a3c:	00f11623          	sh	a5,12(sp)
   21a40:	01012783          	lw	a5,16(sp)
   21a44:	00811723          	sh	s0,14(sp)
   21a48:	02c12083          	lw	ra,44(sp)
   21a4c:	00f4a023          	sw	a5,0(s1)
   21a50:	01412783          	lw	a5,20(sp)
   21a54:	02812403          	lw	s0,40(sp)
   21a58:	02012903          	lw	s2,32(sp)
   21a5c:	00f4a223          	sw	a5,4(s1)
   21a60:	01812783          	lw	a5,24(sp)
   21a64:	00048513          	mv	a0,s1
   21a68:	00f4a423          	sw	a5,8(s1)
   21a6c:	00c12783          	lw	a5,12(sp)
   21a70:	00f4a623          	sw	a5,12(s1)
   21a74:	02412483          	lw	s1,36(sp)
   21a78:	03010113          	add	sp,sp,48
   21a7c:	00008067          	ret
   21a80:	00300713          	li	a4,3
   21a84:	f41ff06f          	j	219c4 <__floatsitf+0x78>
   21a88:	00012e23          	sw	zero,28(sp)
   21a8c:	00012c23          	sw	zero,24(sp)
   21a90:	00012a23          	sw	zero,20(sp)
   21a94:	00012823          	sw	zero,16(sp)
   21a98:	00000613          	li	a2,0
   21a9c:	f95ff06f          	j	21a30 <__floatsitf+0xe4>

00021aa0 <__extenddftf2>:
   21aa0:	01465713          	srl	a4,a2,0x14
   21aa4:	00c61793          	sll	a5,a2,0xc
   21aa8:	7ff77713          	and	a4,a4,2047
   21aac:	fd010113          	add	sp,sp,-48
   21ab0:	00c7d793          	srl	a5,a5,0xc
   21ab4:	00170693          	add	a3,a4,1
   21ab8:	02812423          	sw	s0,40(sp)
   21abc:	02912223          	sw	s1,36(sp)
   21ac0:	03212023          	sw	s2,32(sp)
   21ac4:	02112623          	sw	ra,44(sp)
   21ac8:	00b12823          	sw	a1,16(sp)
   21acc:	00f12a23          	sw	a5,20(sp)
   21ad0:	00012e23          	sw	zero,28(sp)
   21ad4:	00012c23          	sw	zero,24(sp)
   21ad8:	7fe6f693          	and	a3,a3,2046
   21adc:	00050913          	mv	s2,a0
   21ae0:	00058413          	mv	s0,a1
   21ae4:	01f65493          	srl	s1,a2,0x1f
   21ae8:	08068263          	beqz	a3,21b6c <__extenddftf2+0xcc>
   21aec:	000046b7          	lui	a3,0x4
   21af0:	c0068693          	add	a3,a3,-1024 # 3c00 <exit-0xc494>
   21af4:	00d70733          	add	a4,a4,a3
   21af8:	0047d693          	srl	a3,a5,0x4
   21afc:	00d12e23          	sw	a3,28(sp)
   21b00:	01c79793          	sll	a5,a5,0x1c
   21b04:	0045d693          	srl	a3,a1,0x4
   21b08:	00d7e7b3          	or	a5,a5,a3
   21b0c:	01c59413          	sll	s0,a1,0x1c
   21b10:	00f12c23          	sw	a5,24(sp)
   21b14:	00812a23          	sw	s0,20(sp)
   21b18:	00012823          	sw	zero,16(sp)
   21b1c:	01c12783          	lw	a5,28(sp)
   21b20:	00f49493          	sll	s1,s1,0xf
   21b24:	00e4e4b3          	or	s1,s1,a4
   21b28:	00f11623          	sh	a5,12(sp)
   21b2c:	01012783          	lw	a5,16(sp)
   21b30:	00911723          	sh	s1,14(sp)
   21b34:	02c12083          	lw	ra,44(sp)
   21b38:	00f92023          	sw	a5,0(s2)
   21b3c:	01412783          	lw	a5,20(sp)
   21b40:	02812403          	lw	s0,40(sp)
   21b44:	02412483          	lw	s1,36(sp)
   21b48:	00f92223          	sw	a5,4(s2)
   21b4c:	01812783          	lw	a5,24(sp)
   21b50:	00090513          	mv	a0,s2
   21b54:	00f92423          	sw	a5,8(s2)
   21b58:	00c12783          	lw	a5,12(sp)
   21b5c:	00f92623          	sw	a5,12(s2)
   21b60:	02012903          	lw	s2,32(sp)
   21b64:	03010113          	add	sp,sp,48
   21b68:	00008067          	ret
   21b6c:	00b7e533          	or	a0,a5,a1
   21b70:	0e071e63          	bnez	a4,21c6c <__extenddftf2+0x1cc>
   21b74:	fa0504e3          	beqz	a0,21b1c <__extenddftf2+0x7c>
   21b78:	04078e63          	beqz	a5,21bd4 <__extenddftf2+0x134>
   21b7c:	00078513          	mv	a0,a5
   21b80:	200000ef          	jal	21d80 <__clzsi2>
   21b84:	03150693          	add	a3,a0,49
   21b88:	4056d713          	sra	a4,a3,0x5
   21b8c:	01f6f693          	and	a3,a3,31
   21b90:	40e007b3          	neg	a5,a4
   21b94:	04068663          	beqz	a3,21be0 <__extenddftf2+0x140>
   21b98:	00279793          	sll	a5,a5,0x2
   21b9c:	00c78613          	add	a2,a5,12
   21ba0:	02000813          	li	a6,32
   21ba4:	01010313          	add	t1,sp,16
   21ba8:	40d80833          	sub	a6,a6,a3
   21bac:	00c30633          	add	a2,t1,a2
   21bb0:	40f007b3          	neg	a5,a5
   21bb4:	08c31a63          	bne	t1,a2,21c48 <__extenddftf2+0x1a8>
   21bb8:	fff70793          	add	a5,a4,-1
   21bbc:	00271713          	sll	a4,a4,0x2
   21bc0:	02070713          	add	a4,a4,32
   21bc4:	00270733          	add	a4,a4,sp
   21bc8:	00d416b3          	sll	a3,s0,a3
   21bcc:	fed72823          	sw	a3,-16(a4)
   21bd0:	0380006f          	j	21c08 <__extenddftf2+0x168>
   21bd4:	1ac000ef          	jal	21d80 <__clzsi2>
   21bd8:	02050513          	add	a0,a0,32
   21bdc:	fa9ff06f          	j	21b84 <__extenddftf2+0xe4>
   21be0:	01c10693          	add	a3,sp,28
   21be4:	00279793          	sll	a5,a5,0x2
   21be8:	00300613          	li	a2,3
   21bec:	00f685b3          	add	a1,a3,a5
   21bf0:	0005a583          	lw	a1,0(a1)
   21bf4:	fff60613          	add	a2,a2,-1
   21bf8:	ffc68693          	add	a3,a3,-4
   21bfc:	00b6a223          	sw	a1,4(a3)
   21c00:	fee656e3          	bge	a2,a4,21bec <__extenddftf2+0x14c>
   21c04:	fff70793          	add	a5,a4,-1
   21c08:	00178793          	add	a5,a5,1
   21c0c:	00279793          	sll	a5,a5,0x2
   21c10:	00800693          	li	a3,8
   21c14:	01010713          	add	a4,sp,16
   21c18:	00d7ea63          	bltu	a5,a3,21c2c <__extenddftf2+0x18c>
   21c1c:	00012823          	sw	zero,16(sp)
   21c20:	00072223          	sw	zero,4(a4)
   21c24:	ff878793          	add	a5,a5,-8
   21c28:	01810713          	add	a4,sp,24
   21c2c:	00400693          	li	a3,4
   21c30:	00d7e463          	bltu	a5,a3,21c38 <__extenddftf2+0x198>
   21c34:	00072023          	sw	zero,0(a4)
   21c38:	00004737          	lui	a4,0x4
   21c3c:	c0c70713          	add	a4,a4,-1012 # 3c0c <exit-0xc488>
   21c40:	40a70733          	sub	a4,a4,a0
   21c44:	ed9ff06f          	j	21b1c <__extenddftf2+0x7c>
   21c48:	00062583          	lw	a1,0(a2)
   21c4c:	ffc62883          	lw	a7,-4(a2)
   21c50:	00f60e33          	add	t3,a2,a5
   21c54:	00d595b3          	sll	a1,a1,a3
   21c58:	0108d8b3          	srl	a7,a7,a6
   21c5c:	0115e5b3          	or	a1,a1,a7
   21c60:	00be2023          	sw	a1,0(t3)
   21c64:	ffc60613          	add	a2,a2,-4
   21c68:	f4dff06f          	j	21bb4 <__extenddftf2+0x114>
   21c6c:	02050863          	beqz	a0,21c9c <__extenddftf2+0x1fc>
   21c70:	01c79713          	sll	a4,a5,0x1c
   21c74:	0045d693          	srl	a3,a1,0x4
   21c78:	00d76733          	or	a4,a4,a3
   21c7c:	00e12c23          	sw	a4,24(sp)
   21c80:	0047d793          	srl	a5,a5,0x4
   21c84:	00008737          	lui	a4,0x8
   21c88:	01c59413          	sll	s0,a1,0x1c
   21c8c:	00e7e7b3          	or	a5,a5,a4
   21c90:	00812a23          	sw	s0,20(sp)
   21c94:	00012823          	sw	zero,16(sp)
   21c98:	00f12e23          	sw	a5,28(sp)
   21c9c:	00008737          	lui	a4,0x8
   21ca0:	fff70713          	add	a4,a4,-1 # 7fff <exit-0x8095>
   21ca4:	e79ff06f          	j	21b1c <__extenddftf2+0x7c>

00021ca8 <__mulsi3>:
   21ca8:	00050613          	mv	a2,a0
   21cac:	00000513          	li	a0,0
   21cb0:	0015f693          	and	a3,a1,1
   21cb4:	00068463          	beqz	a3,21cbc <__mulsi3+0x14>
   21cb8:	00c50533          	add	a0,a0,a2
   21cbc:	0015d593          	srl	a1,a1,0x1
   21cc0:	00161613          	sll	a2,a2,0x1
   21cc4:	fe0596e3          	bnez	a1,21cb0 <__mulsi3+0x8>
   21cc8:	00008067          	ret

00021ccc <__divsi3>:
   21ccc:	06054063          	bltz	a0,21d2c <__umodsi3+0x10>
   21cd0:	0605c663          	bltz	a1,21d3c <__umodsi3+0x20>

00021cd4 <__hidden___udivsi3>:
   21cd4:	00058613          	mv	a2,a1
   21cd8:	00050593          	mv	a1,a0
   21cdc:	fff00513          	li	a0,-1
   21ce0:	02060c63          	beqz	a2,21d18 <__hidden___udivsi3+0x44>
   21ce4:	00100693          	li	a3,1
   21ce8:	00b67a63          	bgeu	a2,a1,21cfc <__hidden___udivsi3+0x28>
   21cec:	00c05863          	blez	a2,21cfc <__hidden___udivsi3+0x28>
   21cf0:	00161613          	sll	a2,a2,0x1
   21cf4:	00169693          	sll	a3,a3,0x1
   21cf8:	feb66ae3          	bltu	a2,a1,21cec <__hidden___udivsi3+0x18>
   21cfc:	00000513          	li	a0,0
   21d00:	00c5e663          	bltu	a1,a2,21d0c <__hidden___udivsi3+0x38>
   21d04:	40c585b3          	sub	a1,a1,a2
   21d08:	00d56533          	or	a0,a0,a3
   21d0c:	0016d693          	srl	a3,a3,0x1
   21d10:	00165613          	srl	a2,a2,0x1
   21d14:	fe0696e3          	bnez	a3,21d00 <__hidden___udivsi3+0x2c>
   21d18:	00008067          	ret

00021d1c <__umodsi3>:
   21d1c:	00008293          	mv	t0,ra
   21d20:	fb5ff0ef          	jal	21cd4 <__hidden___udivsi3>
   21d24:	00058513          	mv	a0,a1
   21d28:	00028067          	jr	t0
   21d2c:	40a00533          	neg	a0,a0
   21d30:	00b04863          	bgtz	a1,21d40 <__umodsi3+0x24>
   21d34:	40b005b3          	neg	a1,a1
   21d38:	f9dff06f          	j	21cd4 <__hidden___udivsi3>
   21d3c:	40b005b3          	neg	a1,a1
   21d40:	00008293          	mv	t0,ra
   21d44:	f91ff0ef          	jal	21cd4 <__hidden___udivsi3>
   21d48:	40a00533          	neg	a0,a0
   21d4c:	00028067          	jr	t0

00021d50 <__modsi3>:
   21d50:	00008293          	mv	t0,ra
   21d54:	0005ca63          	bltz	a1,21d68 <__modsi3+0x18>
   21d58:	00054c63          	bltz	a0,21d70 <__modsi3+0x20>
   21d5c:	f79ff0ef          	jal	21cd4 <__hidden___udivsi3>
   21d60:	00058513          	mv	a0,a1
   21d64:	00028067          	jr	t0
   21d68:	40b005b3          	neg	a1,a1
   21d6c:	fe0558e3          	bgez	a0,21d5c <__modsi3+0xc>
   21d70:	40a00533          	neg	a0,a0
   21d74:	f61ff0ef          	jal	21cd4 <__hidden___udivsi3>
   21d78:	40b00533          	neg	a0,a1
   21d7c:	00028067          	jr	t0

00021d80 <__clzsi2>:
   21d80:	000107b7          	lui	a5,0x10
   21d84:	02f57a63          	bgeu	a0,a5,21db8 <__clzsi2+0x38>
   21d88:	10053793          	sltiu	a5,a0,256
   21d8c:	0017b793          	seqz	a5,a5
   21d90:	00379793          	sll	a5,a5,0x3
   21d94:	02000713          	li	a4,32
   21d98:	40f70733          	sub	a4,a4,a5
   21d9c:	00f55533          	srl	a0,a0,a5
   21da0:	00000797          	auipc	a5,0x0
   21da4:	7f878793          	add	a5,a5,2040 # 22598 <__clz_tab>
   21da8:	00a787b3          	add	a5,a5,a0
   21dac:	0007c503          	lbu	a0,0(a5)
   21db0:	40a70533          	sub	a0,a4,a0
   21db4:	00008067          	ret
   21db8:	01000737          	lui	a4,0x1000
   21dbc:	01800793          	li	a5,24
   21dc0:	fce57ae3          	bgeu	a0,a4,21d94 <__clzsi2+0x14>
   21dc4:	01000793          	li	a5,16
   21dc8:	fcdff06f          	j	21d94 <__clzsi2+0x14>
